
simple_world.elf:     file format elf32-littleriscv
simple_world.elf
architecture: riscv:rv32, flags 0x00000112:
EXEC_P, HAS_SYMS, D_PAGED
start address 0x20000000

Program Header:
    LOAD off    0x00001000 vaddr 0x20000000 paddr 0x20000000 align 2**12
         filesz 0x000000b4 memsz 0x000000b4 flags r-x
    LOAD off    0x00002000 vaddr 0x80000000 paddr 0x200000b4 align 2**12
         filesz 0x0000547e memsz 0x0000547e flags r-x
    LOAD off    0x00007480 vaddr 0x80005480 paddr 0x20005532 align 2**12
         filesz 0x00000004 memsz 0x00000004 flags r--
    LOAD off    0x00007536 vaddr 0x20005536 paddr 0x20005536 align 2**12
         filesz 0x00000000 memsz 0x00000002 flags rw-
    LOAD off    0x00008000 vaddr 0x90000000 paddr 0x20005538 align 2**12
         filesz 0x00000958 memsz 0x00000958 flags rw-
    LOAD off    0x00008958 vaddr 0x90000958 paddr 0x90000958 align 2**12
         filesz 0x00000000 memsz 0x0000a734 flags rw-
    LOAD off    0x00009800 vaddr 0x9000f800 paddr 0x9000b08c align 2**12
         filesz 0x00000000 memsz 0x00000800 flags rw-

Sections:
Idx Name                       Size      VMA       LMA       File off  Algn  Flags
  0 .init                      000000b4  20000000  20000000  00001000  2**0  CONTENTS, ALLOC, LOAD, READONLY, CODE
  1 .ilalign                   00000000  200000b4  200000b4  00008958  2**0  CONTENTS
  2 .text                      0000547e  80000000  200000b4  00002000  2**2  CONTENTS, ALLOC, LOAD, READONLY, CODE
  3 .sdata2._global_impure_ptr 00000004  80005480  20005532  00007480  2**2  CONTENTS, ALLOC, LOAD, READONLY, DATA
  4 .lalign                    00000002  20005536  20005536  00007536  2**0  ALLOC
  5 .dalign                    00000000  90000000  90000000  00008958  2**0  CONTENTS
  6 .data                      00000958  90000000  20005538  00008000  2**2  CONTENTS, ALLOC, LOAD, DATA
  7 .bss                       0000a734  90000958  90000958  00008958  2**2  ALLOC
  8 .stack                     00000800  9000f800  9000b08c  00009800  2**0  ALLOC
  9 .debug_info                00009ff7  00000000  00000000  00008958  2**0  CONTENTS, READONLY, DEBUGGING
 10 .debug_abbrev              0000192c  00000000  00000000  0001294f  2**0  CONTENTS, READONLY, DEBUGGING
 11 .debug_loc                 0000596f  00000000  00000000  0001427b  2**0  CONTENTS, READONLY, DEBUGGING
 12 .debug_aranges             00000288  00000000  00000000  00019bf0  2**3  CONTENTS, READONLY, DEBUGGING
 13 .debug_ranges              00001630  00000000  00000000  00019e78  2**0  CONTENTS, READONLY, DEBUGGING
 14 .debug_line                0000c102  00000000  00000000  0001b4a8  2**0  CONTENTS, READONLY, DEBUGGING
 15 .debug_str                 00001821  00000000  00000000  000275aa  2**0  CONTENTS, READONLY, DEBUGGING
 16 .comment                   00000039  00000000  00000000  00028dcb  2**0  CONTENTS, READONLY
 17 .debug_frame               00001004  00000000  00000000  00028e04  2**2  CONTENTS, READONLY, DEBUGGING
SYMBOL TABLE:
20000000 l    d  .init	00000000 .init
200000b4 l    d  .ilalign	00000000 .ilalign
80000000 l    d  .text	00000000 .text
80005480 l    d  .sdata2._global_impure_ptr	00000000 .sdata2._global_impure_ptr
20005536 l    d  .lalign	00000000 .lalign
90000000 l    d  .dalign	00000000 .dalign
90000000 l    d  .data	00000000 .data
90000958 l    d  .bss	00000000 .bss
9000f800 l    d  .stack	00000000 .stack
00000000 l    d  .debug_info	00000000 .debug_info
00000000 l    d  .debug_abbrev	00000000 .debug_abbrev
00000000 l    d  .debug_loc	00000000 .debug_loc
00000000 l    d  .debug_aranges	00000000 .debug_aranges
00000000 l    d  .debug_ranges	00000000 .debug_ranges
00000000 l    d  .debug_line	00000000 .debug_line
00000000 l    d  .debug_str	00000000 .debug_str
00000000 l    d  .comment	00000000 .comment
00000000 l    d  .debug_frame	00000000 .debug_frame
00000000 l    df *ABS*	00000000 main.c
00000000 l    df *ABS*	00000000 picojpeg.c
80000d6e l     F .text	000001f0 upsampleCb
80000f5e l     F .text	00000132 upsampleCbH
80001090 l     F .text	00000130 upsampleCbV
800011c0 l     F .text	000001e0 upsampleCr
800013a0 l     F .text	00000130 upsampleCrH
800014d0 l     F .text	0000012e upsampleCrV
800015fe l     F .text	000000aa getChar
800016a8 l     F .text	0000004c getOctet.part.1
800016f4 l     F .text	00000106 getBits
800017fa l     F .text	00000366 processMarkers
80001b60 l     F .text	00000062 getBit
80001bc2 l     F .text	00000086 huffDecode
9000a71c l     O .bss	00000080 gCoeffBuf
9000a79c l     O .bss	00000050 gHuffTab0
9000a7ec l     O .bss	00000050 gHuffTab1
9000a83c l     O .bss	00000050 gHuffTab2
9000a88c l     O .bss	00000050 gHuffTab3
9000a8dc l     O .bss	00000010 gHuffVal0
9000a8ec l     O .bss	00000010 gHuffVal1
9000a8fc l     O .bss	00000100 gHuffVal2
9000a9fc l     O .bss	00000100 gHuffVal3
9000aafc l     O .bss	00000100 gInBuf
9000abfc l     O .bss	00000100 gMCUBufB
9000acfc l     O .bss	00000100 gMCUBufG
9000adfc l     O .bss	00000100 gMCUBufR
9000aefc l     O .bss	00000080 gQuant0
9000af7c l     O .bss	00000080 gQuant1
900000dc l     O .data	0000001e CSWTCH.300
900000fc l     O .data	0000001e CSWTCH.301
9000011c l     O .data	00000010 CSWTCH.302
9000012c l     O .data	00000010 CSWTCH.303
9000013c l     O .data	00000040 ZAG
900009b0 l     O .bss	00000002 gBitBuf
900009b2 l     O .bss	00000001 gBitsLeft
900009b3 l     O .bss	00000001 gCallbackStatus
900009b4 l     O .bss	00000003 gCompACTab
900009b8 l     O .bss	00000003 gCompDCTab
900009bc l     O .bss	00000003 gCompHSamp
900009c0 l     O .bss	00000003 gCompIdent
900009c4 l     O .bss	00000003 gCompList
900009c8 l     O .bss	00000003 gCompQuant
900009cc l     O .bss	00000003 gCompVSamp
900009cf l     O .bss	00000001 gCompsInFrame
900009d0 l     O .bss	00000001 gCompsInScan
900009d2 l     O .bss	00000002 gImageXSize
900009d4 l     O .bss	00000002 gImageYSize
900009d6 l     O .bss	00000001 gInBufLeft
900009d7 l     O .bss	00000001 gInBufOfs
900009d8 l     O .bss	00000006 gLastDC
900009e0 l     O .bss	00000006 gMCUOrg
900009e6 l     O .bss	00000001 gMaxBlocksPerMCU
900009e8 l     O .bss	00000002 gMaxMCUSPerCol
900009ea l     O .bss	00000002 gMaxMCUSPerRow
900009ec l     O .bss	00000001 gMaxMCUXSize
900009ed l     O .bss	00000001 gMaxMCUYSize
900009ee l     O .bss	00000002 gNextRestartNum
900009f0 l     O .bss	00000002 gNumMCUSRemainingX
900009f2 l     O .bss	00000002 gNumMCUSRemainingY
900009f4 l     O .bss	00000001 gReduce
900009f6 l     O .bss	00000002 gRestartInterval
900009f8 l     O .bss	00000002 gRestartsLeft
900009fc l     O .bss	00000004 gScanType
90000a00 l     O .bss	00000001 gTemFlag
90000a01 l     O .bss	00000001 gValidHuffTables
90000a02 l     O .bss	00000001 gValidQuantTables
90000a04 l     O .bss	00000004 g_pCallback_data
90000a08 l     O .bss	00000004 g_pNeedBytesCallback
00000000 l    df *ABS*	00000000 _exit.c
00000000 l    df *ABS*	00000000 close.c
00000000 l    df *ABS*	00000000 fstat.c
00000000 l    df *ABS*	00000000 isatty.c
00000000 l    df *ABS*	00000000 lseek.c
00000000 l    df *ABS*	00000000 read.c
00000000 l    df *ABS*	00000000 sbrk.c
90000950 l     O .data	00000004 curbrk.1526
00000000 l    df *ABS*	00000000 write.c
00000000 l    df *ABS*	00000000 write_hex.c
00000000 l    df *ABS*	00000000 init.c
80003dd0 l     F .text	0000003c measure_cpu_freq
90000a0c l     O .bss	00000004 cpu_freq.2958
00000000 l    df *ABS*	00000000 atexit.c
00000000 l    df *ABS*	00000000 exit.c
00000000 l    df *ABS*	00000000 fini.c
00000000 l    df *ABS*	00000000 init.c
00000000 l    df *ABS*	00000000 memcpy.c
00000000 l    df *ABS*	00000000 printf.c
00000000 l    df *ABS*	00000000 puts.c
00000000 l    df *ABS*	00000000 sysisatty.c
00000000 l    df *ABS*	00000000 syswrite.c
00000000 l    df *ABS*	00000000 wbuf.c
00000000 l    df *ABS*	00000000 writer.c
00000000 l    df *ABS*	00000000 wsetup.c
00000000 l    df *ABS*	00000000 __atexit.c
9000affc l     O .bss	0000008c _global_atexit0
00000000 l    df *ABS*	00000000 __call_atexit.c
00000000 l    df *ABS*	00000000 fflush.c
00000000 l    df *ABS*	00000000 findfp.c
80004672 l     F .text	00000068 std
00000000 l    df *ABS*	00000000 fwalk.c
00000000 l    df *ABS*	00000000 makebuf.c
00000000 l    df *ABS*	00000000 nano-mallocr.c
00000000 l    df *ABS*	00000000 nano-mallocr.c
00000000 l    df *ABS*	00000000 nano-vfprintf.c
80004bb8 l     F .text	0000002a __sfputc_r
00000000 l    df *ABS*	00000000 nano-vfprintf_i.c
00000000 l    df *ABS*	00000000 sbrkr.c
00000000 l    df *ABS*	00000000 stdio.c
00000000 l    df *ABS*	00000000 closer.c
00000000 l    df *ABS*	00000000 fstatr.c
00000000 l    df *ABS*	00000000 isattyr.c
00000000 l    df *ABS*	00000000 lseekr.c
00000000 l    df *ABS*	00000000 memchr.c
00000000 l    df *ABS*	00000000 mlock.c
00000000 l    df *ABS*	00000000 readr.c
00000000 l    df *ABS*	00000000 impure.c
900008ec l     O .data	00000060 impure_data
00000000 l    df *ABS*	00000000 reent.c
00000000 l    df *ABS*	00000000 
20005536 l       .sdata2._global_impure_ptr	00000000 __fini_array_end
20005536 l       .sdata2._global_impure_ptr	00000000 __fini_array_start
20005536 l       .sdata2._global_impure_ptr	00000000 __init_array_end
20005536 l       .sdata2._global_impure_ptr	00000000 __preinit_array_end
20005536 l       .sdata2._global_impure_ptr	00000000 __init_array_start
20005536 l       .sdata2._global_impure_ptr	00000000 __preinit_array_start
90000974 g     O .bss	00000002 eth_type_rx
800053c2 g     F .text	00000032 _isatty_r
80004086 g     F .text	000000da _puts_r
800053f4 g     F .text	00000036 _lseek_r
8000090a g     F .text	0000016c receive_udp
80004042 g     F .text	00000044 printf
90001150 g       .data	00000000 __global_pointer$
80005320 g     F .text	00000036 __sseek
80004728 g     F .text	0000006a __sinit
80004184 g     F .text	000000c0 __swbuf_r
800046e4 g     F .text	00000044 __sfmoreglue
80005446 g     F .text	00000002 __malloc_unlock
800007b4 g     F .text	00000056 pjpeg_need_bytes_callback
90000968 g     O .bss	00000004 dest_ip_rx
8000538e g     F .text	00000034 _fstat_r
9000b088 g     O .bss	00000004 errno
00000800 g       *ABS*	00000000 __stack_size
800033e6 g     F .text	0000078c pjpeg_decode_init
80003f8c g     F .text	000000b6 memcpy
800046da g     F .text	0000000a _cleanup_r
80004160 g     F .text	0000000e puts
8000416e g     F .text	00000004 isatty
80003bdc g     F .text	0000001e _fstat
80003e0c g     F .text	0000002a get_cpu_freq
900009a8 g     O .bss	00000004 sum
80003e36 g     F .text	0000001c handle_trap
90000958 g     O .bss	00000004 char_block
9000a2a0 g     O .bss	00000038 ip_head
8000526e g     F .text	00000032 _sbrk_r
900009a0 g     O .bss	00000006 source_mac_rx
80005448 g     F .text	00000036 _read_r
9000097c g     O .bss	00000004 k
80001c48 g     F .text	0000179e pjpeg_decode_mcu
9000098c g     O .bss	00000001 minindex
90000960 g     O .bss	00000004 decoded_height
900009ac g     O .bss	00000001 temp
9000f800 g       .stack	00000000 _heap_end
80003bfa g     F .text	00000008 _isatty
80005480 g     O .sdata2._global_impure_ptr	00000004 _global_impure_ptr
80003f20 g     F .text	0000006c __libc_init_array
80003c1a g     F .text	00000030 _sbrk
80003e52 g     F .text	00000060 _init
90000284 g     O .data	0000000b char_list
80003ee8 g     F .text	00000038 __libc_fini_array
9000099c g     O .bss	00000004 row_pitch
9000a500 g     O .bss	000000be result_list
80004172 g     F .text	00000012 write
900001e8 g     O .data	00000020 __sf_fake_stderr
8000080a g     F .text	00000100 eth_ini
80003c9e g     F .text	0000008c write_hex
90000964 g     O .bss	00000004 decoded_width
80004be2 g     F .text	00000042 __sfputs_r
8000542a g     F .text	0000001a memchr
80004a3c g     F .text	000000a8 _free_r
90000a10 g     O .bss	00000004 _global_atexit
8000440e g     F .text	000000c4 __call_exitprocs
80000000 g       .ilalign	00000000 _itcm
90010000 g       .stack	00000000 _sp
20000000 g     F .init	00000000 _start
9000096c g     O .bss	00000006 dest_mac_rx
9000a274 g     O .bss	0000002c image_info
90000990 g     O .bss	00000004 pImage
80003c02 g     F .text	00000014 _lseek
9000095c g     O .bss	00000004 col_blocks_per_mcu
8000438a g     F .text	00000084 __register_exitproc
90000978 g     O .bss	00000002 g_nInFileSize
9000017c g     O .data	00000040 gWinogradQuant
8000535c g     F .text	00000032 _close_r
8000427a g     F .text	00000110 __swsetup_r
80004792 g     F .text	0000009e __sfp
90000994 g     O .bss	00000002 receive_len
800052a0 g     F .text	00000030 __sread
9000a688 g     O .bss	00000094 test_set
80005444 g     F .text	00000002 __malloc_lock
8000460e g     F .text	00000064 _fflush_r
90000998 g     O .bss	00000004 row_blocks_per_mcu
90000208 g     O .data	00000020 __sf_fake_stdin
90000958 g       .bss	00000000 __bss_start
80005484 g       .lalign	00000000 _eitcm
80000a76 g     F .text	000002f8 send_udp
80004994 g     F .text	000000a8 memset
80000000 g     F .text	000007b4 main
80003d2c g       .text	00000000 trap_entry
9000097a g     O .bss	00000001 jpgindex
90000980 g     O .bss	00000004 mcu_x
90000a1c g     O .bss	00009858 image_buf
80005356 g     F .text	00000006 __sclose
80004ae4 g     F .text	000000d4 _malloc_r
90000988 g     O .bss	00000004 min
80003eb2 g     F .text	00000002 _fini
80004042 g     F .text	00000044 iprintf
80003eb4 g     F .text	0000000a atexit
80004244 g     F .text	00000036 _write_r
80004ebe g     F .text	0000010c _printf_common
90000954 g     O .data	00000004 _impure_ptr
800044d2 g     F .text	0000013c __sflush_r
90000000 g       .dalign	00000000 _data
9000098e g     O .bss	00000002 offset
90000290 g     O .data	0000065c train_set
8000489c g     F .text	0000005a __swhatbuf_r
90000984 g     O .bss	00000004 mcu_y
80003c4a g     F .text	00000054 _write
90000958 g       .bss	00000000 _edata
9000b090 g       .bss	00000000 _end
200000b4 g       .ilalign	00000000 _itcm_lma
20005538 g       .lalign	00000000 _data_lma
90000976 g     O .bss	00000002 g_nInFileOfs
9000a2d8 g     O .bss	00000226 receive_buf
800052d0 g     F .text	00000050 __swrite
80003ebe g     F .text	0000002a exit
80004c24 g     F .text	0000029a _vfiprintf_r
80004830 g     F .text	0000006c _fwalk_reent
90000228 g     O .data	00000020 __sf_fake_stdout
9000a5c0 g     O .bss	000000c8 send_buf
900009ae g     O .bss	00000002 tx_index
80003c16 g     F .text	00000004 _read
80003b72 g     F .text	00000066 _exit
90000972 g     O .bss	00000002 dest_port
800048f6 g     F .text	0000009e __smakebuf_r
80004fca g     F .text	000002a4 _printf_i
90000a18 g     O .bss	00000004 __malloc_sbrk_start
90000a14 g     O .bss	00000004 __malloc_free_list
80004c24 g     F .text	0000029a _vfprintf_r
900009a6 g     O .bss	00000001 status
80003bd8 g     F .text	00000004 _close



Disassembly of section .init:

20000000 <_start>:
_start():
C:\NucleiStudio_workspace3\simple_world\Debug/../bsp/hbird-e200/env/start.S:12
	.section .init
	.globl _start
	.type _start,@function

_start:
	csrrci x0, mstatus, 0x8  //Disable the interrupt globally
20000000:	30047073          	csrci	mstatus,8
C:\NucleiStudio_workspace3\simple_world\Debug/../bsp/hbird-e200/env/start.S:15
.option push
.option norelax
	la gp, __global_pointer$
20000004:	70001197          	auipc	gp,0x70001
20000008:	14c18193          	addi	gp,gp,332 # 90001150 <__global_pointer$>
C:\NucleiStudio_workspace3\simple_world\Debug/../bsp/hbird-e200/env/start.S:17
.option pop
	la sp, _sp
2000000c:	70010117          	auipc	sp,0x70010
20000010:	ff410113          	addi	sp,sp,-12 # 90010000 <_sp>
C:\NucleiStudio_workspace3\simple_world\Debug/../bsp/hbird-e200/env/start.S:22

    #csrrsi x0, 0xbfe, 0x8 // Disable I-Cache

	/* Bob: Load code section from flash to ITCM */
	la a0, _itcm_lma
20000014:	00000517          	auipc	a0,0x0
20000018:	0a050513          	addi	a0,a0,160 # 200000b4 <_itcm_lma>
C:\NucleiStudio_workspace3\simple_world\Debug/../bsp/hbird-e200/env/start.S:23
	la a1, _itcm
2000001c:	60000597          	auipc	a1,0x60000
20000020:	fe458593          	addi	a1,a1,-28 # 80000000 <_itcm>
C:\NucleiStudio_workspace3\simple_world\Debug/../bsp/hbird-e200/env/start.S:24
    beq a0, a1, 2f  /*If the ITCM phy-address same as the logic-address, then quit*/
20000024:	02b50063          	beq	a0,a1,20000044 <_start+0x44>
C:\NucleiStudio_workspace3\simple_world\Debug/../bsp/hbird-e200/env/start.S:25
	la a2, _eitcm
20000028:	60005617          	auipc	a2,0x60005
2000002c:	45c60613          	addi	a2,a2,1116 # 80005484 <_eitcm>
C:\NucleiStudio_workspace3\simple_world\Debug/../bsp/hbird-e200/env/start.S:26
	bgeu a1, a2, 2f
20000030:	00c5fa63          	bgeu	a1,a2,20000044 <_start+0x44>
C:\NucleiStudio_workspace3\simple_world\Debug/../bsp/hbird-e200/env/start.S:28
1:
	lw t0, (a0)
20000034:	00052283          	lw	t0,0(a0)
C:\NucleiStudio_workspace3\simple_world\Debug/../bsp/hbird-e200/env/start.S:29
	sw t0, (a1)
20000038:	0055a023          	sw	t0,0(a1)
C:\NucleiStudio_workspace3\simple_world\Debug/../bsp/hbird-e200/env/start.S:30
	addi a0, a0, 4
2000003c:	0511                	addi	a0,a0,4
C:\NucleiStudio_workspace3\simple_world\Debug/../bsp/hbird-e200/env/start.S:31
	addi a1, a1, 4
2000003e:	0591                	addi	a1,a1,4
C:\NucleiStudio_workspace3\simple_world\Debug/../bsp/hbird-e200/env/start.S:32
	bltu a1, a2, 1b
20000040:	fec5eae3          	bltu	a1,a2,20000034 <_start+0x34>
C:\NucleiStudio_workspace3\simple_world\Debug/../bsp/hbird-e200/env/start.S:36
2:

	/* Load data section */
	la a0, _data_lma
20000044:	00005517          	auipc	a0,0x5
20000048:	4f450513          	addi	a0,a0,1268 # 20005538 <_data_lma>
C:\NucleiStudio_workspace3\simple_world\Debug/../bsp/hbird-e200/env/start.S:37
	la a1, _data
2000004c:	70000597          	auipc	a1,0x70000
20000050:	fb458593          	addi	a1,a1,-76 # 90000000 <_data>
C:\NucleiStudio_workspace3\simple_world\Debug/../bsp/hbird-e200/env/start.S:38
	la a2, _edata
20000054:	80818613          	addi	a2,gp,-2040 # 90000958 <char_block>
C:\NucleiStudio_workspace3\simple_world\Debug/../bsp/hbird-e200/env/start.S:39
	bgeu a1, a2, 2f
20000058:	00c5fa63          	bgeu	a1,a2,2000006c <_start+0x6c>
C:\NucleiStudio_workspace3\simple_world\Debug/../bsp/hbird-e200/env/start.S:41
1:
	lw t0, (a0)
2000005c:	00052283          	lw	t0,0(a0)
C:\NucleiStudio_workspace3\simple_world\Debug/../bsp/hbird-e200/env/start.S:42
	sw t0, (a1)
20000060:	0055a023          	sw	t0,0(a1)
C:\NucleiStudio_workspace3\simple_world\Debug/../bsp/hbird-e200/env/start.S:43
	addi a0, a0, 4
20000064:	0511                	addi	a0,a0,4
C:\NucleiStudio_workspace3\simple_world\Debug/../bsp/hbird-e200/env/start.S:44
	addi a1, a1, 4
20000066:	0591                	addi	a1,a1,4
C:\NucleiStudio_workspace3\simple_world\Debug/../bsp/hbird-e200/env/start.S:45
	bltu a1, a2, 1b
20000068:	fec5eae3          	bltu	a1,a2,2000005c <_start+0x5c>
C:\NucleiStudio_workspace3\simple_world\Debug/../bsp/hbird-e200/env/start.S:49
2:

	/* Clear bss section */
	la a0, __bss_start
2000006c:	80818513          	addi	a0,gp,-2040 # 90000958 <char_block>
C:\NucleiStudio_workspace3\simple_world\Debug/../bsp/hbird-e200/env/start.S:50
	la a1, _end
20000070:	7000b597          	auipc	a1,0x7000b
20000074:	02058593          	addi	a1,a1,32 # 9000b090 <_end>
C:\NucleiStudio_workspace3\simple_world\Debug/../bsp/hbird-e200/env/start.S:51
	bgeu a0, a1, 2f
20000078:	00b57763          	bgeu	a0,a1,20000086 <_start+0x86>
C:\NucleiStudio_workspace3\simple_world\Debug/../bsp/hbird-e200/env/start.S:53
1:
	sw zero, (a0)
2000007c:	00052023          	sw	zero,0(a0)
C:\NucleiStudio_workspace3\simple_world\Debug/../bsp/hbird-e200/env/start.S:54
	addi a0, a0, 4
20000080:	0511                	addi	a0,a0,4
C:\NucleiStudio_workspace3\simple_world\Debug/../bsp/hbird-e200/env/start.S:55
	bltu a0, a1, 1b
20000082:	feb56de3          	bltu	a0,a1,2000007c <_start+0x7c>
C:\NucleiStudio_workspace3\simple_world\Debug/../bsp/hbird-e200/env/start.S:59
2:

	/* Call global constructors */
	la a0, __libc_fini_array
20000086:	60004517          	auipc	a0,0x60004
2000008a:	e6250513          	addi	a0,a0,-414 # 80003ee8 <__libc_fini_array>
C:\NucleiStudio_workspace3\simple_world\Debug/../bsp/hbird-e200/env/start.S:60
	call atexit
2000008e:	60004097          	auipc	ra,0x60004
20000092:	e26080e7          	jalr	-474(ra) # 80003eb4 <atexit>
C:\NucleiStudio_workspace3\simple_world\Debug/../bsp/hbird-e200/env/start.S:61
	call __libc_init_array
20000096:	60004097          	auipc	ra,0x60004
2000009a:	e8a080e7          	jalr	-374(ra) # 80003f20 <__libc_init_array>
C:\NucleiStudio_workspace3\simple_world\Debug/../bsp/hbird-e200/env/start.S:71
	csrs mstatus, t0 
	csrw fcsr, x0   
#endif

	/* argc = argv = 0 */
	li a0, 0
2000009e:	4501                	li	a0,0
C:\NucleiStudio_workspace3\simple_world\Debug/../bsp/hbird-e200/env/start.S:72
	li a1, 0
200000a0:	4581                	li	a1,0
C:\NucleiStudio_workspace3\simple_world\Debug/../bsp/hbird-e200/env/start.S:73
	call main
200000a2:	60000097          	auipc	ra,0x60000
200000a6:	f5e080e7          	jalr	-162(ra) # 80000000 <_itcm>
C:\NucleiStudio_workspace3\simple_world\Debug/../bsp/hbird-e200/env/start.S:74
	tail exit
200000aa:	60004317          	auipc	t1,0x60004
200000ae:	e1430067          	jr	-492(t1) # 80003ebe <exit>
C:\NucleiStudio_workspace3\simple_world\Debug/../bsp/hbird-e200/env/start.S:77

1:
	j 1b
200000b2:	a001                	j	200000b2 <_start+0xb2>

Disassembly of section .text:

80000000 <main>:
main():
C:\NucleiStudio_workspace3\simple_world\Debug/../src/main.c:93
}

int main(void)
{
	tx_index = 0;
	for (jpgindex=0;jpgindex<10;jpgindex++){
80000000:	82a18713          	addi	a4,gp,-2006 # 9000097a <jpgindex>
80000004:	9000a7b7          	lui	a5,0x9000a
80000008:	68878693          	addi	a3,a5,1672 # 9000a688 <_sp+0xffffa688>
C:\NucleiStudio_workspace3\simple_world\Debug/../src/main.c:91
{
8000000c:	7175                	addi	sp,sp,-144
C:\NucleiStudio_workspace3\simple_world\Debug/../src/main.c:92
	tx_index = 0;
8000000e:	84019f23          	sh	zero,-1954(gp) # 900009ae <tx_index>
C:\NucleiStudio_workspace3\simple_world\Debug/../src/main.c:91
{
80000012:	dad6                	sw	s5,116(sp)
80000014:	83018a93          	addi	s5,gp,-2000 # 90000980 <mcu_x>
80000018:	ceee                	sw	s11,92(sp)
8000001a:	83418d93          	addi	s11,gp,-1996 # 90000984 <mcu_y>
8000001e:	d0ea                	sw	s10,96(sp)
80000020:	84418d13          	addi	s10,gp,-1980 # 90000994 <receive_len>
80000024:	d4e2                	sw	s8,104(sp)
80000026:	84018c13          	addi	s8,gp,-1984 # 90000990 <pImage>
8000002a:	82218793          	addi	a5,gp,-2014 # 90000972 <dest_port>
8000002e:	cc3e                	sw	a5,24(sp)
80000030:	82818793          	addi	a5,gp,-2008 # 90000978 <g_nInFileSize>
80000034:	ca3e                	sw	a5,20(sp)
80000036:	82618793          	addi	a5,gp,-2010 # 90000976 <g_nInFileOfs>
8000003a:	c63e                	sw	a5,12(sp)
8000003c:	9000a7b7          	lui	a5,0x9000a
80000040:	d6de                	sw	s7,108(sp)
80000042:	5c078b93          	addi	s7,a5,1472 # 9000a5c0 <_sp+0xffffa5c0>
80000046:	9000a7b7          	lui	a5,0x9000a
8000004a:	d8da                	sw	s6,112(sp)
8000004c:	27478b13          	addi	s6,a5,628 # 9000a274 <_sp+0xffffa274>
80000050:	85618793          	addi	a5,gp,-1962 # 900009a6 <status>
80000054:	c43e                	sw	a5,8(sp)
C:\NucleiStudio_workspace3\simple_world\Debug/../src/main.c:125
			receive_len=0;
			while (receive_len==0){
				receive_len = receive_udp(receive_buf);
			}
//			printf("receive a pkt %d\n",receive_len);
			memcpy(image_buf+g_nInFileOfs,receive_buf+4,receive_len-4);
80000056:	900017b7          	lui	a5,0x90001
8000005a:	a1c78793          	addi	a5,a5,-1508 # 90000a1c <_sp+0xffff0a1c>
8000005e:	dc3e                	sw	a5,56(sp)
80000060:	100417b7          	lui	a5,0x10041
C:\NucleiStudio_workspace3\simple_world\Debug/../src/main.c:91
{
80000064:	c706                	sw	ra,140(sp)
80000066:	c522                	sw	s0,136(sp)
80000068:	c326                	sw	s1,132(sp)
8000006a:	c14a                	sw	s2,128(sp)
8000006c:	dece                	sw	s3,124(sp)
8000006e:	dcd2                	sw	s4,120(sp)
80000070:	d2e6                	sw	s9,100(sp)
80000072:	8f95                	sub	a5,a5,a3
C:\NucleiStudio_workspace3\simple_world\Debug/../src/main.c:93
	for (jpgindex=0;jpgindex<10;jpgindex++){
80000074:	c83a                	sw	a4,16(sp)
80000076:	ce36                	sw	a3,28(sp)
80000078:	00070023          	sb	zero,0(a4)
8000007c:	de3e                	sw	a5,60(sp)
C:\NucleiStudio_workspace3\simple_world\Debug/../src/main.c:96
		receive_len=1024;
8000007e:	40000793          	li	a5,1024
80000082:	00fd1023          	sh	a5,0(s10)
C:\NucleiStudio_workspace3\simple_world\Debug/../src/main.c:97
		pImage = (uint8_t *)0xa0000000;
80000086:	a00007b7          	lui	a5,0xa0000
8000008a:	00fc2023          	sw	a5,0(s8)
C:\NucleiStudio_workspace3\simple_world\Debug/../src/main.c:94
		mcu_x = 0;
8000008e:	000aa023          	sw	zero,0(s5)
C:\NucleiStudio_workspace3\simple_world\Debug/../src/main.c:95
		mcu_y = 0;
80000092:	000da023          	sw	zero,0(s11)
C:\NucleiStudio_workspace3\simple_world\Debug/../src/main.c:99
		eth_ini();
80000096:	774000ef          	jal	ra,8000080a <eth_ini>
C:\NucleiStudio_workspace3\simple_world\Debug/../src/main.c:106
		send_buf[2] = '0'+jpgindex;
8000009a:	47c2                	lw	a5,16(sp)
C:\NucleiStudio_workspace3\simple_world\Debug/../src/main.c:118
		send_udp(14,send_buf);
8000009c:	9000a737          	lui	a4,0x9000a
C:\NucleiStudio_workspace3\simple_world\Debug/../src/main.c:100
		dest_port = 0x4500;
800000a0:	46e2                	lw	a3,24(sp)
C:\NucleiStudio_workspace3\simple_world\Debug/../src/main.c:106
		send_buf[2] = '0'+jpgindex;
800000a2:	0007c783          	lbu	a5,0(a5) # a0000000 <_sp+0xfff0000>
C:\NucleiStudio_workspace3\simple_world\Debug/../src/main.c:118
		send_udp(14,send_buf);
800000a6:	5c070593          	addi	a1,a4,1472 # 9000a5c0 <_sp+0xffffa5c0>
C:\NucleiStudio_workspace3\simple_world\Debug/../src/main.c:100
		dest_port = 0x4500;
800000aa:	6711                	lui	a4,0x4
800000ac:	50070713          	addi	a4,a4,1280 # 4500 <__stack_size+0x3d00>
C:\NucleiStudio_workspace3\simple_world\Debug/../src/main.c:106
		send_buf[2] = '0'+jpgindex;
800000b0:	03078793          	addi	a5,a5,48
C:\NucleiStudio_workspace3\simple_world\Debug/../src/main.c:100
		dest_port = 0x4500;
800000b4:	00e69023          	sh	a4,0(a3)
C:\NucleiStudio_workspace3\simple_world\Debug/../src/main.c:101
		g_nInFileSize = 0;
800000b8:	4752                	lw	a4,20(sp)
C:\NucleiStudio_workspace3\simple_world\Debug/../src/main.c:106
		send_buf[2] = '0'+jpgindex;
800000ba:	00fb8123          	sb	a5,2(s7)
C:\NucleiStudio_workspace3\simple_world\Debug/../src/main.c:107
		send_buf[3] = '.';
800000be:	02e00793          	li	a5,46
800000c2:	00fb81a3          	sb	a5,3(s7)
C:\NucleiStudio_workspace3\simple_world\Debug/../src/main.c:108
		send_buf[4] = 'j';
800000c6:	006777b7          	lui	a5,0x677
C:\NucleiStudio_workspace3\simple_world\Debug/../src/main.c:101
		g_nInFileSize = 0;
800000ca:	00071023          	sh	zero,0(a4)
C:\NucleiStudio_workspace3\simple_world\Debug/../src/main.c:108
		send_buf[4] = 'j';
800000ce:	06a78793          	addi	a5,a5,106 # 67706a <__stack_size+0x67686a>
C:\NucleiStudio_workspace3\simple_world\Debug/../src/main.c:102
		g_nInFileOfs = 0;
800000d2:	4732                	lw	a4,12(sp)
C:\NucleiStudio_workspace3\simple_world\Debug/../src/main.c:108
		send_buf[4] = 'j';
800000d4:	00fba223          	sw	a5,4(s7)
C:\NucleiStudio_workspace3\simple_world\Debug/../src/main.c:112
		send_buf[8] = 'o';
800000d8:	657467b7          	lui	a5,0x65746
800000dc:	36f78793          	addi	a5,a5,879 # 6574636f <_data_lma+0x45740e37>
C:\NucleiStudio_workspace3\simple_world\Debug/../src/main.c:102
		g_nInFileOfs = 0;
800000e0:	00071023          	sh	zero,0(a4)
C:\NucleiStudio_workspace3\simple_world\Debug/../src/main.c:112
		send_buf[8] = 'o';
800000e4:	00fba423          	sw	a5,8(s7)
C:\NucleiStudio_workspace3\simple_world\Debug/../src/main.c:104
		send_buf[0] = 0;
800000e8:	10000713          	li	a4,256
C:\NucleiStudio_workspace3\simple_world\Debug/../src/main.c:116
		send_buf[12] = 't';
800000ec:	07400793          	li	a5,116
C:\NucleiStudio_workspace3\simple_world\Debug/../src/main.c:118
		send_udp(14,send_buf);
800000f0:	4539                	li	a0,14
C:\NucleiStudio_workspace3\simple_world\Debug/../src/main.c:104
		send_buf[0] = 0;
800000f2:	00eb9023          	sh	a4,0(s7)
C:\NucleiStudio_workspace3\simple_world\Debug/../src/main.c:116
		send_buf[12] = 't';
800000f6:	00fb9623          	sh	a5,12(s7)
C:\NucleiStudio_workspace3\simple_world\Debug/../src/main.c:119
		while (receive_len>=516){
800000fa:	20300913          	li	s2,515
C:\NucleiStudio_workspace3\simple_world\Debug/../src/main.c:118
		send_udp(14,send_buf);
800000fe:	179000ef          	jal	ra,80000a76 <send_udp>
C:\NucleiStudio_workspace3\simple_world\Debug/../src/main.c:119
		while (receive_len>=516){
80000102:	9000a437          	lui	s0,0x9000a
C:\NucleiStudio_workspace3\simple_world\Debug/../src/main.c:127
			g_nInFileOfs+=(receive_len-4);
			if (receive_buf[1]==3){
80000106:	448d                	li	s1,3
C:\NucleiStudio_workspace3\simple_world\Debug/../src/main.c:119
		while (receive_len>=516){
80000108:	000d5783          	lhu	a5,0(s10)
8000010c:	08f97263          	bgeu	s2,a5,80000190 <main+0x190>
C:\NucleiStudio_workspace3\simple_world\Debug/../src/main.c:120
			receive_len=0;
80000110:	000d1023          	sh	zero,0(s10)
C:\NucleiStudio_workspace3\simple_world\Debug/../src/main.c:121
			while (receive_len==0){
80000114:	000d5783          	lhu	a5,0(s10)
80000118:	07c2                	slli	a5,a5,0x10
8000011a:	83c1                	srli	a5,a5,0x10
8000011c:	ef91                	bnez	a5,80000138 <main+0x138>
C:\NucleiStudio_workspace3\simple_world\Debug/../src/main.c:122
				receive_len = receive_udp(receive_buf);
8000011e:	2d840513          	addi	a0,s0,728 # 9000a2d8 <_sp+0xffffa2d8>
80000122:	7e8000ef          	jal	ra,8000090a <receive_udp>
80000126:	0542                	slli	a0,a0,0x10
80000128:	8141                	srli	a0,a0,0x10
8000012a:	00ad1023          	sh	a0,0(s10)
C:\NucleiStudio_workspace3\simple_world\Debug/../src/main.c:121
			while (receive_len==0){
8000012e:	000d5783          	lhu	a5,0(s10)
80000132:	07c2                	slli	a5,a5,0x10
80000134:	83c1                	srli	a5,a5,0x10
80000136:	d7e5                	beqz	a5,8000011e <main+0x11e>
C:\NucleiStudio_workspace3\simple_world\Debug/../src/main.c:125
			memcpy(image_buf+g_nInFileOfs,receive_buf+4,receive_len-4);
80000138:	4cb2                	lw	s9,12(sp)
8000013a:	57e2                	lw	a5,56(sp)
8000013c:	000d5603          	lhu	a2,0(s10)
80000140:	000cd983          	lhu	s3,0(s9)
80000144:	2d840a13          	addi	s4,s0,728
80000148:	004a0593          	addi	a1,s4,4
8000014c:	01378533          	add	a0,a5,s3
80000150:	1671                	addi	a2,a2,-4
80000152:	63b030ef          	jal	ra,80003f8c <memcpy>
C:\NucleiStudio_workspace3\simple_world\Debug/../src/main.c:126
			g_nInFileOfs+=(receive_len-4);
80000156:	000d5783          	lhu	a5,0(s10)
C:\NucleiStudio_workspace3\simple_world\Debug/../src/main.c:127
			if (receive_buf[1]==3){
8000015a:	001a4703          	lbu	a4,1(s4)
C:\NucleiStudio_workspace3\simple_world\Debug/../src/main.c:126
			g_nInFileOfs+=(receive_len-4);
8000015e:	97ce                	add	a5,a5,s3
80000160:	17f1                	addi	a5,a5,-4
80000162:	00fc9023          	sh	a5,0(s9)
C:\NucleiStudio_workspace3\simple_world\Debug/../src/main.c:127
			if (receive_buf[1]==3){
80000166:	fa9711e3          	bne	a4,s1,80000108 <main+0x108>
C:\NucleiStudio_workspace3\simple_world\Debug/../src/main.c:130
				send_buf[0]=0;
				send_buf[1]=4;
				send_buf[2]=receive_buf[2];
8000016a:	002a5783          	lhu	a5,2(s4)
C:\NucleiStudio_workspace3\simple_world\Debug/../src/main.c:132
				send_buf[3]=receive_buf[3];
				send_udp(4,send_buf);
8000016e:	9000a737          	lui	a4,0x9000a
80000172:	5c070593          	addi	a1,a4,1472 # 9000a5c0 <_sp+0xffffa5c0>
80000176:	4511                	li	a0,4
C:\NucleiStudio_workspace3\simple_world\Debug/../src/main.c:128
				send_buf[0]=0;
80000178:	40000713          	li	a4,1024
C:\NucleiStudio_workspace3\simple_world\Debug/../src/main.c:130
				send_buf[2]=receive_buf[2];
8000017c:	00fb9123          	sh	a5,2(s7)
C:\NucleiStudio_workspace3\simple_world\Debug/../src/main.c:128
				send_buf[0]=0;
80000180:	00eb9023          	sh	a4,0(s7)
C:\NucleiStudio_workspace3\simple_world\Debug/../src/main.c:132
				send_udp(4,send_buf);
80000184:	0f3000ef          	jal	ra,80000a76 <send_udp>
C:\NucleiStudio_workspace3\simple_world\Debug/../src/main.c:119
		while (receive_len>=516){
80000188:	000d5783          	lhu	a5,0(s10)
8000018c:	f8f962e3          	bltu	s2,a5,80000110 <main+0x110>
C:\NucleiStudio_workspace3\simple_world\Debug/../src/main.c:135
			}
		}
		g_nInFileSize = g_nInFileOfs;
80000190:	4732                	lw	a4,12(sp)
80000192:	4452                	lw	s0,20(sp)
C:\NucleiStudio_workspace3\simple_world\Debug/../src/main.c:138
		g_nInFileOfs = 0;
		receive_len=0;
		status = pjpeg_decode_init(&image_info, pjpeg_need_bytes_callback, NULL, (unsigned char)reduce);
80000194:	800005b7          	lui	a1,0x80000
C:\NucleiStudio_workspace3\simple_world\Debug/../src/main.c:135
		g_nInFileSize = g_nInFileOfs;
80000198:	00075783          	lhu	a5,0(a4)
C:\NucleiStudio_workspace3\simple_world\Debug/../src/main.c:138
		status = pjpeg_decode_init(&image_info, pjpeg_need_bytes_callback, NULL, (unsigned char)reduce);
8000019c:	9000a537          	lui	a0,0x9000a
800001a0:	4681                	li	a3,0
800001a2:	4601                	li	a2,0
800001a4:	7b458593          	addi	a1,a1,1972 # 800007b4 <_sp+0xefff07b4>
800001a8:	27450513          	addi	a0,a0,628 # 9000a274 <_sp+0xffffa274>
C:\NucleiStudio_workspace3\simple_world\Debug/../src/main.c:135
		g_nInFileSize = g_nInFileOfs;
800001ac:	00f41023          	sh	a5,0(s0)
C:\NucleiStudio_workspace3\simple_world\Debug/../src/main.c:136
		g_nInFileOfs = 0;
800001b0:	00071023          	sh	zero,0(a4)
C:\NucleiStudio_workspace3\simple_world\Debug/../src/main.c:137
		receive_len=0;
800001b4:	000d1023          	sh	zero,0(s10)
C:\NucleiStudio_workspace3\simple_world\Debug/../src/main.c:138
		status = pjpeg_decode_init(&image_info, pjpeg_need_bytes_callback, NULL, (unsigned char)reduce);
800001b8:	22e030ef          	jal	ra,800033e6 <pjpeg_decode_init>
800001bc:	47a2                	lw	a5,8(sp)
800001be:	00a78023          	sb	a0,0(a5)
C:\NucleiStudio_workspace3\simple_world\Debug/../src/main.c:139
		if (status)
800001c2:	56051d63          	bnez	a0,8000073c <main+0x73c>
C:\NucleiStudio_workspace3\simple_world\Debug/../src/main.c:149 (discriminator 2)
		      printf("Progressive JPEG files are not supported.\n");
		   }

		   return 1;
		}
		decoded_width = reduce ? (image_info.m_MCUSPerRow * image_info.m_MCUWidth) / 8 : image_info.m_width;
800001c6:	000b2603          	lw	a2,0(s6)
C:\NucleiStudio_workspace3\simple_world\Debug/../src/main.c:151 (discriminator 2)
		decoded_height = reduce ? (image_info.m_MCUSPerCol * image_info.m_MCUHeight) / 8 : image_info.m_height;
		row_pitch = decoded_width * image_info.m_comps;
800001ca:	008b2683          	lw	a3,8(s6)
C:\NucleiStudio_workspace3\simple_world\Debug/../src/main.c:152 (discriminator 2)
		row_blocks_per_mcu = image_info.m_MCUWidth >> 3;
800001ce:	018b2703          	lw	a4,24(s6)
C:\NucleiStudio_workspace3\simple_world\Debug/../src/main.c:153 (discriminator 2)
		col_blocks_per_mcu = image_info.m_MCUHeight >> 3;
800001d2:	01cb2783          	lw	a5,28(s6)
C:\NucleiStudio_workspace3\simple_world\Debug/../src/main.c:151 (discriminator 2)
		row_pitch = decoded_width * image_info.m_comps;
800001d6:	02c686b3          	mul	a3,a3,a2
C:\NucleiStudio_workspace3\simple_world\Debug/../src/main.c:150 (discriminator 2)
		decoded_height = reduce ? (image_info.m_MCUSPerCol * image_info.m_MCUHeight) / 8 : image_info.m_height;
800001da:	004b2583          	lw	a1,4(s6)
C:\NucleiStudio_workspace3\simple_world\Debug/../src/main.c:151 (discriminator 2)
		row_pitch = decoded_width * image_info.m_comps;
800001de:	84c18413          	addi	s0,gp,-1972 # 9000099c <row_pitch>
C:\NucleiStudio_workspace3\simple_world\Debug/../src/main.c:152 (discriminator 2)
		row_blocks_per_mcu = image_info.m_MCUWidth >> 3;
800001e2:	870d                	srai	a4,a4,0x3
C:\NucleiStudio_workspace3\simple_world\Debug/../src/main.c:153 (discriminator 2)
		col_blocks_per_mcu = image_info.m_MCUHeight >> 3;
800001e4:	878d                	srai	a5,a5,0x3
C:\NucleiStudio_workspace3\simple_world\Debug/../src/main.c:149 (discriminator 2)
		decoded_width = reduce ? (image_info.m_MCUSPerRow * image_info.m_MCUWidth) / 8 : image_info.m_width;
800001e6:	80c1aa23          	sw	a2,-2028(gp) # 90000964 <decoded_width>
C:\NucleiStudio_workspace3\simple_world\Debug/../src/main.c:150 (discriminator 2)
		decoded_height = reduce ? (image_info.m_MCUSPerCol * image_info.m_MCUHeight) / 8 : image_info.m_height;
800001ea:	80b1a823          	sw	a1,-2032(gp) # 90000960 <decoded_height>
C:\NucleiStudio_workspace3\simple_world\Debug/../src/main.c:151 (discriminator 2)
		row_pitch = decoded_width * image_info.m_comps;
800001ee:	c014                	sw	a3,0(s0)
C:\NucleiStudio_workspace3\simple_world\Debug/../src/main.c:152 (discriminator 2)
		row_blocks_per_mcu = image_info.m_MCUWidth >> 3;
800001f0:	84e1a423          	sw	a4,-1976(gp) # 90000998 <row_blocks_per_mcu>
C:\NucleiStudio_workspace3\simple_world\Debug/../src/main.c:153 (discriminator 2)
		col_blocks_per_mcu = image_info.m_MCUHeight >> 3;
800001f4:	80f1a623          	sw	a5,-2036(gp) # 9000095c <col_blocks_per_mcu>
800001f8:	44a1                	li	s1,8
C:\NucleiStudio_workspace3\simple_world\Debug/../src/main.c:159
		for ( ; ; )
		{
		   int y, x;
		   uint8_t *pDst_row;

		   status = pjpeg_decode_mcu();
800001fa:	24f010ef          	jal	ra,80001c48 <pjpeg_decode_mcu>
800001fe:	47a2                	lw	a5,8(sp)
80000200:	00a78023          	sb	a0,0(a5)
C:\NucleiStudio_workspace3\simple_world\Debug/../src/main.c:161

		   if (status)
80000204:	16051463          	bnez	a0,8000036c <main+0x36c>
C:\NucleiStudio_workspace3\simple_world\Debug/../src/main.c:170
		         printf("pjpeg_decode_mcu() failed with status %u\n", status);
		         return 1;
		      }
		         break;
		   }
		   if (mcu_y >= image_info.m_MCUSPerCol)
80000208:	000da703          	lw	a4,0(s11)
8000020c:	010b2783          	lw	a5,16(s6)
80000210:	54f75a63          	bge	a4,a5,80000764 <main+0x764>
C:\NucleiStudio_workspace3\simple_world\Debug/../src/main.c:174
		   {
		         return 1;
		   }
		   pDst_row = pImage + (mcu_y * image_info.m_MCUHeight) * row_pitch + (mcu_x * image_info.m_MCUWidth * image_info.m_comps);
80000214:	01cb2503          	lw	a0,28(s6)
80000218:	018b2783          	lw	a5,24(s6)
8000021c:	000aa683          	lw	a3,0(s5)
80000220:	02a70733          	mul	a4,a4,a0
80000224:	4010                	lw	a2,0(s0)
80000226:	008b2803          	lw	a6,8(s6)
8000022a:	000c2283          	lw	t0,0(s8)
8000022e:	02d785b3          	mul	a1,a5,a3
80000232:	02c70633          	mul	a2,a4,a2
80000236:	030585b3          	mul	a1,a1,a6
8000023a:	962e                	add	a2,a2,a1
8000023c:	92b2                	add	t0,t0,a2
C:\NucleiStudio_workspace3\simple_world\Debug/../src/main.c:176

		   for (y = 0; y < image_info.m_MCUHeight; y += 8)
8000023e:	10a05263          	blez	a0,80000342 <main+0x342>
80000242:	4381                	li	t2,0
C:\NucleiStudio_workspace3\simple_world\Debug/../src/main.c:179
		   {
		      int by_limit;
		      if (8<(image_info.m_height - (mcu_y * image_info.m_MCUHeight + y)))
80000244:	004b2f83          	lw	t6,4(s6)
80000248:	971e                	add	a4,a4,t2
8000024a:	40ef8fb3          	sub	t6,t6,a4
8000024e:	8e7e                	mv	t3,t6
80000250:	01f4d363          	bge	s1,t6,80000256 <main+0x256>
80000254:	4e21                	li	t3,8
C:\NucleiStudio_workspace3\simple_world\Debug/../src/main.c:184
		    	  by_limit = 8;
		      else
		    	  by_limit = image_info.m_height - (mcu_y * image_info.m_MCUHeight + y);

		      for (x = 0; x < image_info.m_MCUWidth; x += 8)
80000256:	08f05e63          	blez	a5,800002f2 <main+0x2f2>
8000025a:	00439f13          	slli	t5,t2,0x4
8000025e:	4e81                	li	t4,0
C:\NucleiStudio_workspace3\simple_world\Debug/../src/main.c:186
		      {
		          uint8_t *pDst_block = pDst_row + x * image_info.m_comps;
80000260:	008b2883          	lw	a7,8(s6)
C:\NucleiStudio_workspace3\simple_world\Debug/../src/main.c:195
		          uint8_t *pSrcR = image_info.m_pMCUBufR + src_ofs;
		          uint8_t *pSrcG = image_info.m_pMCUBufG + src_ofs;
		          uint8_t *pSrcB = image_info.m_pMCUBufB + src_ofs;

		          int bx_limit;
		          if (8<(image_info.m_width - (mcu_x * image_info.m_MCUWidth + x)))
80000264:	02d78733          	mul	a4,a5,a3
80000268:	000b2303          	lw	t1,0(s6)
C:\NucleiStudio_workspace3\simple_world\Debug/../src/main.c:190
		          uint8_t *pSrcR = image_info.m_pMCUBufR + src_ofs;
8000026c:	020b2783          	lw	a5,32(s6)
80000270:	97fa                	add	a5,a5,t5
C:\NucleiStudio_workspace3\simple_world\Debug/../src/main.c:186
		          uint8_t *pDst_block = pDst_row + x * image_info.m_comps;
80000272:	031e88b3          	mul	a7,t4,a7
C:\NucleiStudio_workspace3\simple_world\Debug/../src/main.c:195
		          if (8<(image_info.m_width - (mcu_x * image_info.m_MCUWidth + x)))
80000276:	9776                	add	a4,a4,t4
80000278:	40e30333          	sub	t1,t1,a4
8000027c:	851a                	mv	a0,t1
C:\NucleiStudio_workspace3\simple_world\Debug/../src/main.c:186
		          uint8_t *pDst_block = pDst_row + x * image_info.m_comps;
8000027e:	9896                	add	a7,a7,t0
C:\NucleiStudio_workspace3\simple_world\Debug/../src/main.c:195
		          if (8<(image_info.m_width - (mcu_x * image_info.m_MCUWidth + x)))
80000280:	0064d363          	bge	s1,t1,80000286 <main+0x286>
80000284:	4521                	li	a0,8
C:\NucleiStudio_workspace3\simple_world\Debug/../src/main.c:200
		        	  bx_limit = 8;
		          else
		        	  bx_limit = image_info.m_width - (mcu_x * image_info.m_MCUWidth + x);

		          if (image_info.m_scanType == PJPG_GRAYSCALE)
80000286:	014b2703          	lw	a4,20(s6)
8000028a:	c359                	beqz	a4,80000310 <main+0x310>
C:\NucleiStudio_workspace3\simple_world\Debug/../src/main.c:218
		               }
		           }
		           else
		           {
		              int bx, by;
		              for (by = 0; by < by_limit; by++)
8000028c:	05f05c63          	blez	t6,800002e4 <main+0x2e4>
C:\NucleiStudio_workspace3\simple_world\Debug/../src/main.c:191
		          uint8_t *pSrcG = image_info.m_pMCUBufG + src_ofs;
80000290:	024b2603          	lw	a2,36(s6)
C:\NucleiStudio_workspace3\simple_world\Debug/../src/main.c:192
		          uint8_t *pSrcB = image_info.m_pMCUBufB + src_ofs;
80000294:	028b2683          	lw	a3,40(s6)
80000298:	40a48933          	sub	s2,s1,a0
C:\NucleiStudio_workspace3\simple_world\Debug/../src/main.c:191
		          uint8_t *pSrcG = image_info.m_pMCUBufG + src_ofs;
8000029c:	967a                	add	a2,a2,t5
C:\NucleiStudio_workspace3\simple_world\Debug/../src/main.c:192
		          uint8_t *pSrcB = image_info.m_pMCUBufB + src_ofs;
8000029e:	96fa                	add	a3,a3,t5
C:\NucleiStudio_workspace3\simple_world\Debug/../src/main.c:218
		              for (by = 0; by < by_limit; by++)
800002a0:	4081                	li	ra,0
C:\NucleiStudio_workspace3\simple_world\Debug/../src/main.c:222
		              {
		                  uint8_t *pDst = pDst_block;

		                  for (bx = 0; bx < bx_limit; bx++)
800002a2:	8746                	mv	a4,a7
800002a4:	4581                	li	a1,0
800002a6:	02605563          	blez	t1,800002d0 <main+0x2d0>
C:\NucleiStudio_workspace3\simple_world\Debug/../src/main.c:224 (discriminator 3)
		                  {
		                      pDst[0] = *pSrcR++;
800002aa:	0785                	addi	a5,a5,1
800002ac:	fff7c803          	lbu	a6,-1(a5)
C:\NucleiStudio_workspace3\simple_world\Debug/../src/main.c:225 (discriminator 3)
		                      pDst[1] = *pSrcG++;
800002b0:	0605                	addi	a2,a2,1
C:\NucleiStudio_workspace3\simple_world\Debug/../src/main.c:227 (discriminator 3)
		                      pDst[2] = *pSrcB++;
		                      pDst += 3;
800002b2:	070d                	addi	a4,a4,3
C:\NucleiStudio_workspace3\simple_world\Debug/../src/main.c:224 (discriminator 3)
		                      pDst[0] = *pSrcR++;
800002b4:	ff070ea3          	sb	a6,-3(a4)
C:\NucleiStudio_workspace3\simple_world\Debug/../src/main.c:225 (discriminator 3)
		                      pDst[1] = *pSrcG++;
800002b8:	fff64803          	lbu	a6,-1(a2)
C:\NucleiStudio_workspace3\simple_world\Debug/../src/main.c:226 (discriminator 3)
		                      pDst[2] = *pSrcB++;
800002bc:	0685                	addi	a3,a3,1
C:\NucleiStudio_workspace3\simple_world\Debug/../src/main.c:222 (discriminator 3)
		                  for (bx = 0; bx < bx_limit; bx++)
800002be:	0585                	addi	a1,a1,1
C:\NucleiStudio_workspace3\simple_world\Debug/../src/main.c:225 (discriminator 3)
		                      pDst[1] = *pSrcG++;
800002c0:	ff070f23          	sb	a6,-2(a4)
C:\NucleiStudio_workspace3\simple_world\Debug/../src/main.c:226 (discriminator 3)
		                      pDst[2] = *pSrcB++;
800002c4:	fff6c803          	lbu	a6,-1(a3)
800002c8:	ff070fa3          	sb	a6,-1(a4)
C:\NucleiStudio_workspace3\simple_world\Debug/../src/main.c:222 (discriminator 3)
		                  for (bx = 0; bx < bx_limit; bx++)
800002cc:	fca5cfe3          	blt	a1,a0,800002aa <main+0x2aa>
C:\NucleiStudio_workspace3\simple_world\Debug/../src/main.c:234 (discriminator 2)

		                  pSrcR += (8 - bx_limit);
		                  pSrcG += (8 - bx_limit);
		                  pSrcB += (8 - bx_limit);

		                  pDst_block += row_pitch;
800002d0:	4018                	lw	a4,0(s0)
C:\NucleiStudio_workspace3\simple_world\Debug/../src/main.c:218 (discriminator 2)
		              for (by = 0; by < by_limit; by++)
800002d2:	0085                	addi	ra,ra,1
C:\NucleiStudio_workspace3\simple_world\Debug/../src/main.c:230 (discriminator 2)
		                  pSrcR += (8 - bx_limit);
800002d4:	97ca                	add	a5,a5,s2
C:\NucleiStudio_workspace3\simple_world\Debug/../src/main.c:231 (discriminator 2)
		                  pSrcG += (8 - bx_limit);
800002d6:	964a                	add	a2,a2,s2
C:\NucleiStudio_workspace3\simple_world\Debug/../src/main.c:232 (discriminator 2)
		                  pSrcB += (8 - bx_limit);
800002d8:	96ca                	add	a3,a3,s2
C:\NucleiStudio_workspace3\simple_world\Debug/../src/main.c:234 (discriminator 2)
		                  pDst_block += row_pitch;
800002da:	98ba                	add	a7,a7,a4
C:\NucleiStudio_workspace3\simple_world\Debug/../src/main.c:218 (discriminator 2)
		              for (by = 0; by < by_limit; by++)
800002dc:	fdc0c3e3          	blt	ra,t3,800002a2 <main+0x2a2>
800002e0:	000aa683          	lw	a3,0(s5)
C:\NucleiStudio_workspace3\simple_world\Debug/../src/main.c:184 (discriminator 2)
		      for (x = 0; x < image_info.m_MCUWidth; x += 8)
800002e4:	018b2783          	lw	a5,24(s6)
800002e8:	0ea1                	addi	t4,t4,8
800002ea:	040f0f13          	addi	t5,t5,64
800002ee:	f6fec9e3          	blt	t4,a5,80000260 <main+0x260>
C:\NucleiStudio_workspace3\simple_world\Debug/../src/main.c:239 (discriminator 2)
		               }
		            }
		        }

		        pDst_row += (row_pitch * 8);
800002f2:	401c                	lw	a5,0(s0)
C:\NucleiStudio_workspace3\simple_world\Debug/../src/main.c:176 (discriminator 2)
		   for (y = 0; y < image_info.m_MCUHeight; y += 8)
800002f4:	01cb2603          	lw	a2,28(s6)
800002f8:	03a1                	addi	t2,t2,8
C:\NucleiStudio_workspace3\simple_world\Debug/../src/main.c:239 (discriminator 2)
		        pDst_row += (row_pitch * 8);
800002fa:	078e                	slli	a5,a5,0x3
800002fc:	92be                	add	t0,t0,a5
C:\NucleiStudio_workspace3\simple_world\Debug/../src/main.c:176 (discriminator 2)
		   for (y = 0; y < image_info.m_MCUHeight; y += 8)
800002fe:	04c3d263          	bge	t2,a2,80000342 <main+0x342>
80000302:	000da703          	lw	a4,0(s11)
80000306:	018b2783          	lw	a5,24(s6)
8000030a:	02c70733          	mul	a4,a4,a2
8000030e:	bf1d                	j	80000244 <main+0x244>
C:\NucleiStudio_workspace3\simple_world\Debug/../src/main.c:203
		              for (by = 0; by < by_limit; by++)
80000310:	fdf05ae3          	blez	t6,800002e4 <main+0x2e4>
80000314:	40a48833          	sub	a6,s1,a0
80000318:	4581                	li	a1,0
C:\NucleiStudio_workspace3\simple_world\Debug/../src/main.c:207
		                   for (bx = 0; bx < bx_limit; bx++)
8000031a:	4701                	li	a4,0
8000031c:	00605c63          	blez	t1,80000334 <main+0x334>
C:\NucleiStudio_workspace3\simple_world\Debug/../src/main.c:208 (discriminator 3)
		                       *pDst++ = *pSrcR++;
80000320:	0785                	addi	a5,a5,1
80000322:	fff7c603          	lbu	a2,-1(a5)
80000326:	00e886b3          	add	a3,a7,a4
C:\NucleiStudio_workspace3\simple_world\Debug/../src/main.c:207 (discriminator 3)
		                   for (bx = 0; bx < bx_limit; bx++)
8000032a:	0705                	addi	a4,a4,1
C:\NucleiStudio_workspace3\simple_world\Debug/../src/main.c:208 (discriminator 3)
		                       *pDst++ = *pSrcR++;
8000032c:	00c68023          	sb	a2,0(a3)
C:\NucleiStudio_workspace3\simple_world\Debug/../src/main.c:207 (discriminator 3)
		                   for (bx = 0; bx < bx_limit; bx++)
80000330:	fea748e3          	blt	a4,a0,80000320 <main+0x320>
C:\NucleiStudio_workspace3\simple_world\Debug/../src/main.c:212 (discriminator 2)
		                   pDst_block += row_pitch;
80000334:	4018                	lw	a4,0(s0)
C:\NucleiStudio_workspace3\simple_world\Debug/../src/main.c:203 (discriminator 2)
		              for (by = 0; by < by_limit; by++)
80000336:	0585                	addi	a1,a1,1
C:\NucleiStudio_workspace3\simple_world\Debug/../src/main.c:210 (discriminator 2)
		                   pSrcR += (8 - bx_limit);
80000338:	97c2                	add	a5,a5,a6
C:\NucleiStudio_workspace3\simple_world\Debug/../src/main.c:212 (discriminator 2)
		                   pDst_block += row_pitch;
8000033a:	98ba                	add	a7,a7,a4
C:\NucleiStudio_workspace3\simple_world\Debug/../src/main.c:203 (discriminator 2)
		              for (by = 0; by < by_limit; by++)
8000033c:	fdc5cfe3          	blt	a1,t3,8000031a <main+0x31a>
80000340:	b745                	j	800002e0 <main+0x2e0>
C:\NucleiStudio_workspace3\simple_world\Debug/../src/main.c:242
		   }
		   mcu_x++;
		   if (mcu_x == image_info.m_MCUSPerRow){
80000342:	00cb2783          	lw	a5,12(s6)
C:\NucleiStudio_workspace3\simple_world\Debug/../src/main.c:241
		   mcu_x++;
80000346:	0685                	addi	a3,a3,1
80000348:	00daa023          	sw	a3,0(s5)
C:\NucleiStudio_workspace3\simple_world\Debug/../src/main.c:242
		   if (mcu_x == image_info.m_MCUSPerRow){
8000034c:	eaf697e3          	bne	a3,a5,800001fa <main+0x1fa>
C:\NucleiStudio_workspace3\simple_world\Debug/../src/main.c:244
			   mcu_x = 0;
			   mcu_y++;
80000350:	000da783          	lw	a5,0(s11)
C:\NucleiStudio_workspace3\simple_world\Debug/../src/main.c:243
			   mcu_x = 0;
80000354:	000aa023          	sw	zero,0(s5)
C:\NucleiStudio_workspace3\simple_world\Debug/../src/main.c:244
			   mcu_y++;
80000358:	0785                	addi	a5,a5,1
8000035a:	00fda023          	sw	a5,0(s11)
C:\NucleiStudio_workspace3\simple_world\Debug/../src/main.c:159
		   status = pjpeg_decode_mcu();
8000035e:	0eb010ef          	jal	ra,80001c48 <pjpeg_decode_mcu>
80000362:	47a2                	lw	a5,8(sp)
80000364:	00a78023          	sb	a0,0(a5)
C:\NucleiStudio_workspace3\simple_world\Debug/../src/main.c:161
		   if (status)
80000368:	ea0500e3          	beqz	a0,80000208 <main+0x208>
C:\NucleiStudio_workspace3\simple_world\Debug/../src/main.c:163
		      if (status != PJPG_NO_MORE_BLOCKS)
8000036c:	4785                	li	a5,1
8000036e:	42f51b63          	bne	a0,a5,800007a4 <main+0x7a4>
C:\NucleiStudio_workspace3\simple_world\Debug/../src/main.c:248
		   }
		}
		uint32_t kk=0;
		k=0; min = 32767;
80000372:	6721                	lui	a4,0x8
80000374:	177d                	addi	a4,a4,-1
80000376:	83818513          	addi	a0,gp,-1992 # 90000988 <min>
8000037a:	000c2783          	lw	a5,0(s8)
8000037e:	82c18c93          	addi	s9,gp,-2004 # 9000097c <k>
80000382:	c118                	sw	a4,0(a0)
C:\NucleiStudio_workspace3\simple_world\Debug/../src/main.c:249
		for (int i=0;i<319;i++){
80000384:	000762b7          	lui	t0,0x76
C:\NucleiStudio_workspace3\simple_world\Debug/../src/main.c:248
		k=0; min = 32767;
80000388:	000ca023          	sw	zero,0(s9)
8000038c:	4581                	li	a1,0
C:\NucleiStudio_workspace3\simple_world\Debug/../src/main.c:249
		for (int i=0;i<319;i++){
8000038e:	4f01                	li	t5,0
C:\NucleiStudio_workspace3\simple_world\Debug/../src/main.c:247
		uint32_t kk=0;
80000390:	4f81                	li	t6,0
80000392:	85c18713          	addi	a4,gp,-1956 # 900009ac <temp>
80000396:	83c18313          	addi	t1,gp,-1988 # 9000098c <minindex>
C:\NucleiStudio_workspace3\simple_world\Debug/../src/main.c:253
			temp=0;
			for (int j=0;j<506;j++){
				*(pImage+k) = *(pImage+kk);
				if ((*(pImage+k)<200) && (temp==0)){
8000039a:	0c700893          	li	a7,199
C:\NucleiStudio_workspace3\simple_world\Debug/../src/main.c:254
					temp=1;
8000039e:	4e85                	li	t4,1
800003a0:	1fa00e13          	li	t3,506
C:\NucleiStudio_workspace3\simple_world\Debug/../src/main.c:249
		for (int i=0;i<319;i++){
800003a4:	39228293          	addi	t0,t0,914 # 76392 <__stack_size+0x75b92>
C:\NucleiStudio_workspace3\simple_world\Debug/../src/main.c:250
			temp=0;
800003a8:	00070023          	sb	zero,0(a4) # 8000 <__stack_size+0x7800>
800003ac:	887e                	mv	a6,t6
800003ae:	1fa00613          	li	a2,506
C:\NucleiStudio_workspace3\simple_world\Debug/../src/main.c:252
				*(pImage+k) = *(pImage+kk);
800003b2:	010786b3          	add	a3,a5,a6
800003b6:	0006c683          	lbu	a3,0(a3)
800003ba:	97ae                	add	a5,a5,a1
C:\NucleiStudio_workspace3\simple_world\Debug/../src/main.c:262
						minindex = i;
					}
				}

				k++;
				kk+=3;
800003bc:	080d                	addi	a6,a6,3
C:\NucleiStudio_workspace3\simple_world\Debug/../src/main.c:252
				*(pImage+k) = *(pImage+kk);
800003be:	00d78023          	sb	a3,0(a5)
C:\NucleiStudio_workspace3\simple_world\Debug/../src/main.c:253
				if ((*(pImage+k)<200) && (temp==0)){
800003c2:	000ca683          	lw	a3,0(s9)
800003c6:	000c2783          	lw	a5,0(s8)
C:\NucleiStudio_workspace3\simple_world\Debug/../src/main.c:261
				k++;
800003ca:	00168593          	addi	a1,a3,1
C:\NucleiStudio_workspace3\simple_world\Debug/../src/main.c:253
				if ((*(pImage+k)<200) && (temp==0)){
800003ce:	96be                	add	a3,a3,a5
800003d0:	0006c683          	lbu	a3,0(a3)
800003d4:	02d8e063          	bltu	a7,a3,800003f4 <main+0x3f4>
C:\NucleiStudio_workspace3\simple_world\Debug/../src/main.c:253 (discriminator 1)
800003d8:	00074683          	lbu	a3,0(a4)
800003dc:	40ce03b3          	sub	t2,t3,a2
800003e0:	ea91                	bnez	a3,800003f4 <main+0x3f4>
C:\NucleiStudio_workspace3\simple_world\Debug/../src/main.c:255
					if (j<min){
800003e2:	4114                	lw	a3,0(a0)
C:\NucleiStudio_workspace3\simple_world\Debug/../src/main.c:254
					temp=1;
800003e4:	01d70023          	sb	t4,0(a4)
C:\NucleiStudio_workspace3\simple_world\Debug/../src/main.c:255
					if (j<min){
800003e8:	00d3f663          	bgeu	t2,a3,800003f4 <main+0x3f4>
C:\NucleiStudio_workspace3\simple_world\Debug/../src/main.c:256
						min = j;
800003ec:	00752023          	sw	t2,0(a0)
C:\NucleiStudio_workspace3\simple_world\Debug/../src/main.c:257
						minindex = i;
800003f0:	01e30023          	sb	t5,0(t1)
C:\NucleiStudio_workspace3\simple_world\Debug/../src/main.c:261 (discriminator 2)
				k++;
800003f4:	00bca023          	sw	a1,0(s9)
C:\NucleiStudio_workspace3\simple_world\Debug/../src/main.c:262 (discriminator 2)
				kk+=3;
800003f8:	167d                	addi	a2,a2,-1
C:\NucleiStudio_workspace3\simple_world\Debug/../src/main.c:251 (discriminator 2)
			for (int j=0;j<506;j++){
800003fa:	fe45                	bnez	a2,800003b2 <main+0x3b2>
800003fc:	5eef8f93          	addi	t6,t6,1518
C:\NucleiStudio_workspace3\simple_world\Debug/../src/main.c:249 (discriminator 2)
		for (int i=0;i<319;i++){
80000400:	0f05                	addi	t5,t5,1
80000402:	fa5f93e3          	bne	t6,t0,800003a8 <main+0x3a8>
C:\NucleiStudio_workspace3\simple_world\Debug/../src/main.c:265
			}
		}
		offset = min-2;
80000406:	4114                	lw	a3,0(a0)
80000408:	83e18393          	addi	t2,gp,-1986 # 9000098e <offset>
8000040c:	16f9                	addi	a3,a3,-2
C:\NucleiStudio_workspace3\simple_world\Debug/../src/main.c:268
//		write_hex(STDERR_FILENO, offset);
//		write(STDERR_FILENO, "\n", 1);
		for (int i=0;i<484242;i++){
8000040e:	00076637          	lui	a2,0x76
C:\NucleiStudio_workspace3\simple_world\Debug/../src/main.c:265
		offset = min-2;
80000412:	00d39023          	sh	a3,0(t2)
C:\NucleiStudio_workspace3\simple_world\Debug/../src/main.c:268
		for (int i=0;i<484242;i++){
80000416:	39260613          	addi	a2,a2,914 # 76392 <__stack_size+0x75b92>
8000041a:	4681                	li	a3,0
8000041c:	a019                	j	80000422 <main+0x422>
8000041e:	000c2783          	lw	a5,0(s8)
C:\NucleiStudio_workspace3\simple_world\Debug/../src/main.c:269 (discriminator 3)
			*(pImage+k) = *(pImage+i);
80000422:	00d78833          	add	a6,a5,a3
80000426:	00084803          	lbu	a6,0(a6)
8000042a:	97ae                	add	a5,a5,a1
C:\NucleiStudio_workspace3\simple_world\Debug/../src/main.c:268 (discriminator 3)
		for (int i=0;i<484242;i++){
8000042c:	068d                	addi	a3,a3,3
C:\NucleiStudio_workspace3\simple_world\Debug/../src/main.c:269 (discriminator 3)
			*(pImage+k) = *(pImage+i);
8000042e:	01078023          	sb	a6,0(a5)
C:\NucleiStudio_workspace3\simple_world\Debug/../src/main.c:273 (discriminator 3)
//			write_hex(STDERR_FILENO, k);
//			write(STDERR_FILENO, "\n", 1);
			i+=2;
			k++;
80000432:	000ca783          	lw	a5,0(s9)
80000436:	00178593          	addi	a1,a5,1
8000043a:	00bca023          	sw	a1,0(s9)
C:\NucleiStudio_workspace3\simple_world\Debug/../src/main.c:268 (discriminator 3)
		for (int i=0;i<484242;i++){
8000043e:	fec690e3          	bne	a3,a2,8000041e <main+0x41e>
C:\NucleiStudio_workspace3\simple_world\Debug/../src/main.c:276
		}
		for (k=0;k<18;k++){
			if (result_list[jpgindex][0]=='4')
80000442:	47c2                	lw	a5,16(sp)
80000444:	9000a637          	lui	a2,0x9000a
80000448:	50060593          	addi	a1,a2,1280 # 9000a500 <_sp+0xffffa500>
8000044c:	0007c683          	lbu	a3,0(a5)
C:\NucleiStudio_workspace3\simple_world\Debug/../src/main.c:282
				char_block = pImage + 67804 + offset+2;
			else
				if (result_list[jpgindex][0]=='1')
					char_block = pImage + 67804 + offset-2;
				else
					char_block = pImage + 67804 + offset;
80000450:	67c5                	lui	a5,0x11
80000452:	90000637          	lui	a2,0x90000
C:\NucleiStudio_workspace3\simple_world\Debug/../src/main.c:277
				char_block = pImage + 67804 + offset+2;
80000456:	8de78793          	addi	a5,a5,-1826 # 108de <__stack_size+0x100de>
8000045a:	29060413          	addi	s0,a2,656 # 90000290 <_sp+0xffff0290>
8000045e:	00269e93          	slli	t4,a3,0x2
80000462:	90000637          	lui	a2,0x90000
80000466:	d63e                	sw	a5,44(sp)
C:\NucleiStudio_workspace3\simple_world\Debug/../src/main.c:297
				char_block+=506;
				test_set[i] = sum;
//				write_hex(STDERR_FILENO, sum);
//				write(STDERR_FILENO, "\n", 1);
			}
			min = 32767;
80000468:	67a1                	lui	a5,0x8
C:\NucleiStudio_workspace3\simple_world\Debug/../src/main.c:276
			if (result_list[jpgindex][0]=='4')
8000046a:	9eb6                	add	t4,t4,a3
8000046c:	32460613          	addi	a2,a2,804 # 90000324 <_sp+0xffff0324>
C:\NucleiStudio_workspace3\simple_world\Debug/../src/main.c:297
			min = 32767;
80000470:	17fd                	addi	a5,a5,-1
C:\NucleiStudio_workspace3\simple_world\Debug/../src/main.c:276
			if (result_list[jpgindex][0]=='4')
80000472:	0e8a                	slli	t4,t4,0x2
80000474:	d432                	sw	a2,40(sp)
C:\NucleiStudio_workspace3\simple_world\Debug/../src/main.c:297
			min = 32767;
80000476:	d83e                	sw	a5,48(sp)
80000478:	90000637          	lui	a2,0x90000
8000047c:	9a400793          	li	a5,-1628
C:\NucleiStudio_workspace3\simple_world\Debug/../src/main.c:282
					char_block = pImage + 67804 + offset;
80000480:	000c2483          	lw	s1,0(s8)
80000484:	0003d283          	lhu	t0,0(t2)
C:\NucleiStudio_workspace3\simple_world\Debug/../src/main.c:276
			if (result_list[jpgindex][0]=='4')
80000488:	40de8eb3          	sub	t4,t4,a3
8000048c:	9000af37          	lui	t5,0x9000a
80000490:	28460613          	addi	a2,a2,644 # 90000284 <_sp+0xffff0284>
80000494:	8f81                	sub	a5,a5,s0
80000496:	c22e                	sw	a1,4(sp)
80000498:	d022                	sw	s0,32(sp)
C:\NucleiStudio_workspace3\simple_world\Debug/../src/main.c:275
		for (k=0;k<18;k++){
8000049a:	000ca023          	sw	zero,0(s9)
8000049e:	80818f93          	addi	t6,gp,-2040 # 90000958 <char_block>
800004a2:	71cf0f13          	addi	t5,t5,1820 # 9000a71c <_sp+0xffffa71c>
800004a6:	85818693          	addi	a3,gp,-1960 # 900009a8 <sum>
800004aa:	d232                	sw	a2,36(sp)
C:\NucleiStudio_workspace3\simple_world\Debug/../src/main.c:276
			if (result_list[jpgindex][0]=='4')
800004ac:	9eae                	add	t4,t4,a1
800004ae:	da3e                	sw	a5,52(sp)
C:\NucleiStudio_workspace3\simple_world\Debug/../src/main.c:311
				ptr = (uint32_t *)TRAIN_BASE;
				for (int j=0;j<37;j++){
					*(ptr+j) = train_set[i][j];
				}
				ptr = (uint32_t *)STATUS_REG;
				*ptr = 0x00000001;
800004b0:	10042e37          	lui	t3,0x10042
C:\NucleiStudio_workspace3\simple_world\Debug/../src/main.c:276
			if (result_list[jpgindex][0]=='4')
800004b4:	000ec783          	lbu	a5,0(t4)
800004b8:	03400613          	li	a2,52
800004bc:	2cc78d63          	beq	a5,a2,80000796 <main+0x796>
C:\NucleiStudio_workspace3\simple_world\Debug/../src/main.c:279
				if (result_list[jpgindex][0]=='1')
800004c0:	03100613          	li	a2,49
800004c4:	2cc78063          	beq	a5,a2,80000784 <main+0x784>
C:\NucleiStudio_workspace3\simple_world\Debug/../src/main.c:282
					char_block = pImage + 67804 + offset;
800004c8:	67c5                	lui	a5,0x11
800004ca:	8dc78793          	addi	a5,a5,-1828 # 108dc <__stack_size+0x100dc>
800004ce:	00f288b3          	add	a7,t0,a5
800004d2:	98a6                	add	a7,a7,s1
800004d4:	011fa023          	sw	a7,0(t6)
C:\NucleiStudio_workspace3\simple_world\Debug/../src/main.c:283
			offset += 22;
800004d8:	02d9                	addi	t0,t0,22
800004da:	02c2                	slli	t0,t0,0x10
800004dc:	40f2                	lw	ra,28(sp)
800004de:	0102d293          	srli	t0,t0,0x10
800004e2:	00539023          	sh	t0,0(t2)
C:\NucleiStudio_workspace3\simple_world\Debug/../src/main.c:284
			for (int i=0;i<37;i++){
800004e6:	01688813          	addi	a6,a7,22
C:\NucleiStudio_workspace3\simple_world\Debug/../src/main.c:285
				sum = 0;
800004ea:	0006a023          	sw	zero,0(a3)
C:\NucleiStudio_workspace3\simple_world\Debug/../src/main.c:286
				for (int j=0;j<22;j++){
800004ee:	85c6                	mv	a1,a7
C:\NucleiStudio_workspace3\simple_world\Debug/../src/main.c:285
				sum = 0;
800004f0:	4601                	li	a2,0
C:\NucleiStudio_workspace3\simple_world\Debug/../src/main.c:287
					if (*(char_block+j)<200)
800004f2:	0005c783          	lbu	a5,0(a1)
C:\NucleiStudio_workspace3\simple_world\Debug/../src/main.c:290
					sum = sum*2 + temp;
800004f6:	0606                	slli	a2,a2,0x1
800004f8:	0585                	addi	a1,a1,1
C:\NucleiStudio_workspace3\simple_world\Debug/../src/main.c:287
					if (*(char_block+j)<200)
800004fa:	0c87b793          	sltiu	a5,a5,200
800004fe:	0017c793          	xori	a5,a5,1
C:\NucleiStudio_workspace3\simple_world\Debug/../src/main.c:290
					sum = sum*2 + temp;
80000502:	963e                	add	a2,a2,a5
80000504:	00f70023          	sb	a5,0(a4)
80000508:	c290                	sw	a2,0(a3)
C:\NucleiStudio_workspace3\simple_world\Debug/../src/main.c:286
				for (int j=0;j<22;j++){
8000050a:	feb814e3          	bne	a6,a1,800004f2 <main+0x4f2>
C:\NucleiStudio_workspace3\simple_world\Debug/../src/main.c:292 (discriminator 2)
				char_block+=506;
8000050e:	1fa88893          	addi	a7,a7,506
C:\NucleiStudio_workspace3\simple_world\Debug/../src/main.c:293 (discriminator 2)
				test_set[i] = sum;
80000512:	00c0a023          	sw	a2,0(ra)
C:\NucleiStudio_workspace3\simple_world\Debug/../src/main.c:292 (discriminator 2)
				char_block+=506;
80000516:	011fa023          	sw	a7,0(t6)
C:\NucleiStudio_workspace3\simple_world\Debug/../src/main.c:293 (discriminator 2)
				test_set[i] = sum;
8000051a:	0091                	addi	ra,ra,4
8000051c:	1fa80813          	addi	a6,a6,506
C:\NucleiStudio_workspace3\simple_world\Debug/../src/main.c:284 (discriminator 2)
			for (int i=0;i<37;i++){
80000520:	fc1f15e3          	bne	t5,ra,800004ea <main+0x4ea>
C:\NucleiStudio_workspace3\simple_world\Debug/../src/main.c:297
			min = 32767;
80000524:	57c2                	lw	a5,48(sp)
80000526:	5872                	lw	a6,60(sp)
80000528:	c11c                	sw	a5,0(a0)
8000052a:	47f2                	lw	a5,28(sp)
C:\NucleiStudio_workspace3\simple_world\Debug/../src/main.c:302 (discriminator 3)
				*(ptr+i) = test_set[i];
8000052c:	438c                	lw	a1,0(a5)
8000052e:	00f80633          	add	a2,a6,a5
80000532:	0791                	addi	a5,a5,4
80000534:	c20c                	sw	a1,0(a2)
C:\NucleiStudio_workspace3\simple_world\Debug/../src/main.c:301 (discriminator 3)
			for (int i=0;i<37;i++){
80000536:	feff1be3          	bne	t5,a5,8000052c <main+0x52c>
8000053a:	00034083          	lbu	ra,0(t1)
8000053e:	5782                	lw	a5,32(sp)
80000540:	5822                	lw	a6,40(sp)
C:\NucleiStudio_workspace3\simple_world\Debug/../src/main.c:301
80000542:	8906                	mv	s2,ra
80000544:	40f00433          	neg	s0,a5
80000548:	4a01                	li	s4,0
C:\NucleiStudio_workspace3\simple_world\Debug/../src/main.c:305
			for (int i=0;i<11;i++){
8000054a:	4981                	li	s3,0
8000054c:	10041637          	lui	a2,0x10041
80000550:	10060613          	addi	a2,a2,256 # 10041100 <__stack_size+0x10040900>
80000554:	408007b3          	neg	a5,s0
80000558:	00c408b3          	add	a7,s0,a2
C:\NucleiStudio_workspace3\simple_world\Debug/../src/main.c:308 (discriminator 3)
					*(ptr+j) = train_set[i][j];
8000055c:	438c                	lw	a1,0(a5)
8000055e:	00f88633          	add	a2,a7,a5
80000562:	0791                	addi	a5,a5,4
80000564:	c20c                	sw	a1,0(a2)
C:\NucleiStudio_workspace3\simple_world\Debug/../src/main.c:307 (discriminator 3)
				for (int j=0;j<37;j++){
80000566:	ff079be3          	bne	a5,a6,8000055c <main+0x55c>
C:\NucleiStudio_workspace3\simple_world\Debug/../src/main.c:311
				*ptr = 0x00000001;
8000056a:	4785                	li	a5,1
8000056c:	fefe2e23          	sw	a5,-4(t3) # 10041ffc <__stack_size+0x100417fc>
C:\NucleiStudio_workspace3\simple_world\Debug/../src/main.c:312
				data = *ptr;
80000570:	ffce2783          	lw	a5,-4(t3)
80000574:	c6be                	sw	a5,76(sp)
C:\NucleiStudio_workspace3\simple_world\Debug/../src/main.c:313
				while ((data & 0x01)==0x01){
80000576:	47b6                	lw	a5,76(sp)
80000578:	8b85                	andi	a5,a5,1
8000057a:	fbfd                	bnez	a5,80000570 <main+0x570>
C:\NucleiStudio_workspace3\simple_world\Debug/../src/main.c:317
					data = *ptr;
				}
				ptr = (uint32_t *)RESULT_REG;
				data = *ptr;
8000057c:	ff8e2603          	lw	a2,-8(t3)
C:\NucleiStudio_workspace3\simple_world\Debug/../src/main.c:320
//				write_hex(STDERR_FILENO, data);
//				write(STDERR_FILENO, "\n", 1);
				if (data<min){
80000580:	411c                	lw	a5,0(a0)
C:\NucleiStudio_workspace3\simple_world\Debug/../src/main.c:317
				data = *ptr;
80000582:	c6b2                	sw	a2,76(sp)
C:\NucleiStudio_workspace3\simple_world\Debug/../src/main.c:320
				if (data<min){
80000584:	4636                	lw	a2,76(sp)
80000586:	00f67763          	bgeu	a2,a5,80000594 <main+0x594>
C:\NucleiStudio_workspace3\simple_world\Debug/../src/main.c:321
					min = data;
8000058a:	47b6                	lw	a5,76(sp)
8000058c:	0ff9f913          	andi	s2,s3,255
80000590:	4a05                	li	s4,1
80000592:	c11c                	sw	a5,0(a0)
C:\NucleiStudio_workspace3\simple_world\Debug/../src/main.c:305 (discriminator 2)
			for (int i=0;i<11;i++){
80000594:	57d2                	lw	a5,52(sp)
80000596:	f6c40413          	addi	s0,s0,-148
8000059a:	0985                	addi	s3,s3,1
8000059c:	09480813          	addi	a6,a6,148
800005a0:	fa8796e3          	bne	a5,s0,8000054c <main+0x54c>
800005a4:	000a0563          	beqz	s4,800005ae <main+0x5ae>
800005a8:	01230023          	sb	s2,0(t1)
C:\NucleiStudio_workspace3\simple_world\Debug/../src/main.c:305
800005ac:	80ca                	mv	ra,s2
C:\NucleiStudio_workspace3\simple_world\Debug/../src/main.c:325 (discriminator 2)
					minindex = i;
				}
			}
			result_list[jpgindex][k]=char_list[minindex];
800005ae:	5612                	lw	a2,36(sp)
800005b0:	000ca783          	lw	a5,0(s9)
800005b4:	90b2                	add	ra,ra,a2
800005b6:	0000c583          	lbu	a1,0(ra)
800005ba:	00fe8633          	add	a2,t4,a5
C:\NucleiStudio_workspace3\simple_world\Debug/../src/main.c:275 (discriminator 2)
		for (k=0;k<18;k++){
800005be:	0785                	addi	a5,a5,1
C:\NucleiStudio_workspace3\simple_world\Debug/../src/main.c:325 (discriminator 2)
			result_list[jpgindex][k]=char_list[minindex];
800005c0:	00b60023          	sb	a1,0(a2)
C:\NucleiStudio_workspace3\simple_world\Debug/../src/main.c:275 (discriminator 2)
		for (k=0;k<18;k++){
800005c4:	00fca023          	sw	a5,0(s9)
800005c8:	4645                	li	a2,17
800005ca:	eef675e3          	bgeu	a2,a5,800004b4 <main+0x4b4>
C:\NucleiStudio_workspace3\simple_world\Debug/../src/main.c:327 (discriminator 2)
		}
		result_list[jpgindex][18] = '\n';
800005ce:	45c2                	lw	a1,16(sp)
800005d0:	4612                	lw	a2,4(sp)
C:\NucleiStudio_workspace3\simple_world\Debug/../src/main.c:93 (discriminator 2)
	for (jpgindex=0;jpgindex<10;jpgindex++){
800005d2:	46a5                	li	a3,9
C:\NucleiStudio_workspace3\simple_world\Debug/../src/main.c:327 (discriminator 2)
		result_list[jpgindex][18] = '\n';
800005d4:	0005c783          	lbu	a5,0(a1)
800005d8:	00279713          	slli	a4,a5,0x2
800005dc:	973e                	add	a4,a4,a5
800005de:	070a                	slli	a4,a4,0x2
800005e0:	8f1d                	sub	a4,a4,a5
C:\NucleiStudio_workspace3\simple_world\Debug/../src/main.c:93 (discriminator 2)
	for (jpgindex=0;jpgindex<10;jpgindex++){
800005e2:	0785                	addi	a5,a5,1
C:\NucleiStudio_workspace3\simple_world\Debug/../src/main.c:327 (discriminator 2)
		result_list[jpgindex][18] = '\n';
800005e4:	9732                	add	a4,a4,a2
C:\NucleiStudio_workspace3\simple_world\Debug/../src/main.c:93 (discriminator 2)
	for (jpgindex=0;jpgindex<10;jpgindex++){
800005e6:	0ff7f793          	andi	a5,a5,255
C:\NucleiStudio_workspace3\simple_world\Debug/../src/main.c:327 (discriminator 2)
		result_list[jpgindex][18] = '\n';
800005ea:	4629                	li	a2,10
800005ec:	00c70923          	sb	a2,18(a4)
C:\NucleiStudio_workspace3\simple_world\Debug/../src/main.c:93 (discriminator 2)
	for (jpgindex=0;jpgindex<10;jpgindex++){
800005f0:	00f58023          	sb	a5,0(a1)
800005f4:	a8f6f5e3          	bgeu	a3,a5,8000007e <main+0x7e>
C:\NucleiStudio_workspace3\simple_world\Debug/../src/main.c:350
	send_buf[15] = 's';
	send_buf[16] = 'c';
	send_buf[17] = 'i';
	send_buf[18] = 'i';
	send_buf[19] = 0;
	send_udp(20,send_buf);
800005f8:	9000a7b7          	lui	a5,0x9000a
C:\NucleiStudio_workspace3\simple_world\Debug/../src/main.c:329
	dest_port = 0x4500;
800005fc:	4762                	lw	a4,24(sp)
C:\NucleiStudio_workspace3\simple_world\Debug/../src/main.c:350
	send_udp(20,send_buf);
800005fe:	5c078593          	addi	a1,a5,1472 # 9000a5c0 <_sp+0xffffa5c0>
C:\NucleiStudio_workspace3\simple_world\Debug/../src/main.c:329
	dest_port = 0x4500;
80000602:	6791                	lui	a5,0x4
80000604:	50078793          	addi	a5,a5,1280 # 4500 <__stack_size+0x3d00>
80000608:	00f71023          	sh	a5,0(a4)
C:\NucleiStudio_workspace3\simple_world\Debug/../src/main.c:330
	send_buf[0] = 0;
8000060c:	657407b7          	lui	a5,0x65740
80000610:	20078793          	addi	a5,a5,512 # 65740200 <_data_lma+0x4573acc8>
80000614:	00fba023          	sw	a5,0(s7)
C:\NucleiStudio_workspace3\simple_world\Debug/../src/main.c:334
	send_buf[4] = 's';
80000618:	742e77b7          	lui	a5,0x742e7
8000061c:	47378793          	addi	a5,a5,1139 # 742e7473 <_data_lma+0x542e1f3b>
80000620:	00fba223          	sw	a5,4(s7)
C:\NucleiStudio_workspace3\simple_world\Debug/../src/main.c:338
	send_buf[8] = 'x';
80000624:	6e0077b7          	lui	a5,0x6e007
80000628:	47878793          	addi	a5,a5,1144 # 6e007478 <_data_lma+0x4e001f40>
8000062c:	00fba423          	sw	a5,8(s7)
C:\NucleiStudio_workspace3\simple_world\Debug/../src/main.c:342
	send_buf[12] = 'e';
80000630:	736177b7          	lui	a5,0x73617
80000634:	46578793          	addi	a5,a5,1125 # 73617465 <_data_lma+0x53611f2d>
80000638:	00fba623          	sw	a5,12(s7)
C:\NucleiStudio_workspace3\simple_world\Debug/../src/main.c:346
	send_buf[16] = 'c';
8000063c:	006977b7          	lui	a5,0x697
80000640:	96378793          	addi	a5,a5,-1693 # 696963 <__stack_size+0x696163>
C:\NucleiStudio_workspace3\simple_world\Debug/../src/main.c:350
	send_udp(20,send_buf);
80000644:	4551                	li	a0,20
C:\NucleiStudio_workspace3\simple_world\Debug/../src/main.c:346
	send_buf[16] = 'c';
80000646:	00fba823          	sw	a5,16(s7)
C:\NucleiStudio_workspace3\simple_world\Debug/../src/main.c:350
	send_udp(20,send_buf);
8000064a:	9000a4b7          	lui	s1,0x9000a
8000064e:	2125                	jal	80000a76 <send_udp>
C:\NucleiStudio_workspace3\simple_world\Debug/../src/main.c:351
	receive_len=0;
80000650:	000d1023          	sh	zero,0(s10)
C:\NucleiStudio_workspace3\simple_world\Debug/../src/main.c:352
	while (receive_len==0){
80000654:	a031                	j	80000660 <main+0x660>
C:\NucleiStudio_workspace3\simple_world\Debug/../src/main.c:353
		receive_len = receive_udp(receive_buf);
80000656:	2c55                	jal	8000090a <receive_udp>
80000658:	0542                	slli	a0,a0,0x10
8000065a:	8141                	srli	a0,a0,0x10
8000065c:	00ad1023          	sh	a0,0(s10)
C:\NucleiStudio_workspace3\simple_world\Debug/../src/main.c:352
	while (receive_len==0){
80000660:	000d5783          	lhu	a5,0(s10)
C:\NucleiStudio_workspace3\simple_world\Debug/../src/main.c:353
		receive_len = receive_udp(receive_buf);
80000664:	2d848513          	addi	a0,s1,728 # 9000a2d8 <_sp+0xffffa2d8>
C:\NucleiStudio_workspace3\simple_world\Debug/../src/main.c:352
	while (receive_len==0){
80000668:	07c2                	slli	a5,a5,0x10
8000066a:	83c1                	srli	a5,a5,0x10
8000066c:	d7ed                	beqz	a5,80000656 <main+0x656>
C:\NucleiStudio_workspace3\simple_world\Debug/../src/main.c:355
	}
	send_buf[0] = 0;
8000066e:	010007b7          	lui	a5,0x1000
80000672:	30078793          	addi	a5,a5,768 # 1000300 <__stack_size+0xfffb00>
80000676:	00fba023          	sw	a5,0(s7)
8000067a:	4701                	li	a4,0
8000067c:	004b8793          	addi	a5,s7,4
C:\NucleiStudio_workspace3\simple_world\Debug/../src/main.c:360
	send_buf[1] = 3;
	send_buf[2] = 0;
	send_buf[3] = 1;
	k=4;
	for (int i=0; i<10;i++)
80000680:	0be00593          	li	a1,190
80000684:	4692                	lw	a3,4(sp)
80000686:	01378613          	addi	a2,a5,19
8000068a:	8436                	mv	s0,a3
8000068c:	96ba                	add	a3,a3,a4
C:\NucleiStudio_workspace3\simple_world\Debug/../src/main.c:362 (discriminator 3)
		for (int j=0;j<19;j++){
			send_buf[k] = result_list[i][j];
8000068e:	0006c503          	lbu	a0,0(a3)
80000692:	0785                	addi	a5,a5,1
80000694:	0685                	addi	a3,a3,1
80000696:	fea78fa3          	sb	a0,-1(a5)
C:\NucleiStudio_workspace3\simple_world\Debug/../src/main.c:361 (discriminator 3)
		for (int j=0;j<19;j++){
8000069a:	fef61ae3          	bne	a2,a5,8000068e <main+0x68e>
8000069e:	074d                	addi	a4,a4,19
800006a0:	87b2                	mv	a5,a2
C:\NucleiStudio_workspace3\simple_world\Debug/../src/main.c:360 (discriminator 2)
	for (int i=0; i<10;i++)
800006a2:	feb711e3          	bne	a4,a1,80000684 <main+0x684>
C:\NucleiStudio_workspace3\simple_world\Debug/../src/main.c:365
			k++;
		}
	send_udp(194,send_buf);
800006a6:	9000a7b7          	lui	a5,0x9000a
800006aa:	5c078593          	addi	a1,a5,1472 # 9000a5c0 <_sp+0xffffa5c0>
800006ae:	0c200513          	li	a0,194
800006b2:	0c200793          	li	a5,194
800006b6:	00fca023          	sw	a5,0(s9)
800006ba:	2e75                	jal	80000a76 <send_udp>
C:\NucleiStudio_workspace3\simple_world\Debug/../src/main.c:366
	receive_len=0;
800006bc:	000d1023          	sh	zero,0(s10)
C:\NucleiStudio_workspace3\simple_world\Debug/../src/main.c:367
	while (receive_len==0){
800006c0:	a031                	j	800006cc <main+0x6cc>
C:\NucleiStudio_workspace3\simple_world\Debug/../src/main.c:368
		receive_len = receive_udp(receive_buf);
800006c2:	24a1                	jal	8000090a <receive_udp>
800006c4:	0542                	slli	a0,a0,0x10
800006c6:	8141                	srli	a0,a0,0x10
800006c8:	00ad1023          	sh	a0,0(s10)
C:\NucleiStudio_workspace3\simple_world\Debug/../src/main.c:367
	while (receive_len==0){
800006cc:	000d5783          	lhu	a5,0(s10)
C:\NucleiStudio_workspace3\simple_world\Debug/../src/main.c:368
		receive_len = receive_udp(receive_buf);
800006d0:	2d848513          	addi	a0,s1,728
C:\NucleiStudio_workspace3\simple_world\Debug/../src/main.c:367
	while (receive_len==0){
800006d4:	07c2                	slli	a5,a5,0x10
800006d6:	83c1                	srli	a5,a5,0x10
800006d8:	d7ed                	beqz	a5,800006c2 <main+0x6c2>
C:\NucleiStudio_workspace3\simple_world\Debug/../src/main.c:372
	}
	uint32_t * vga_ptr;
	vga_ptr = (uint32_t*)0x10010000;
	k=0;
800006da:	4792                	lw	a5,4(sp)
800006dc:	000ca023          	sw	zero,0(s9)
C:\NucleiStudio_workspace3\simple_world\Debug/../src/main.c:373
	for (int i=0; i<10;i++)
800006e0:	10010837          	lui	a6,0x10010
800006e4:	0be78713          	addi	a4,a5,190
C:\NucleiStudio_workspace3\simple_world\Debug/../src/main.c:375
		for (int j=0;j<18;j++){
			if (result_list[i][j]=='X')
800006e8:	05800513          	li	a0,88
C:\NucleiStudio_workspace3\simple_world\Debug/../src/main.c:376
				*(vga_ptr+k) = 10;
800006ec:	45a9                	li	a1,10
800006ee:	000ca783          	lw	a5,0(s9)
C:\NucleiStudio_workspace3\simple_world\Debug/../src/main.c:355
	send_buf[0] = 0;
800006f2:	86a2                	mv	a3,s0
800006f4:	01240893          	addi	a7,s0,18
800006f8:	a811                	j	8000070c <main+0x70c>
C:\NucleiStudio_workspace3\simple_world\Debug/../src/main.c:378
			else
				*(vga_ptr+k) = result_list[i][j];
800006fa:	c390                	sw	a2,0(a5)
C:\NucleiStudio_workspace3\simple_world\Debug/../src/main.c:379
			k++;
800006fc:	000ca783          	lw	a5,0(s9)
80000700:	0685                	addi	a3,a3,1
80000702:	0785                	addi	a5,a5,1
80000704:	00fca023          	sw	a5,0(s9)
C:\NucleiStudio_workspace3\simple_world\Debug/../src/main.c:374
		for (int j=0;j<18;j++){
80000708:	02d88163          	beq	a7,a3,8000072a <main+0x72a>
C:\NucleiStudio_workspace3\simple_world\Debug/../src/main.c:375
			if (result_list[i][j]=='X')
8000070c:	0006c603          	lbu	a2,0(a3)
80000710:	078a                	slli	a5,a5,0x2
80000712:	97c2                	add	a5,a5,a6
80000714:	fea613e3          	bne	a2,a0,800006fa <main+0x6fa>
C:\NucleiStudio_workspace3\simple_world\Debug/../src/main.c:376
				*(vga_ptr+k) = 10;
80000718:	c38c                	sw	a1,0(a5)
C:\NucleiStudio_workspace3\simple_world\Debug/../src/main.c:379
			k++;
8000071a:	000ca783          	lw	a5,0(s9)
8000071e:	0685                	addi	a3,a3,1
80000720:	0785                	addi	a5,a5,1
80000722:	00fca023          	sw	a5,0(s9)
C:\NucleiStudio_workspace3\simple_world\Debug/../src/main.c:374
		for (int j=0;j<18;j++){
80000726:	fed893e3          	bne	a7,a3,8000070c <main+0x70c>
8000072a:	044d                	addi	s0,s0,19
C:\NucleiStudio_workspace3\simple_world\Debug/../src/main.c:373 (discriminator 2)
	for (int i=0; i<10;i++)
8000072c:	fc8711e3          	bne	a4,s0,800006ee <main+0x6ee>
C:\NucleiStudio_workspace3\simple_world\Debug/../src/main.c:382
		}
	vga_ptr = (uint32_t*)0x10010ffc;
	*vga_ptr = 1;
80000730:	100117b7          	lui	a5,0x10011
80000734:	4705                	li	a4,1
80000736:	fee7ae23          	sw	a4,-4(a5) # 10010ffc <__stack_size+0x100107fc>
C:\NucleiStudio_workspace3\simple_world\Debug/../src/main.c:385 (discriminator 1)
	while(1){

	}
8000073a:	a001                	j	8000073a <main+0x73a>
8000073c:	85aa                	mv	a1,a0
C:\NucleiStudio_workspace3\simple_world\Debug/../src/main.c:141
		   printf("pjpeg_decode_init() failed with status %u\n", status);
8000073e:	90000537          	lui	a0,0x90000
80000742:	00050513          	mv	a0,a0
80000746:	0fd030ef          	jal	ra,80004042 <iprintf>
C:\NucleiStudio_workspace3\simple_world\Debug/../src/main.c:142
		   if (status == PJPG_UNSUPPORTED_MODE)
8000074a:	47a2                	lw	a5,8(sp)
8000074c:	0007c703          	lbu	a4,0(a5)
80000750:	02500793          	li	a5,37
80000754:	00f71863          	bne	a4,a5,80000764 <main+0x764>
C:\NucleiStudio_workspace3\simple_world\Debug/../src/main.c:144
		      printf("Progressive JPEG files are not supported.\n");
80000758:	90000537          	lui	a0,0x90000
8000075c:	02c50513          	addi	a0,a0,44 # 9000002c <_sp+0xffff002c>
80000760:	201030ef          	jal	ra,80004160 <puts>
C:\NucleiStudio_workspace3\simple_world\Debug/../src/main.c:388
	return 0;

}
80000764:	40ba                	lw	ra,140(sp)
80000766:	442a                	lw	s0,136(sp)
80000768:	449a                	lw	s1,132(sp)
8000076a:	490a                	lw	s2,128(sp)
8000076c:	59f6                	lw	s3,124(sp)
8000076e:	5a66                	lw	s4,120(sp)
80000770:	5ad6                	lw	s5,116(sp)
80000772:	5b46                	lw	s6,112(sp)
80000774:	5bb6                	lw	s7,108(sp)
80000776:	5c26                	lw	s8,104(sp)
80000778:	5c96                	lw	s9,100(sp)
8000077a:	5d06                	lw	s10,96(sp)
8000077c:	4df6                	lw	s11,92(sp)
8000077e:	4505                	li	a0,1
80000780:	6149                	addi	sp,sp,144
80000782:	8082                	ret
C:\NucleiStudio_workspace3\simple_world\Debug/../src/main.c:280
					char_block = pImage + 67804 + offset-2;
80000784:	67c5                	lui	a5,0x11
80000786:	8da78793          	addi	a5,a5,-1830 # 108da <__stack_size+0x100da>
8000078a:	00f288b3          	add	a7,t0,a5
8000078e:	98a6                	add	a7,a7,s1
80000790:	011fa023          	sw	a7,0(t6)
80000794:	b391                	j	800004d8 <main+0x4d8>
C:\NucleiStudio_workspace3\simple_world\Debug/../src/main.c:277
				char_block = pImage + 67804 + offset+2;
80000796:	57b2                	lw	a5,44(sp)
80000798:	00f288b3          	add	a7,t0,a5
8000079c:	98a6                	add	a7,a7,s1
8000079e:	011fa023          	sw	a7,0(t6)
800007a2:	bb1d                	j	800004d8 <main+0x4d8>
800007a4:	85aa                	mv	a1,a0
C:\NucleiStudio_workspace3\simple_world\Debug/../src/main.c:165
		         printf("pjpeg_decode_mcu() failed with status %u\n", status);
800007a6:	90000537          	lui	a0,0x90000
800007aa:	05850513          	addi	a0,a0,88 # 90000058 <_sp+0xffff0058>
800007ae:	095030ef          	jal	ra,80004042 <iprintf>
C:\NucleiStudio_workspace3\simple_world\Debug/../src/main.c:166
		         return 1;
800007b2:	bf4d                	j	80000764 <main+0x764>

800007b4 <pjpeg_need_bytes_callback>:
pjpeg_need_bytes_callback():
C:\NucleiStudio_workspace3\simple_world\Debug/../src/main.c:75
{
800007b4:	1101                	addi	sp,sp,-32
800007b6:	ca26                	sw	s1,20(sp)
C:\NucleiStudio_workspace3\simple_world\Debug/../src/main.c:78
   if ((g_nInFileSize - g_nInFileOfs) < buf_size)
800007b8:	82618493          	addi	s1,gp,-2010 # 90000976 <g_nInFileOfs>
C:\NucleiStudio_workspace3\simple_world\Debug/../src/main.c:75
{
800007bc:	cc22                	sw	s0,24(sp)
C:\NucleiStudio_workspace3\simple_world\Debug/../src/main.c:78
   if ((g_nInFileSize - g_nInFileOfs) < buf_size)
800007be:	0004d783          	lhu	a5,0(s1)
800007c2:	8281d403          	lhu	s0,-2008(gp) # 90000978 <g_nInFileSize>
C:\NucleiStudio_workspace3\simple_world\Debug/../src/main.c:75
{
800007c6:	c84a                	sw	s2,16(sp)
800007c8:	c64e                	sw	s3,12(sp)
C:\NucleiStudio_workspace3\simple_world\Debug/../src/main.c:78
   if ((g_nInFileSize - g_nInFileOfs) < buf_size)
800007ca:	8c1d                	sub	s0,s0,a5
C:\NucleiStudio_workspace3\simple_world\Debug/../src/main.c:75
{
800007cc:	ce06                	sw	ra,28(sp)
800007ce:	89b2                	mv	s3,a2
800007d0:	0ff47913          	andi	s2,s0,255
C:\NucleiStudio_workspace3\simple_world\Debug/../src/main.c:78
   if ((g_nInFileSize - g_nInFileOfs) < buf_size)
800007d4:	00b44463          	blt	s0,a1,800007dc <pjpeg_need_bytes_callback+0x28>
800007d8:	892e                	mv	s2,a1
C:\NucleiStudio_workspace3\simple_world\Debug/../src/main.c:81
	   n = buf_size;
800007da:	842e                	mv	s0,a1
C:\NucleiStudio_workspace3\simple_world\Debug/../src/main.c:84
   memcpy(pBuf, image_buf + g_nInFileOfs, n);
800007dc:	900015b7          	lui	a1,0x90001
800007e0:	a1c58593          	addi	a1,a1,-1508 # 90000a1c <_sp+0xffff0a1c>
800007e4:	8622                	mv	a2,s0
800007e6:	95be                	add	a1,a1,a5
800007e8:	7a4030ef          	jal	ra,80003f8c <memcpy>
C:\NucleiStudio_workspace3\simple_world\Debug/../src/main.c:85
   *pBytes_actually_read = (unsigned char)(n);
800007ec:	01298023          	sb	s2,0(s3)
C:\NucleiStudio_workspace3\simple_world\Debug/../src/main.c:86
   g_nInFileOfs += n;
800007f0:	0004d783          	lhu	a5,0(s1)
C:\NucleiStudio_workspace3\simple_world\Debug/../src/main.c:88
}
800007f4:	40f2                	lw	ra,28(sp)
800007f6:	4942                	lw	s2,16(sp)
C:\NucleiStudio_workspace3\simple_world\Debug/../src/main.c:86
   g_nInFileOfs += n;
800007f8:	943e                	add	s0,s0,a5
800007fa:	00849023          	sh	s0,0(s1)
C:\NucleiStudio_workspace3\simple_world\Debug/../src/main.c:88
}
800007fe:	4462                	lw	s0,24(sp)
80000800:	44d2                	lw	s1,20(sp)
80000802:	49b2                	lw	s3,12(sp)
80000804:	4501                	li	a0,0
80000806:	6105                	addi	sp,sp,32
80000808:	8082                	ret

8000080a <eth_ini>:
eth_ini():
C:\NucleiStudio_workspace3\simple_world\Debug/../src/main.c:396
	volatile uint32_t *p;
	volatile uint32_t pan;
	uint8_t * data_p;
	p = (uint32_t*)MDIO_RD;
	p = (uint32_t*)MDIO_CTRL;
	*p |= 0x08;
8000080a:	100507b7          	lui	a5,0x10050
8000080e:	7f07a703          	lw	a4,2032(a5) # 100507f0 <__stack_size+0x1004fff0>
C:\NucleiStudio_workspace3\simple_world\Debug/../src/main.c:390
void eth_ini(){
80000812:	1141                	addi	sp,sp,-16
C:\NucleiStudio_workspace3\simple_world\Debug/../src/main.c:396
	*p |= 0x08;
80000814:	00876713          	ori	a4,a4,8
80000818:	7ee7a823          	sw	a4,2032(a5)
C:\NucleiStudio_workspace3\simple_world\Debug/../src/main.c:397
	pan = *p;
8000081c:	7f07a783          	lw	a5,2032(a5)
80000820:	c63e                	sw	a5,12(sp)
C:\NucleiStudio_workspace3\simple_world\Debug/../src/main.c:398
	while ((pan & 0x01)==0x01){
80000822:	47b2                	lw	a5,12(sp)
80000824:	8b85                	andi	a5,a5,1
80000826:	cb89                	beqz	a5,80000838 <eth_ini+0x2e>
C:\NucleiStudio_workspace3\simple_world\Debug/../src/main.c:399
		pan = *p;
80000828:	10050737          	lui	a4,0x10050
8000082c:	7f072783          	lw	a5,2032(a4) # 100507f0 <__stack_size+0x1004fff0>
80000830:	c63e                	sw	a5,12(sp)
C:\NucleiStudio_workspace3\simple_world\Debug/../src/main.c:398
	while ((pan & 0x01)==0x01){
80000832:	47b2                	lw	a5,12(sp)
80000834:	8b85                	andi	a5,a5,1
80000836:	fbfd                	bnez	a5,8000082c <eth_ini+0x22>
C:\NucleiStudio_workspace3\simple_world\Debug/../src/main.c:402
	}
	p = (uint32_t*)MDIO_ADDR;
	*p = 0x0020;
80000838:	100507b7          	lui	a5,0x10050
8000083c:	02000713          	li	a4,32
80000840:	7ee7a223          	sw	a4,2020(a5) # 100507e4 <__stack_size+0x1004ffe4>
C:\NucleiStudio_workspace3\simple_world\Debug/../src/main.c:404
	p =(uint32_t*) MDIO_WR;
	*p = 0x0100;
80000844:	10000713          	li	a4,256
80000848:	7ee7a423          	sw	a4,2024(a5)
C:\NucleiStudio_workspace3\simple_world\Debug/../src/main.c:406
	p = (uint32_t*)MDIO_CTRL;
	*p = 9;
8000084c:	4725                	li	a4,9
8000084e:	7ee7a823          	sw	a4,2032(a5)
C:\NucleiStudio_workspace3\simple_world\Debug/../src/main.c:407
	pan = *p;
80000852:	7f07a783          	lw	a5,2032(a5)
80000856:	c63e                	sw	a5,12(sp)
C:\NucleiStudio_workspace3\simple_world\Debug/../src/main.c:408
	while ((pan & 0x01) == 0x01){
80000858:	47b2                	lw	a5,12(sp)
8000085a:	8b85                	andi	a5,a5,1
8000085c:	cb89                	beqz	a5,8000086e <eth_ini+0x64>
C:\NucleiStudio_workspace3\simple_world\Debug/../src/main.c:409
		pan = *p;
8000085e:	10050737          	lui	a4,0x10050
80000862:	7f072783          	lw	a5,2032(a4) # 100507f0 <__stack_size+0x1004fff0>
80000866:	c63e                	sw	a5,12(sp)
C:\NucleiStudio_workspace3\simple_world\Debug/../src/main.c:408
	while ((pan & 0x01) == 0x01){
80000868:	47b2                	lw	a5,12(sp)
8000086a:	8b85                	andi	a5,a5,1
8000086c:	fbfd                	bnez	a5,80000862 <eth_ini+0x58>
C:\NucleiStudio_workspace3\simple_world\Debug/../src/main.c:412
	}
	p = (uint32_t*)MDIO_ADDR;
	*p = 0x0420;
8000086e:	100507b7          	lui	a5,0x10050
80000872:	42000713          	li	a4,1056
80000876:	7ee7a223          	sw	a4,2020(a5) # 100507e4 <__stack_size+0x1004ffe4>
C:\NucleiStudio_workspace3\simple_world\Debug/../src/main.c:414
	p = (uint32_t*)MDIO_CTRL;
	*p = 9;
8000087a:	4725                	li	a4,9
8000087c:	7ee7a823          	sw	a4,2032(a5)
C:\NucleiStudio_workspace3\simple_world\Debug/../src/main.c:415
	pan = *p;
80000880:	7f07a783          	lw	a5,2032(a5)
80000884:	c63e                	sw	a5,12(sp)
C:\NucleiStudio_workspace3\simple_world\Debug/../src/main.c:416
	while ((pan & 0x01) == 0x01){
80000886:	47b2                	lw	a5,12(sp)
80000888:	8b85                	andi	a5,a5,1
8000088a:	cb89                	beqz	a5,8000089c <eth_ini+0x92>
C:\NucleiStudio_workspace3\simple_world\Debug/../src/main.c:417
		pan = *p;
8000088c:	10050737          	lui	a4,0x10050
80000890:	7f072783          	lw	a5,2032(a4) # 100507f0 <__stack_size+0x1004fff0>
80000894:	c63e                	sw	a5,12(sp)
C:\NucleiStudio_workspace3\simple_world\Debug/../src/main.c:416
	while ((pan & 0x01) == 0x01){
80000896:	47b2                	lw	a5,12(sp)
80000898:	8b85                	andi	a5,a5,1
8000089a:	fbfd                	bnez	a5,80000890 <eth_ini+0x86>
C:\NucleiStudio_workspace3\simple_world\Debug/../src/main.c:425
//	printf("%x\n", *p);

//	printf("MDIO INIT DONE 10Mb" "\n");

	p=(uint32_t*)GIE;
	*p=0x00000000;
8000089c:	100507b7          	lui	a5,0x10050
800008a0:	7e07ac23          	sw	zero,2040(a5) # 100507f8 <__stack_size+0x1004fff8>
C:\NucleiStudio_workspace3\simple_world\Debug/../src/main.c:428

	p=(uint32_t*)RX_PING_CON;
	*p=0x08;
800008a4:	10051737          	lui	a4,0x10051
800008a8:	46a1                	li	a3,8
800008aa:	7ed72e23          	sw	a3,2044(a4) # 100517fc <__stack_size+0x10050ffc>
C:\NucleiStudio_workspace3\simple_world\Debug/../src/main.c:431
	// mac
	p=(uint32_t*)TX_PING_CON;
	pan=*p;
800008ae:	7fc7a783          	lw	a5,2044(a5)
C:\NucleiStudio_workspace3\simple_world\Debug/../src/main.c:433
	while (((pan & 0x01)==0x01) || ((pan & 0x02)==0x02)){
		pan=*p;
800008b2:	10050737          	lui	a4,0x10050
C:\NucleiStudio_workspace3\simple_world\Debug/../src/main.c:431
	pan=*p;
800008b6:	c63e                	sw	a5,12(sp)
C:\NucleiStudio_workspace3\simple_world\Debug/../src/main.c:432
	while (((pan & 0x01)==0x01) || ((pan & 0x02)==0x02)){
800008b8:	a021                	j	800008c0 <eth_ini+0xb6>
C:\NucleiStudio_workspace3\simple_world\Debug/../src/main.c:433
		pan=*p;
800008ba:	7fc72783          	lw	a5,2044(a4) # 100507fc <__stack_size+0x1004fffc>
800008be:	c63e                	sw	a5,12(sp)
C:\NucleiStudio_workspace3\simple_world\Debug/../src/main.c:432
	while (((pan & 0x01)==0x01) || ((pan & 0x02)==0x02)){
800008c0:	47b2                	lw	a5,12(sp)
800008c2:	8b85                	andi	a5,a5,1
800008c4:	fbfd                	bnez	a5,800008ba <eth_ini+0xb0>
C:\NucleiStudio_workspace3\simple_world\Debug/../src/main.c:432 (discriminator 1)
800008c6:	47b2                	lw	a5,12(sp)
800008c8:	8b89                	andi	a5,a5,2
800008ca:	fbe5                	bnez	a5,800008ba <eth_ini+0xb0>
C:\NucleiStudio_workspace3\simple_world\Debug/../src/main.c:438
	}

	p=(uint32_t*)TX_BASE;

	*p = 0x33221100;
800008cc:	33221737          	lui	a4,0x33221
800008d0:	100507b7          	lui	a5,0x10050
800008d4:	10070713          	addi	a4,a4,256 # 33221100 <_data_lma+0x1321bbc8>
800008d8:	c398                	sw	a4,0(a5)
C:\NucleiStudio_workspace3\simple_world\Debug/../src/main.c:439
	*(p+1) = 0x5544;
800008da:	6715                	lui	a4,0x5
800008dc:	54470713          	addi	a4,a4,1348 # 5544 <__stack_size+0x4d44>
800008e0:	c3d8                	sw	a4,4(a5)
C:\NucleiStudio_workspace3\simple_world\Debug/../src/main.c:448
//	printf("%x ",*data_p); data_p++;
//	printf("%x ",*data_p); data_p++;
//	printf("%x ",*data_p); data_p++;
//	printf("%x ",*data_p); data_p++;
	p=(uint32_t*)TX_PING_CON;
	*p=0x03;
800008e2:	470d                	li	a4,3
800008e4:	7ee7ae23          	sw	a4,2044(a5) # 100507fc <__stack_size+0x1004fffc>
C:\NucleiStudio_workspace3\simple_world\Debug/../src/main.c:449
	pan=*p;
800008e8:	7fc7a783          	lw	a5,2044(a5)
C:\NucleiStudio_workspace3\simple_world\Debug/../src/main.c:451
	while (((pan & 0x01)==0x01) || ((pan & 0x02)==0x02)){
		pan=*p;
800008ec:	10050737          	lui	a4,0x10050
C:\NucleiStudio_workspace3\simple_world\Debug/../src/main.c:449
	pan=*p;
800008f0:	c63e                	sw	a5,12(sp)
C:\NucleiStudio_workspace3\simple_world\Debug/../src/main.c:450
	while (((pan & 0x01)==0x01) || ((pan & 0x02)==0x02)){
800008f2:	a021                	j	800008fa <eth_ini+0xf0>
C:\NucleiStudio_workspace3\simple_world\Debug/../src/main.c:451
		pan=*p;
800008f4:	7fc72783          	lw	a5,2044(a4) # 100507fc <__stack_size+0x1004fffc>
800008f8:	c63e                	sw	a5,12(sp)
C:\NucleiStudio_workspace3\simple_world\Debug/../src/main.c:450
	while (((pan & 0x01)==0x01) || ((pan & 0x02)==0x02)){
800008fa:	47b2                	lw	a5,12(sp)
800008fc:	8b85                	andi	a5,a5,1
800008fe:	fbfd                	bnez	a5,800008f4 <eth_ini+0xea>
C:\NucleiStudio_workspace3\simple_world\Debug/../src/main.c:450 (discriminator 1)
80000900:	47b2                	lw	a5,12(sp)
80000902:	8b89                	andi	a5,a5,2
80000904:	fbe5                	bnez	a5,800008f4 <eth_ini+0xea>
C:\NucleiStudio_workspace3\simple_world\Debug/../src/main.c:454
	}
//	printf("change mac as 00-11-22-33-44-55\n");
}
80000906:	0141                	addi	sp,sp,16
80000908:	8082                	ret

8000090a <receive_udp>:
receive_udp():
C:\NucleiStudio_workspace3\simple_world\Debug/../src/main.c:465
	volatile uint16_t * udp_port_base;
	int i;
	uint16_t udp_len;
	uint8_t ip_head_len;
	p=(uint32_t*)RX_PING_CON;
	pan = *p;
8000090a:	100517b7          	lui	a5,0x10051
8000090e:	7fc7a783          	lw	a5,2044(a5) # 100517fc <__stack_size+0x10050ffc>
C:\NucleiStudio_workspace3\simple_world\Debug/../src/main.c:456
int receive_udp(uint8_t * buf){
80000912:	1101                	addi	sp,sp,-32
80000914:	ce22                	sw	s0,28(sp)
C:\NucleiStudio_workspace3\simple_world\Debug/../src/main.c:465
	pan = *p;
80000916:	c63e                	sw	a5,12(sp)
C:\NucleiStudio_workspace3\simple_world\Debug/../src/main.c:466
	while ((pan & 0x01) == 0x00){
80000918:	47b2                	lw	a5,12(sp)
C:\NucleiStudio_workspace3\simple_world\Debug/../src/main.c:456
int receive_udp(uint8_t * buf){
8000091a:	cc26                	sw	s1,24(sp)
C:\NucleiStudio_workspace3\simple_world\Debug/../src/main.c:466
	while ((pan & 0x01) == 0x00){
8000091c:	8b85                	andi	a5,a5,1
8000091e:	eb89                	bnez	a5,80000930 <receive_udp+0x26>
C:\NucleiStudio_workspace3\simple_world\Debug/../src/main.c:467
		pan=*p;
80000920:	10051737          	lui	a4,0x10051
80000924:	7fc72783          	lw	a5,2044(a4) # 100517fc <__stack_size+0x10050ffc>
80000928:	c63e                	sw	a5,12(sp)
C:\NucleiStudio_workspace3\simple_world\Debug/../src/main.c:466
	while ((pan & 0x01) == 0x00){
8000092a:	47b2                	lw	a5,12(sp)
8000092c:	8b85                	andi	a5,a5,1
8000092e:	dbfd                	beqz	a5,80000924 <receive_udp+0x1a>
C:\NucleiStudio_workspace3\simple_world\Debug/../src/main.c:470
	};
	data_p=(uint8_t*)RX_BASE;
	dest_mac_rx[0] = *data_p;
80000930:	100517b7          	lui	a5,0x10051
80000934:	0007c703          	lbu	a4,0(a5) # 10051000 <__stack_size+0x10050800>
80000938:	81c18693          	addi	a3,gp,-2020 # 9000096c <dest_mac_rx>
8000093c:	00e68023          	sb	a4,0(a3)
C:\NucleiStudio_workspace3\simple_world\Debug/../src/main.c:472
	data_p++;
	dest_mac_rx[1] = *data_p;
80000940:	0017c483          	lbu	s1,1(a5)
C:\NucleiStudio_workspace3\simple_world\Debug/../src/main.c:474
	data_p++;
	dest_mac_rx[2] = *data_p;
80000944:	0027c403          	lbu	s0,2(a5)
C:\NucleiStudio_workspace3\simple_world\Debug/../src/main.c:476
	data_p++;
	dest_mac_rx[3] = *data_p;
80000948:	0037c383          	lbu	t2,3(a5)
C:\NucleiStudio_workspace3\simple_world\Debug/../src/main.c:478
	data_p++;
	dest_mac_rx[4] = *data_p;
8000094c:	0047c283          	lbu	t0,4(a5)
C:\NucleiStudio_workspace3\simple_world\Debug/../src/main.c:480
	data_p++;
	dest_mac_rx[5] = *data_p;
80000950:	0057cf83          	lbu	t6,5(a5)
C:\NucleiStudio_workspace3\simple_world\Debug/../src/main.c:482
	data_p++;
	source_mac_rx[0] = *data_p;
80000954:	0067c603          	lbu	a2,6(a5)
80000958:	85018713          	addi	a4,gp,-1968 # 900009a0 <source_mac_rx>
8000095c:	00c70023          	sb	a2,0(a4)
C:\NucleiStudio_workspace3\simple_world\Debug/../src/main.c:484
	data_p++;
	source_mac_rx[1] = *data_p;
80000960:	0077cf03          	lbu	t5,7(a5)
C:\NucleiStudio_workspace3\simple_world\Debug/../src/main.c:486
	data_p++;
	source_mac_rx[2] = *data_p;
80000964:	0087ce83          	lbu	t4,8(a5)
C:\NucleiStudio_workspace3\simple_world\Debug/../src/main.c:488
	data_p++;
	source_mac_rx[3] = *data_p;
80000968:	0097ce03          	lbu	t3,9(a5)
C:\NucleiStudio_workspace3\simple_world\Debug/../src/main.c:490
	data_p++;
	source_mac_rx[4] = *data_p;
8000096c:	00a7c303          	lbu	t1,10(a5)
C:\NucleiStudio_workspace3\simple_world\Debug/../src/main.c:492
	data_p++;
	source_mac_rx[5] = *data_p;
80000970:	00b7c883          	lbu	a7,11(a5)
C:\NucleiStudio_workspace3\simple_world\Debug/../src/main.c:494
	data_p++;
	eth_type_rx[0] = *data_p;
80000974:	00c7c603          	lbu	a2,12(a5)
80000978:	82418593          	addi	a1,gp,-2012 # 90000974 <eth_type_rx>
8000097c:	0ff67613          	andi	a2,a2,255
80000980:	00c58023          	sb	a2,0(a1)
C:\NucleiStudio_workspace3\simple_world\Debug/../src/main.c:496
	data_p++;
	eth_type_rx[1] = *data_p;
80000984:	00d7c803          	lbu	a6,13(a5)
C:\NucleiStudio_workspace3\simple_world\Debug/../src/main.c:484
	source_mac_rx[1] = *data_p;
80000988:	01e700a3          	sb	t5,1(a4)
C:\NucleiStudio_workspace3\simple_world\Debug/../src/main.c:486
	source_mac_rx[2] = *data_p;
8000098c:	01d70123          	sb	t4,2(a4)
C:\NucleiStudio_workspace3\simple_world\Debug/../src/main.c:496
	eth_type_rx[1] = *data_p;
80000990:	0ff87813          	andi	a6,a6,255
C:\NucleiStudio_workspace3\simple_world\Debug/../src/main.c:488
	source_mac_rx[3] = *data_p;
80000994:	01c701a3          	sb	t3,3(a4)
C:\NucleiStudio_workspace3\simple_world\Debug/../src/main.c:490
	source_mac_rx[4] = *data_p;
80000998:	00670223          	sb	t1,4(a4)
C:\NucleiStudio_workspace3\simple_world\Debug/../src/main.c:492
	source_mac_rx[5] = *data_p;
8000099c:	011702a3          	sb	a7,5(a4)
C:\NucleiStudio_workspace3\simple_world\Debug/../src/main.c:472
	dest_mac_rx[1] = *data_p;
800009a0:	009680a3          	sb	s1,1(a3)
C:\NucleiStudio_workspace3\simple_world\Debug/../src/main.c:474
	dest_mac_rx[2] = *data_p;
800009a4:	00868123          	sb	s0,2(a3)
C:\NucleiStudio_workspace3\simple_world\Debug/../src/main.c:476
	dest_mac_rx[3] = *data_p;
800009a8:	007681a3          	sb	t2,3(a3)
C:\NucleiStudio_workspace3\simple_world\Debug/../src/main.c:478
	dest_mac_rx[4] = *data_p;
800009ac:	00568223          	sb	t0,4(a3)
C:\NucleiStudio_workspace3\simple_world\Debug/../src/main.c:480
	dest_mac_rx[5] = *data_p;
800009b0:	01f682a3          	sb	t6,5(a3)
C:\NucleiStudio_workspace3\simple_world\Debug/../src/main.c:496
	eth_type_rx[1] = *data_p;
800009b4:	010580a3          	sb	a6,1(a1)
C:\NucleiStudio_workspace3\simple_world\Debug/../src/main.c:498
	data_p++;
	if ((eth_type_rx[0]!=0x08) || (eth_type_rx[1]!=0x00)){
800009b8:	4721                	li	a4,8
800009ba:	04e61663          	bne	a2,a4,80000a06 <receive_udp+0xfc>
C:\NucleiStudio_workspace3\simple_world\Debug/../src/main.c:498 (discriminator 1)
800009be:	04081463          	bnez	a6,80000a06 <receive_udp+0xfc>
C:\NucleiStudio_workspace3\simple_world\Debug/../src/main.c:503
		p=(uint32_t*)RX_PING_CON;
		*p=0;
		return 0;
	}
	ip_head_len = ((*data_p)& 0x0f)<<2;
800009c2:	00e7c883          	lbu	a7,14(a5)
C:\NucleiStudio_workspace3\simple_world\Debug/../src/main.c:505
	data_p+=16;
	dest_ip_rx[0] = *data_p;
800009c6:	01e7c683          	lbu	a3,30(a5)
800009ca:	81818713          	addi	a4,gp,-2024 # 90000968 <dest_ip_rx>
800009ce:	0ff6f693          	andi	a3,a3,255
800009d2:	00d70023          	sb	a3,0(a4)
C:\NucleiStudio_workspace3\simple_world\Debug/../src/main.c:507
	data_p++;
	dest_ip_rx[1] = *data_p;
800009d6:	01f7c603          	lbu	a2,31(a5)
C:\NucleiStudio_workspace3\simple_world\Debug/../src/main.c:509
	data_p++;
	dest_ip_rx[2] = *data_p;
800009da:	0207c583          	lbu	a1,32(a5)
C:\NucleiStudio_workspace3\simple_world\Debug/../src/main.c:511
	data_p++;
	dest_ip_rx[3] = *data_p;
800009de:	0217c803          	lbu	a6,33(a5)
C:\NucleiStudio_workspace3\simple_world\Debug/../src/main.c:507
	dest_ip_rx[1] = *data_p;
800009e2:	0ff67613          	andi	a2,a2,255
C:\NucleiStudio_workspace3\simple_world\Debug/../src/main.c:509
	dest_ip_rx[2] = *data_p;
800009e6:	0ff5f593          	andi	a1,a1,255
C:\NucleiStudio_workspace3\simple_world\Debug/../src/main.c:511
	dest_ip_rx[3] = *data_p;
800009ea:	0ff87813          	andi	a6,a6,255
C:\NucleiStudio_workspace3\simple_world\Debug/../src/main.c:507
	dest_ip_rx[1] = *data_p;
800009ee:	00c700a3          	sb	a2,1(a4)
C:\NucleiStudio_workspace3\simple_world\Debug/../src/main.c:509
	dest_ip_rx[2] = *data_p;
800009f2:	00b70123          	sb	a1,2(a4)
C:\NucleiStudio_workspace3\simple_world\Debug/../src/main.c:511
	dest_ip_rx[3] = *data_p;
800009f6:	010701a3          	sb	a6,3(a4)
C:\NucleiStudio_workspace3\simple_world\Debug/../src/main.c:513
	data_p++;
	if ((dest_ip_rx[0] != 192) || (dest_ip_rx[1] != 168) || (dest_ip_rx[2]!=1) || (dest_ip_rx[3]!=123)){
800009fa:	0c000713          	li	a4,192
C:\NucleiStudio_workspace3\simple_world\Debug/../src/main.c:503
	ip_head_len = ((*data_p)& 0x0f)<<2;
800009fe:	0ff8f893          	andi	a7,a7,255
C:\NucleiStudio_workspace3\simple_world\Debug/../src/main.c:513
	if ((dest_ip_rx[0] != 192) || (dest_ip_rx[1] != 168) || (dest_ip_rx[2]!=1) || (dest_ip_rx[3]!=123)){
80000a02:	00e68c63          	beq	a3,a4,80000a1a <receive_udp+0x110>
C:\NucleiStudio_workspace3\simple_world\Debug/../src/main.c:515
		p=(uint32_t*)RX_PING_CON;
		*p=0;
80000a06:	100517b7          	lui	a5,0x10051
80000a0a:	7e07ae23          	sw	zero,2044(a5) # 100517fc <__stack_size+0x10050ffc>
C:\NucleiStudio_workspace3\simple_world\Debug/../src/main.c:516
		return 0;
80000a0e:	4701                	li	a4,0
C:\NucleiStudio_workspace3\simple_world\Debug/../src/main.c:534
		*(buf+i) = *(data_p+i);
	}
	p=(uint32_t*)RX_PING_CON;
	*p=0;
	return udp_len;
}
80000a10:	4472                	lw	s0,28(sp)
80000a12:	44e2                	lw	s1,24(sp)
80000a14:	853a                	mv	a0,a4
80000a16:	6105                	addi	sp,sp,32
80000a18:	8082                	ret
C:\NucleiStudio_workspace3\simple_world\Debug/../src/main.c:513 (discriminator 1)
	if ((dest_ip_rx[0] != 192) || (dest_ip_rx[1] != 168) || (dest_ip_rx[2]!=1) || (dest_ip_rx[3]!=123)){
80000a1a:	0a800713          	li	a4,168
80000a1e:	fee614e3          	bne	a2,a4,80000a06 <receive_udp+0xfc>
C:\NucleiStudio_workspace3\simple_world\Debug/../src/main.c:513 (discriminator 2)
80000a22:	4705                	li	a4,1
80000a24:	fee591e3          	bne	a1,a4,80000a06 <receive_udp+0xfc>
C:\NucleiStudio_workspace3\simple_world\Debug/../src/main.c:513 (discriminator 3)
80000a28:	07b00713          	li	a4,123
80000a2c:	fce81de3          	bne	a6,a4,80000a06 <receive_udp+0xfc>
C:\NucleiStudio_workspace3\simple_world\Debug/../src/main.c:503
	ip_head_len = ((*data_p)& 0x0f)<<2;
80000a30:	088a                	slli	a7,a7,0x2
C:\NucleiStudio_workspace3\simple_world\Debug/../src/main.c:518
	data_p+=(ip_head_len - 20);
80000a32:	03c8f713          	andi	a4,a7,60
80000a36:	97ba                	add	a5,a5,a4
C:\NucleiStudio_workspace3\simple_world\Debug/../src/main.c:520
	dest_port = *udp_port_base;
80000a38:	00e7d603          	lhu	a2,14(a5)
C:\NucleiStudio_workspace3\simple_world\Debug/../src/main.c:522
	udp_len =  (*data_p)<<8;
80000a3c:	0127c703          	lbu	a4,18(a5)
C:\NucleiStudio_workspace3\simple_world\Debug/../src/main.c:524
	udp_len = udp_len | (*data_p);
80000a40:	0137c683          	lbu	a3,19(a5)
C:\NucleiStudio_workspace3\simple_world\Debug/../src/main.c:518
	data_p+=(ip_head_len - 20);
80000a44:	07b9                	addi	a5,a5,14
C:\NucleiStudio_workspace3\simple_world\Debug/../src/main.c:522
	udp_len =  (*data_p)<<8;
80000a46:	0722                	slli	a4,a4,0x8
C:\NucleiStudio_workspace3\simple_world\Debug/../src/main.c:524
	udp_len = udp_len | (*data_p);
80000a48:	8f55                	or	a4,a4,a3
C:\NucleiStudio_workspace3\simple_world\Debug/../src/main.c:525
	udp_len = udp_len - 8;
80000a4a:	1761                	addi	a4,a4,-8
80000a4c:	0742                	slli	a4,a4,0x10
C:\NucleiStudio_workspace3\simple_world\Debug/../src/main.c:520
	dest_port = *udp_port_base;
80000a4e:	82c19123          	sh	a2,-2014(gp) # 90000972 <dest_port>
C:\NucleiStudio_workspace3\simple_world\Debug/../src/main.c:525
	udp_len = udp_len - 8;
80000a52:	8341                	srli	a4,a4,0x10
C:\NucleiStudio_workspace3\simple_world\Debug/../src/main.c:528
	for (i=0;i<udp_len;i++){
80000a54:	cf01                	beqz	a4,80000a6c <receive_udp+0x162>
80000a56:	07a1                	addi	a5,a5,8
80000a58:	00e50633          	add	a2,a0,a4
C:\NucleiStudio_workspace3\simple_world\Debug/../src/main.c:529 (discriminator 3)
		*(buf+i) = *(data_p+i);
80000a5c:	0007c683          	lbu	a3,0(a5)
80000a60:	0505                	addi	a0,a0,1
80000a62:	0785                	addi	a5,a5,1
80000a64:	fed50fa3          	sb	a3,-1(a0)
C:\NucleiStudio_workspace3\simple_world\Debug/../src/main.c:528 (discriminator 3)
	for (i=0;i<udp_len;i++){
80000a68:	fec51ae3          	bne	a0,a2,80000a5c <receive_udp+0x152>
C:\NucleiStudio_workspace3\simple_world\Debug/../src/main.c:532
	*p=0;
80000a6c:	100517b7          	lui	a5,0x10051
80000a70:	7e07ae23          	sw	zero,2044(a5) # 100517fc <__stack_size+0x10050ffc>
C:\NucleiStudio_workspace3\simple_world\Debug/../src/main.c:533
	return udp_len;
80000a74:	bf71                	j	80000a10 <receive_udp+0x106>

80000a76 <send_udp>:
send_udp():
C:\NucleiStudio_workspace3\simple_world\Debug/../src/main.c:550
	int i;
	total_num = data_len + 28;
	udp_num = data_len + 8;
	ip_head[0] = 0x4500;
	ip_head[1] = total_num;
	tx_index++;
80000a76:	85e18793          	addi	a5,gp,-1954 # 900009ae <tx_index>
80000a7a:	0007d683          	lhu	a3,0(a5)
C:\NucleiStudio_workspace3\simple_world\Debug/../src/main.c:536
void send_udp(uint16_t data_len,uint8_t * buf){
80000a7e:	7179                	addi	sp,sp,-48
80000a80:	d622                	sw	s0,44(sp)
C:\NucleiStudio_workspace3\simple_world\Debug/../src/main.c:550
	tx_index++;
80000a82:	0685                	addi	a3,a3,1
80000a84:	06c2                	slli	a3,a3,0x10
C:\NucleiStudio_workspace3\simple_world\Debug/../src/main.c:536
void send_udp(uint16_t data_len,uint8_t * buf){
80000a86:	d426                	sw	s1,40(sp)
80000a88:	d24a                	sw	s2,36(sp)
80000a8a:	d04e                	sw	s3,32(sp)
80000a8c:	ce52                	sw	s4,28(sp)
80000a8e:	cc56                	sw	s5,24(sp)
80000a90:	ca5a                	sw	s6,20(sp)
C:\NucleiStudio_workspace3\simple_world\Debug/../src/main.c:550
	tx_index++;
80000a92:	82c1                	srli	a3,a3,0x10
80000a94:	00d79023          	sh	a3,0(a5)
C:\NucleiStudio_workspace3\simple_world\Debug/../src/main.c:546
	total_num = data_len + 28;
80000a98:	01c50e13          	addi	t3,a0,28
C:\NucleiStudio_workspace3\simple_world\Debug/../src/main.c:563
	ip_head[9] = 0x0166;
	ip_head[10] = 69;
	ip_head[11] = ((dest_port & 0xff00)>>8)|((dest_port & 0x00ff)<<8);
	ip_head[12] = udp_num;
	ip_head[13] = 0x0000;
	sum = ip_head[0]+ip_head[1]+ip_head[2]+ip_head[3]+ip_head[4]+ip_head[5]+
80000a9c:	000257b7          	lui	a5,0x25
C:\NucleiStudio_workspace3\simple_world\Debug/../src/main.c:546
	total_num = data_len + 28;
80000aa0:	0e42                	slli	t3,t3,0x10
C:\NucleiStudio_workspace3\simple_world\Debug/../src/main.c:563
	sum = ip_head[0]+ip_head[1]+ip_head[2]+ip_head[3]+ip_head[4]+ip_head[5]+
80000aa2:	94278793          	addi	a5,a5,-1726 # 24942 <__stack_size+0x24142>
C:\NucleiStudio_workspace3\simple_world\Debug/../src/main.c:548
	ip_head[0] = 0x4500;
80000aa6:	6311                	lui	t1,0x4
C:\NucleiStudio_workspace3\simple_world\Debug/../src/main.c:546
	total_num = data_len + 28;
80000aa8:	010e5e13          	srli	t3,t3,0x10
C:\NucleiStudio_workspace3\simple_world\Debug/../src/main.c:563
	sum = ip_head[0]+ip_head[1]+ip_head[2]+ip_head[3]+ip_head[4]+ip_head[5]+
80000aac:	97b6                	add	a5,a5,a3
C:\NucleiStudio_workspace3\simple_world\Debug/../src/main.c:548
	ip_head[0] = 0x4500;
80000aae:	9000a737          	lui	a4,0x9000a
80000ab2:	2a070713          	addi	a4,a4,672 # 9000a2a0 <_sp+0xffffa2a0>
80000ab6:	50030613          	addi	a2,t1,1280 # 4500 <__stack_size+0x3d00>
C:\NucleiStudio_workspace3\simple_world\Debug/../src/main.c:563
	sum = ip_head[0]+ip_head[1]+ip_head[2]+ip_head[3]+ip_head[4]+ip_head[5]+
80000aba:	97f2                	add	a5,a5,t3
C:\NucleiStudio_workspace3\simple_world\Debug/../src/main.c:548
	ip_head[0] = 0x4500;
80000abc:	c310                	sw	a2,0(a4)
C:\NucleiStudio_workspace3\simple_world\Debug/../src/main.c:565
		  ip_head[6]+ip_head[7]+ip_head[8]+ip_head[9];
	sum2 = ((sum & 0xffff0000)>>16)+(sum & 0x0000ffff);
80000abe:	0107d893          	srli	a7,a5,0x10
C:\NucleiStudio_workspace3\simple_world\Debug/../src/main.c:570
	check_sum = ((sum2 & 0xffff0000)>>16)+(sum2 & 0x0000ffff);
	check_sum = ~check_sum;
	ip_head[5] = check_sum;
	p=(uint32_t*)TX_PING_CON;
	pan = *p;
80000ac2:	10050637          	lui	a2,0x10050
C:\NucleiStudio_workspace3\simple_world\Debug/../src/main.c:565
	sum2 = ((sum & 0xffff0000)>>16)+(sum & 0x0000ffff);
80000ac6:	07c2                	slli	a5,a5,0x10
C:\NucleiStudio_workspace3\simple_world\Debug/../src/main.c:570
	pan = *p;
80000ac8:	7fc62603          	lw	a2,2044(a2) # 100507fc <__stack_size+0x1004fffc>
C:\NucleiStudio_workspace3\simple_world\Debug/../src/main.c:560
	ip_head[11] = ((dest_port & 0xff00)>>8)|((dest_port & 0x00ff)<<8);
80000acc:	8221d803          	lhu	a6,-2014(gp) # 90000972 <dest_port>
C:\NucleiStudio_workspace3\simple_world\Debug/../src/main.c:565
	sum2 = ((sum & 0xffff0000)>>16)+(sum & 0x0000ffff);
80000ad0:	83c1                	srli	a5,a5,0x10
80000ad2:	98be                	add	a7,a7,a5
C:\NucleiStudio_workspace3\simple_world\Debug/../src/main.c:566
	check_sum = ((sum2 & 0xffff0000)>>16)+(sum2 & 0x0000ffff);
80000ad4:	0108d793          	srli	a5,a7,0x10
C:\NucleiStudio_workspace3\simple_world\Debug/../src/main.c:570
	pan = *p;
80000ad8:	c632                	sw	a2,12(sp)
C:\NucleiStudio_workspace3\simple_world\Debug/../src/main.c:566
	check_sum = ((sum2 & 0xffff0000)>>16)+(sum2 & 0x0000ffff);
80000ada:	97c6                	add	a5,a5,a7
C:\NucleiStudio_workspace3\simple_world\Debug/../src/main.c:560
	ip_head[11] = ((dest_port & 0xff00)>>8)|((dest_port & 0x00ff)<<8);
80000adc:	00881613          	slli	a2,a6,0x8
80000ae0:	00885813          	srli	a6,a6,0x8
80000ae4:	01066633          	or	a2,a2,a6
C:\NucleiStudio_workspace3\simple_world\Debug/../src/main.c:571
	while ((pan & 0x01)  == 0x01){
80000ae8:	48b2                	lw	a7,12(sp)
C:\NucleiStudio_workspace3\simple_world\Debug/../src/main.c:547
	udp_num = data_len + 8;
80000aea:	00850e93          	addi	t4,a0,8
C:\NucleiStudio_workspace3\simple_world\Debug/../src/main.c:567
	check_sum = ~check_sum;
80000aee:	fff7c793          	not	a5,a5
C:\NucleiStudio_workspace3\simple_world\Debug/../src/main.c:551
	ip_head[2] = tx_index;
80000af2:	c714                	sw	a3,8(a4)
C:\NucleiStudio_workspace3\simple_world\Debug/../src/main.c:556
	ip_head[7] = 0x017b;
80000af4:	17b00693          	li	a3,379
C:\NucleiStudio_workspace3\simple_world\Debug/../src/main.c:555
	ip_head[6] = 0xc0a8;
80000af8:	6831                	lui	a6,0xc
C:\NucleiStudio_workspace3\simple_world\Debug/../src/main.c:560
	ip_head[11] = ((dest_port & 0xff00)>>8)|((dest_port & 0x00ff)<<8);
80000afa:	0642                	slli	a2,a2,0x10
C:\NucleiStudio_workspace3\simple_world\Debug/../src/main.c:561
	ip_head[12] = udp_num;
80000afc:	0ec2                	slli	t4,t4,0x10
C:\NucleiStudio_workspace3\simple_world\Debug/../src/main.c:568
	ip_head[5] = check_sum;
80000afe:	07c2                	slli	a5,a5,0x10
C:\NucleiStudio_workspace3\simple_world\Debug/../src/main.c:556
	ip_head[7] = 0x017b;
80000b00:	cf54                	sw	a3,28(a4)
C:\NucleiStudio_workspace3\simple_world\Debug/../src/main.c:558
	ip_head[9] = 0x0166;
80000b02:	16600693          	li	a3,358
C:\NucleiStudio_workspace3\simple_world\Debug/../src/main.c:555
	ip_head[6] = 0xc0a8;
80000b06:	0a880813          	addi	a6,a6,168 # c0a8 <__stack_size+0xb8a8>
C:\NucleiStudio_workspace3\simple_world\Debug/../src/main.c:568
	ip_head[5] = check_sum;
80000b0a:	83c1                	srli	a5,a5,0x10
C:\NucleiStudio_workspace3\simple_world\Debug/../src/main.c:553
	ip_head[4] = 0x4011;
80000b0c:	01130f13          	addi	t5,t1,17
C:\NucleiStudio_workspace3\simple_world\Debug/../src/main.c:560
	ip_head[11] = ((dest_port & 0xff00)>>8)|((dest_port & 0x00ff)<<8);
80000b10:	8241                	srli	a2,a2,0x10
C:\NucleiStudio_workspace3\simple_world\Debug/../src/main.c:561
	ip_head[12] = udp_num;
80000b12:	010ede93          	srli	t4,t4,0x10
C:\NucleiStudio_workspace3\simple_world\Debug/../src/main.c:558
	ip_head[9] = 0x0166;
80000b16:	d354                	sw	a3,36(a4)
C:\NucleiStudio_workspace3\simple_world\Debug/../src/main.c:559
	ip_head[10] = 69;
80000b18:	04500693          	li	a3,69
80000b1c:	d714                	sw	a3,40(a4)
C:\NucleiStudio_workspace3\simple_world\Debug/../src/main.c:568
	ip_head[5] = check_sum;
80000b1e:	cb5c                	sw	a5,20(a4)
C:\NucleiStudio_workspace3\simple_world\Debug/../src/main.c:549
	ip_head[1] = total_num;
80000b20:	01c72223          	sw	t3,4(a4)
C:\NucleiStudio_workspace3\simple_world\Debug/../src/main.c:552
	ip_head[3] = 0x4000;
80000b24:	00672623          	sw	t1,12(a4)
C:\NucleiStudio_workspace3\simple_world\Debug/../src/main.c:553
	ip_head[4] = 0x4011;
80000b28:	01e72823          	sw	t5,16(a4)
C:\NucleiStudio_workspace3\simple_world\Debug/../src/main.c:555
	ip_head[6] = 0xc0a8;
80000b2c:	01072c23          	sw	a6,24(a4)
C:\NucleiStudio_workspace3\simple_world\Debug/../src/main.c:557
	ip_head[8] = 0xc0a8;
80000b30:	03072023          	sw	a6,32(a4)
C:\NucleiStudio_workspace3\simple_world\Debug/../src/main.c:560
	ip_head[11] = ((dest_port & 0xff00)>>8)|((dest_port & 0x00ff)<<8);
80000b34:	d750                	sw	a2,44(a4)
C:\NucleiStudio_workspace3\simple_world\Debug/../src/main.c:561
	ip_head[12] = udp_num;
80000b36:	03d72823          	sw	t4,48(a4)
C:\NucleiStudio_workspace3\simple_world\Debug/../src/main.c:562
	ip_head[13] = 0x0000;
80000b3a:	02072a23          	sw	zero,52(a4)
C:\NucleiStudio_workspace3\simple_world\Debug/../src/main.c:571
	while ((pan & 0x01)  == 0x01){
80000b3e:	0018f793          	andi	a5,a7,1
80000b42:	100506b7          	lui	a3,0x10050
80000b46:	c799                	beqz	a5,80000b54 <send_udp+0xde>
C:\NucleiStudio_workspace3\simple_world\Debug/../src/main.c:572
		pan=*p;
80000b48:	7fc6a783          	lw	a5,2044(a3) # 100507fc <__stack_size+0x1004fffc>
80000b4c:	c63e                	sw	a5,12(sp)
C:\NucleiStudio_workspace3\simple_world\Debug/../src/main.c:571
	while ((pan & 0x01)  == 0x01){
80000b4e:	47b2                	lw	a5,12(sp)
80000b50:	8b85                	andi	a5,a5,1
80000b52:	fbfd                	bnez	a5,80000b48 <send_udp+0xd2>
C:\NucleiStudio_workspace3\simple_world\Debug/../src/main.c:575
	};
	p = (uint32_t*)TX_BASE;
	*p = 0xffffffff;  p++;
80000b54:	100507b7          	lui	a5,0x10050
80000b58:	56fd                	li	a3,-1
80000b5a:	c394                	sw	a3,0(a5)
C:\NucleiStudio_workspace3\simple_world\Debug/../src/main.c:576
	*p = 0x1100ffff;  p++;
80000b5c:	110106b7          	lui	a3,0x11010
80000b60:	16fd                	addi	a3,a3,-1
80000b62:	c3d4                	sw	a3,4(a5)
C:\NucleiStudio_workspace3\simple_world\Debug/../src/main.c:577
	*p = 0x55443322;  p++;
80000b64:	554436b7          	lui	a3,0x55443
80000b68:	32268693          	addi	a3,a3,802 # 55443322 <_data_lma+0x3543ddea>
80000b6c:	c794                	sw	a3,8(a5)
C:\NucleiStudio_workspace3\simple_world\Debug/../src/main.c:579
	*p = ((ip_head[0] & 0xff00)<<8)|0x0008 | ((ip_head[0] & 0x00ff)<<24); p++;
	*p = ((ip_head[1] & 0xff00)>>8)|((ip_head[1] & 0x00ff)<<8)|((ip_head[2] & 0xff00)<<8)|((ip_head[2] & 0x00ff)<<24); p++;
80000b6e:	00475f83          	lhu	t6,4(a4)
C:\NucleiStudio_workspace3\simple_world\Debug/../src/main.c:578
	*p = ((ip_head[0] & 0xff00)<<8)|0x0008 | ((ip_head[0] & 0x00ff)<<24); p++;
80000b72:	00072303          	lw	t1,0(a4)
C:\NucleiStudio_workspace3\simple_world\Debug/../src/main.c:579
	*p = ((ip_head[1] & 0xff00)>>8)|((ip_head[1] & 0x00ff)<<8)|((ip_head[2] & 0xff00)<<8)|((ip_head[2] & 0x00ff)<<24); p++;
80000b76:	00872803          	lw	a6,8(a4)
C:\NucleiStudio_workspace3\simple_world\Debug/../src/main.c:580
	*p = ((ip_head[3] & 0xff00)>>8)|((ip_head[3] & 0x00ff)<<8)|((ip_head[4] & 0xff00)<<8)|((ip_head[4] & 0x00ff)<<24); p++;
80000b7a:	00c75883          	lhu	a7,12(a4)
C:\NucleiStudio_workspace3\simple_world\Debug/../src/main.c:581
	*p = ((ip_head[5] & 0xff00)>>8)|((ip_head[5] & 0x00ff)<<8)|((ip_head[6] & 0xff00)<<8)|((ip_head[6] & 0x00ff)<<24); p++;
80000b7e:	01475e83          	lhu	t4,20(a4)
C:\NucleiStudio_workspace3\simple_world\Debug/../src/main.c:579
	*p = ((ip_head[1] & 0xff00)>>8)|((ip_head[1] & 0x00ff)<<8)|((ip_head[2] & 0xff00)<<8)|((ip_head[2] & 0x00ff)<<24); p++;
80000b82:	008f9293          	slli	t0,t6,0x8
80000b86:	008fdf93          	srli	t6,t6,0x8
C:\NucleiStudio_workspace3\simple_world\Debug/../src/main.c:580
	*p = ((ip_head[3] & 0xff00)>>8)|((ip_head[3] & 0x00ff)<<8)|((ip_head[4] & 0xff00)<<8)|((ip_head[4] & 0x00ff)<<24); p++;
80000b8a:	01072903          	lw	s2,16(a4)
C:\NucleiStudio_workspace3\simple_world\Debug/../src/main.c:582
	*p = ((ip_head[7] & 0xff00)>>8)|((ip_head[7] & 0x00ff)<<8)|((ip_head[8] & 0xff00)<<8)|((ip_head[8] & 0x00ff)<<24); p++;
80000b8e:	01c75983          	lhu	s3,28(a4)
C:\NucleiStudio_workspace3\simple_world\Debug/../src/main.c:578
	*p = ((ip_head[0] & 0xff00)<<8)|0x0008 | ((ip_head[0] & 0x00ff)<<24); p++;
80000b92:	00ff0f37          	lui	t5,0xff0
80000b96:	00831613          	slli	a2,t1,0x8
C:\NucleiStudio_workspace3\simple_world\Debug/../src/main.c:579
	*p = ((ip_head[1] & 0xff00)>>8)|((ip_head[1] & 0x00ff)<<8)|((ip_head[2] & 0xff00)<<8)|((ip_head[2] & 0x00ff)<<24); p++;
80000b9a:	01f2e2b3          	or	t0,t0,t6
C:\NucleiStudio_workspace3\simple_world\Debug/../src/main.c:581
	*p = ((ip_head[5] & 0xff00)>>8)|((ip_head[5] & 0x00ff)<<8)|((ip_head[6] & 0xff00)<<8)|((ip_head[6] & 0x00ff)<<24); p++;
80000b9e:	4f14                	lw	a3,24(a4)
C:\NucleiStudio_workspace3\simple_world\Debug/../src/main.c:583
	*p = ((ip_head[9] & 0xff00)>>8)|((ip_head[9] & 0x00ff)<<8)|((ip_head[10] & 0xff00)<<8)|((ip_head[10] & 0x00ff)<<24); p++;
80000ba0:	02475483          	lhu	s1,36(a4)
C:\NucleiStudio_workspace3\simple_world\Debug/../src/main.c:578
	*p = ((ip_head[0] & 0xff00)<<8)|0x0008 | ((ip_head[0] & 0x00ff)<<24); p++;
80000ba4:	01831a13          	slli	s4,t1,0x18
C:\NucleiStudio_workspace3\simple_world\Debug/../src/main.c:579
	*p = ((ip_head[1] & 0xff00)>>8)|((ip_head[1] & 0x00ff)<<8)|((ip_head[2] & 0xff00)<<8)|((ip_head[2] & 0x00ff)<<24); p++;
80000ba8:	00881a93          	slli	s5,a6,0x8
C:\NucleiStudio_workspace3\simple_world\Debug/../src/main.c:578
	*p = ((ip_head[0] & 0xff00)<<8)|0x0008 | ((ip_head[0] & 0x00ff)<<24); p++;
80000bac:	01e67633          	and	a2,a2,t5
C:\NucleiStudio_workspace3\simple_world\Debug/../src/main.c:580
	*p = ((ip_head[3] & 0xff00)>>8)|((ip_head[3] & 0x00ff)<<8)|((ip_head[4] & 0xff00)<<8)|((ip_head[4] & 0x00ff)<<24); p++;
80000bb0:	00889313          	slli	t1,a7,0x8
C:\NucleiStudio_workspace3\simple_world\Debug/../src/main.c:579
	*p = ((ip_head[1] & 0xff00)>>8)|((ip_head[1] & 0x00ff)<<8)|((ip_head[2] & 0xff00)<<8)|((ip_head[2] & 0x00ff)<<24); p++;
80000bb4:	02c2                	slli	t0,t0,0x10
C:\NucleiStudio_workspace3\simple_world\Debug/../src/main.c:580
	*p = ((ip_head[3] & 0xff00)>>8)|((ip_head[3] & 0x00ff)<<8)|((ip_head[4] & 0xff00)<<8)|((ip_head[4] & 0x00ff)<<24); p++;
80000bb6:	0088d893          	srli	a7,a7,0x8
C:\NucleiStudio_workspace3\simple_world\Debug/../src/main.c:582
	*p = ((ip_head[7] & 0xff00)>>8)|((ip_head[7] & 0x00ff)<<8)|((ip_head[8] & 0xff00)<<8)|((ip_head[8] & 0x00ff)<<24); p++;
80000bba:	02072383          	lw	t2,32(a4)
C:\NucleiStudio_workspace3\simple_world\Debug/../src/main.c:584
	*p = ((ip_head[11] & 0xff00)>>8)|((ip_head[11] & 0x00ff)<<8)|((ip_head[12] & 0xff00)<<8)|((ip_head[12] & 0x00ff)<<24); p++;
80000bbe:	02c75403          	lhu	s0,44(a4)
C:\NucleiStudio_workspace3\simple_world\Debug/../src/main.c:578
	*p = ((ip_head[0] & 0xff00)<<8)|0x0008 | ((ip_head[0] & 0x00ff)<<24); p++;
80000bc2:	01466633          	or	a2,a2,s4
C:\NucleiStudio_workspace3\simple_world\Debug/../src/main.c:580
	*p = ((ip_head[3] & 0xff00)>>8)|((ip_head[3] & 0x00ff)<<8)|((ip_head[4] & 0xff00)<<8)|((ip_head[4] & 0x00ff)<<24); p++;
80000bc6:	01136333          	or	t1,t1,a7
C:\NucleiStudio_workspace3\simple_world\Debug/../src/main.c:579
	*p = ((ip_head[1] & 0xff00)>>8)|((ip_head[1] & 0x00ff)<<8)|((ip_head[2] & 0xff00)<<8)|((ip_head[2] & 0x00ff)<<24); p++;
80000bca:	01eafa33          	and	s4,s5,t5
C:\NucleiStudio_workspace3\simple_world\Debug/../src/main.c:581
	*p = ((ip_head[5] & 0xff00)>>8)|((ip_head[5] & 0x00ff)<<8)|((ip_head[6] & 0xff00)<<8)|((ip_head[6] & 0x00ff)<<24); p++;
80000bce:	008e9893          	slli	a7,t4,0x8
80000bd2:	008eda93          	srli	s5,t4,0x8
C:\NucleiStudio_workspace3\simple_world\Debug/../src/main.c:579
	*p = ((ip_head[1] & 0xff00)>>8)|((ip_head[1] & 0x00ff)<<8)|((ip_head[2] & 0xff00)<<8)|((ip_head[2] & 0x00ff)<<24); p++;
80000bd6:	0102d293          	srli	t0,t0,0x10
C:\NucleiStudio_workspace3\simple_world\Debug/../src/main.c:583
	*p = ((ip_head[9] & 0xff00)>>8)|((ip_head[9] & 0x00ff)<<8)|((ip_head[10] & 0xff00)<<8)|((ip_head[10] & 0x00ff)<<24); p++;
80000bda:	02872f83          	lw	t6,40(a4)
C:\NucleiStudio_workspace3\simple_world\Debug/../src/main.c:580
	*p = ((ip_head[3] & 0xff00)>>8)|((ip_head[3] & 0x00ff)<<8)|((ip_head[4] & 0xff00)<<8)|((ip_head[4] & 0x00ff)<<24); p++;
80000bde:	00891b13          	slli	s6,s2,0x8
C:\NucleiStudio_workspace3\simple_world\Debug/../src/main.c:578
	*p = ((ip_head[0] & 0xff00)<<8)|0x0008 | ((ip_head[0] & 0x00ff)<<24); p++;
80000be2:	00866613          	ori	a2,a2,8
C:\NucleiStudio_workspace3\simple_world\Debug/../src/main.c:579
	*p = ((ip_head[1] & 0xff00)>>8)|((ip_head[1] & 0x00ff)<<8)|((ip_head[2] & 0xff00)<<8)|((ip_head[2] & 0x00ff)<<24); p++;
80000be6:	0142e2b3          	or	t0,t0,s4
C:\NucleiStudio_workspace3\simple_world\Debug/../src/main.c:581
	*p = ((ip_head[5] & 0xff00)>>8)|((ip_head[5] & 0x00ff)<<8)|((ip_head[6] & 0xff00)<<8)|((ip_head[6] & 0x00ff)<<24); p++;
80000bea:	0158e8b3          	or	a7,a7,s5
C:\NucleiStudio_workspace3\simple_world\Debug/../src/main.c:579
	*p = ((ip_head[1] & 0xff00)>>8)|((ip_head[1] & 0x00ff)<<8)|((ip_head[2] & 0xff00)<<8)|((ip_head[2] & 0x00ff)<<24); p++;
80000bee:	01881a13          	slli	s4,a6,0x18
C:\NucleiStudio_workspace3\simple_world\Debug/../src/main.c:580
	*p = ((ip_head[3] & 0xff00)>>8)|((ip_head[3] & 0x00ff)<<8)|((ip_head[4] & 0xff00)<<8)|((ip_head[4] & 0x00ff)<<24); p++;
80000bf2:	0342                	slli	t1,t1,0x10
C:\NucleiStudio_workspace3\simple_world\Debug/../src/main.c:582
	*p = ((ip_head[7] & 0xff00)>>8)|((ip_head[7] & 0x00ff)<<8)|((ip_head[8] & 0xff00)<<8)|((ip_head[8] & 0x00ff)<<24); p++;
80000bf4:	00899813          	slli	a6,s3,0x8
80000bf8:	0089d993          	srli	s3,s3,0x8
C:\NucleiStudio_workspace3\simple_world\Debug/../src/main.c:584
	*p = ((ip_head[11] & 0xff00)>>8)|((ip_head[11] & 0x00ff)<<8)|((ip_head[12] & 0xff00)<<8)|((ip_head[12] & 0x00ff)<<24); p++;
80000bfc:	03072e83          	lw	t4,48(a4)
C:\NucleiStudio_workspace3\simple_world\Debug/../src/main.c:579
	*p = ((ip_head[1] & 0xff00)>>8)|((ip_head[1] & 0x00ff)<<8)|((ip_head[2] & 0xff00)<<8)|((ip_head[2] & 0x00ff)<<24); p++;
80000c00:	0142e2b3          	or	t0,t0,s4
C:\NucleiStudio_workspace3\simple_world\Debug/../src/main.c:578
	*p = ((ip_head[0] & 0xff00)<<8)|0x0008 | ((ip_head[0] & 0x00ff)<<24); p++;
80000c04:	c7d0                	sw	a2,12(a5)
C:\NucleiStudio_workspace3\simple_world\Debug/../src/main.c:580
	*p = ((ip_head[3] & 0xff00)>>8)|((ip_head[3] & 0x00ff)<<8)|((ip_head[4] & 0xff00)<<8)|((ip_head[4] & 0x00ff)<<24); p++;
80000c06:	01eb7b33          	and	s6,s6,t5
C:\NucleiStudio_workspace3\simple_world\Debug/../src/main.c:581
	*p = ((ip_head[5] & 0xff00)>>8)|((ip_head[5] & 0x00ff)<<8)|((ip_head[6] & 0xff00)<<8)|((ip_head[6] & 0x00ff)<<24); p++;
80000c0a:	00869a93          	slli	s5,a3,0x8
C:\NucleiStudio_workspace3\simple_world\Debug/../src/main.c:582
	*p = ((ip_head[7] & 0xff00)>>8)|((ip_head[7] & 0x00ff)<<8)|((ip_head[8] & 0xff00)<<8)|((ip_head[8] & 0x00ff)<<24); p++;
80000c0e:	01386833          	or	a6,a6,s3
C:\NucleiStudio_workspace3\simple_world\Debug/../src/main.c:583
	*p = ((ip_head[9] & 0xff00)>>8)|((ip_head[9] & 0x00ff)<<8)|((ip_head[10] & 0xff00)<<8)|((ip_head[10] & 0x00ff)<<24); p++;
80000c12:	00849613          	slli	a2,s1,0x8
C:\NucleiStudio_workspace3\simple_world\Debug/../src/main.c:580
	*p = ((ip_head[3] & 0xff00)>>8)|((ip_head[3] & 0x00ff)<<8)|((ip_head[4] & 0xff00)<<8)|((ip_head[4] & 0x00ff)<<24); p++;
80000c16:	01035313          	srli	t1,t1,0x10
C:\NucleiStudio_workspace3\simple_world\Debug/../src/main.c:583
	*p = ((ip_head[9] & 0xff00)>>8)|((ip_head[9] & 0x00ff)<<8)|((ip_head[10] & 0xff00)<<8)|((ip_head[10] & 0x00ff)<<24); p++;
80000c1a:	80a1                	srli	s1,s1,0x8
C:\NucleiStudio_workspace3\simple_world\Debug/../src/main.c:581
	*p = ((ip_head[5] & 0xff00)>>8)|((ip_head[5] & 0x00ff)<<8)|((ip_head[6] & 0xff00)<<8)|((ip_head[6] & 0x00ff)<<24); p++;
80000c1c:	08c2                	slli	a7,a7,0x10
C:\NucleiStudio_workspace3\simple_world\Debug/../src/main.c:579
	*p = ((ip_head[1] & 0xff00)>>8)|((ip_head[1] & 0x00ff)<<8)|((ip_head[2] & 0xff00)<<8)|((ip_head[2] & 0x00ff)<<24); p++;
80000c1e:	0057a823          	sw	t0,16(a5) # 10050010 <__stack_size+0x1004f810>
C:\NucleiStudio_workspace3\simple_world\Debug/../src/main.c:580
	*p = ((ip_head[3] & 0xff00)>>8)|((ip_head[3] & 0x00ff)<<8)|((ip_head[4] & 0xff00)<<8)|((ip_head[4] & 0x00ff)<<24); p++;
80000c22:	0962                	slli	s2,s2,0x18
C:\NucleiStudio_workspace3\simple_world\Debug/../src/main.c:581
	*p = ((ip_head[5] & 0xff00)>>8)|((ip_head[5] & 0x00ff)<<8)|((ip_head[6] & 0xff00)<<8)|((ip_head[6] & 0x00ff)<<24); p++;
80000c24:	01869293          	slli	t0,a3,0x18
80000c28:	01eafa33          	and	s4,s5,t5
C:\NucleiStudio_workspace3\simple_world\Debug/../src/main.c:582
	*p = ((ip_head[7] & 0xff00)>>8)|((ip_head[7] & 0x00ff)<<8)|((ip_head[8] & 0xff00)<<8)|((ip_head[8] & 0x00ff)<<24); p++;
80000c2c:	00839993          	slli	s3,t2,0x8
C:\NucleiStudio_workspace3\simple_world\Debug/../src/main.c:583
	*p = ((ip_head[9] & 0xff00)>>8)|((ip_head[9] & 0x00ff)<<8)|((ip_head[10] & 0xff00)<<8)|((ip_head[10] & 0x00ff)<<24); p++;
80000c30:	8e45                	or	a2,a2,s1
C:\NucleiStudio_workspace3\simple_world\Debug/../src/main.c:584
	*p = ((ip_head[11] & 0xff00)>>8)|((ip_head[11] & 0x00ff)<<8)|((ip_head[12] & 0xff00)<<8)|((ip_head[12] & 0x00ff)<<24); p++;
80000c32:	00841693          	slli	a3,s0,0x8
C:\NucleiStudio_workspace3\simple_world\Debug/../src/main.c:580
	*p = ((ip_head[3] & 0xff00)>>8)|((ip_head[3] & 0x00ff)<<8)|((ip_head[4] & 0xff00)<<8)|((ip_head[4] & 0x00ff)<<24); p++;
80000c36:	01636333          	or	t1,t1,s6
C:\NucleiStudio_workspace3\simple_world\Debug/../src/main.c:581
	*p = ((ip_head[5] & 0xff00)>>8)|((ip_head[5] & 0x00ff)<<8)|((ip_head[6] & 0xff00)<<8)|((ip_head[6] & 0x00ff)<<24); p++;
80000c3a:	0108d893          	srli	a7,a7,0x10
C:\NucleiStudio_workspace3\simple_world\Debug/../src/main.c:582
	*p = ((ip_head[7] & 0xff00)>>8)|((ip_head[7] & 0x00ff)<<8)|((ip_head[8] & 0xff00)<<8)|((ip_head[8] & 0x00ff)<<24); p++;
80000c3e:	0842                	slli	a6,a6,0x10
C:\NucleiStudio_workspace3\simple_world\Debug/../src/main.c:584
	*p = ((ip_head[11] & 0xff00)>>8)|((ip_head[11] & 0x00ff)<<8)|((ip_head[12] & 0xff00)<<8)|((ip_head[12] & 0x00ff)<<24); p++;
80000c40:	8021                	srli	s0,s0,0x8
C:\NucleiStudio_workspace3\simple_world\Debug/../src/main.c:580
	*p = ((ip_head[3] & 0xff00)>>8)|((ip_head[3] & 0x00ff)<<8)|((ip_head[4] & 0xff00)<<8)|((ip_head[4] & 0x00ff)<<24); p++;
80000c42:	01236333          	or	t1,t1,s2
C:\NucleiStudio_workspace3\simple_world\Debug/../src/main.c:583
	*p = ((ip_head[9] & 0xff00)>>8)|((ip_head[9] & 0x00ff)<<8)|((ip_head[10] & 0xff00)<<8)|((ip_head[10] & 0x00ff)<<24); p++;
80000c46:	008f9493          	slli	s1,t6,0x8
C:\NucleiStudio_workspace3\simple_world\Debug/../src/main.c:582
	*p = ((ip_head[7] & 0xff00)>>8)|((ip_head[7] & 0x00ff)<<8)|((ip_head[8] & 0xff00)<<8)|((ip_head[8] & 0x00ff)<<24); p++;
80000c4a:	01e9f933          	and	s2,s3,t5
C:\NucleiStudio_workspace3\simple_world\Debug/../src/main.c:581
	*p = ((ip_head[5] & 0xff00)>>8)|((ip_head[5] & 0x00ff)<<8)|((ip_head[6] & 0xff00)<<8)|((ip_head[6] & 0x00ff)<<24); p++;
80000c4e:	0148e8b3          	or	a7,a7,s4
C:\NucleiStudio_workspace3\simple_world\Debug/../src/main.c:582
	*p = ((ip_head[7] & 0xff00)>>8)|((ip_head[7] & 0x00ff)<<8)|((ip_head[8] & 0xff00)<<8)|((ip_head[8] & 0x00ff)<<24); p++;
80000c52:	01085813          	srli	a6,a6,0x10
C:\NucleiStudio_workspace3\simple_world\Debug/../src/main.c:583
	*p = ((ip_head[9] & 0xff00)>>8)|((ip_head[9] & 0x00ff)<<8)|((ip_head[10] & 0xff00)<<8)|((ip_head[10] & 0x00ff)<<24); p++;
80000c56:	0642                	slli	a2,a2,0x10
C:\NucleiStudio_workspace3\simple_world\Debug/../src/main.c:584
	*p = ((ip_head[11] & 0xff00)>>8)|((ip_head[11] & 0x00ff)<<8)|((ip_head[12] & 0xff00)<<8)|((ip_head[12] & 0x00ff)<<24); p++;
80000c58:	8ec1                	or	a3,a3,s0
C:\NucleiStudio_workspace3\simple_world\Debug/../src/main.c:580
	*p = ((ip_head[3] & 0xff00)>>8)|((ip_head[3] & 0x00ff)<<8)|((ip_head[4] & 0xff00)<<8)|((ip_head[4] & 0x00ff)<<24); p++;
80000c5a:	0067aa23          	sw	t1,20(a5)
C:\NucleiStudio_workspace3\simple_world\Debug/../src/main.c:581
	*p = ((ip_head[5] & 0xff00)>>8)|((ip_head[5] & 0x00ff)<<8)|((ip_head[6] & 0xff00)<<8)|((ip_head[6] & 0x00ff)<<24); p++;
80000c5e:	0058e8b3          	or	a7,a7,t0
C:\NucleiStudio_workspace3\simple_world\Debug/../src/main.c:584
	*p = ((ip_head[11] & 0xff00)>>8)|((ip_head[11] & 0x00ff)<<8)|((ip_head[12] & 0xff00)<<8)|((ip_head[12] & 0x00ff)<<24); p++;
80000c62:	008e9313          	slli	t1,t4,0x8
C:\NucleiStudio_workspace3\simple_world\Debug/../src/main.c:583
	*p = ((ip_head[9] & 0xff00)>>8)|((ip_head[9] & 0x00ff)<<8)|((ip_head[10] & 0xff00)<<8)|((ip_head[10] & 0x00ff)<<24); p++;
80000c66:	01e4f2b3          	and	t0,s1,t5
C:\NucleiStudio_workspace3\simple_world\Debug/../src/main.c:582
	*p = ((ip_head[7] & 0xff00)>>8)|((ip_head[7] & 0x00ff)<<8)|((ip_head[8] & 0xff00)<<8)|((ip_head[8] & 0x00ff)<<24); p++;
80000c6a:	01286833          	or	a6,a6,s2
80000c6e:	03e2                	slli	t2,t2,0x18
C:\NucleiStudio_workspace3\simple_world\Debug/../src/main.c:583
	*p = ((ip_head[9] & 0xff00)>>8)|((ip_head[9] & 0x00ff)<<8)|((ip_head[10] & 0xff00)<<8)|((ip_head[10] & 0x00ff)<<24); p++;
80000c70:	8241                	srli	a2,a2,0x10
C:\NucleiStudio_workspace3\simple_world\Debug/../src/main.c:584
	*p = ((ip_head[11] & 0xff00)>>8)|((ip_head[11] & 0x00ff)<<8)|((ip_head[12] & 0xff00)<<8)|((ip_head[12] & 0x00ff)<<24); p++;
80000c72:	06c2                	slli	a3,a3,0x10
C:\NucleiStudio_workspace3\simple_world\Debug/../src/main.c:581
	*p = ((ip_head[5] & 0xff00)>>8)|((ip_head[5] & 0x00ff)<<8)|((ip_head[6] & 0xff00)<<8)|((ip_head[6] & 0x00ff)<<24); p++;
80000c74:	0117ac23          	sw	a7,24(a5)
C:\NucleiStudio_workspace3\simple_world\Debug/../src/main.c:582
	*p = ((ip_head[7] & 0xff00)>>8)|((ip_head[7] & 0x00ff)<<8)|((ip_head[8] & 0xff00)<<8)|((ip_head[8] & 0x00ff)<<24); p++;
80000c78:	00786833          	or	a6,a6,t2
C:\NucleiStudio_workspace3\simple_world\Debug/../src/main.c:583
	*p = ((ip_head[9] & 0xff00)>>8)|((ip_head[9] & 0x00ff)<<8)|((ip_head[10] & 0xff00)<<8)|((ip_head[10] & 0x00ff)<<24); p++;
80000c7c:	00566633          	or	a2,a2,t0
80000c80:	0fe2                	slli	t6,t6,0x18
C:\NucleiStudio_workspace3\simple_world\Debug/../src/main.c:584
	*p = ((ip_head[11] & 0xff00)>>8)|((ip_head[11] & 0x00ff)<<8)|((ip_head[12] & 0xff00)<<8)|((ip_head[12] & 0x00ff)<<24); p++;
80000c82:	82c1                	srli	a3,a3,0x10
80000c84:	01e37f33          	and	t5,t1,t5
C:\NucleiStudio_workspace3\simple_world\Debug/../src/main.c:582
	*p = ((ip_head[7] & 0xff00)>>8)|((ip_head[7] & 0x00ff)<<8)|((ip_head[8] & 0xff00)<<8)|((ip_head[8] & 0x00ff)<<24); p++;
80000c88:	0107ae23          	sw	a6,28(a5)
C:\NucleiStudio_workspace3\simple_world\Debug/../src/main.c:583
	*p = ((ip_head[9] & 0xff00)>>8)|((ip_head[9] & 0x00ff)<<8)|((ip_head[10] & 0xff00)<<8)|((ip_head[10] & 0x00ff)<<24); p++;
80000c8c:	01f66633          	or	a2,a2,t6
C:\NucleiStudio_workspace3\simple_world\Debug/../src/main.c:584
	*p = ((ip_head[11] & 0xff00)>>8)|((ip_head[11] & 0x00ff)<<8)|((ip_head[12] & 0xff00)<<8)|((ip_head[12] & 0x00ff)<<24); p++;
80000c90:	01e6e6b3          	or	a3,a3,t5
80000c94:	0ee2                	slli	t4,t4,0x18
C:\NucleiStudio_workspace3\simple_world\Debug/../src/main.c:583
	*p = ((ip_head[9] & 0xff00)>>8)|((ip_head[9] & 0x00ff)<<8)|((ip_head[10] & 0xff00)<<8)|((ip_head[10] & 0x00ff)<<24); p++;
80000c96:	d390                	sw	a2,32(a5)
C:\NucleiStudio_workspace3\simple_world\Debug/../src/main.c:584
	*p = ((ip_head[11] & 0xff00)>>8)|((ip_head[11] & 0x00ff)<<8)|((ip_head[12] & 0xff00)<<8)|((ip_head[12] & 0x00ff)<<24); p++;
80000c98:	01d6e6b3          	or	a3,a3,t4
80000c9c:	d3d4                	sw	a3,36(a5)
C:\NucleiStudio_workspace3\simple_world\Debug/../src/main.c:585
	*p = ((ip_head[13] & 0xff00)>>8)|((ip_head[13] & 0x00ff)<<8)|((*buf)<<16)|((*(buf+1))<<24); p++;
80000c9e:	03475603          	lhu	a2,52(a4)
80000ca2:	0015c803          	lbu	a6,1(a1)
80000ca6:	0005c703          	lbu	a4,0(a1)
80000caa:	00861693          	slli	a3,a2,0x8
80000cae:	8221                	srli	a2,a2,0x8
80000cb0:	8ed1                	or	a3,a3,a2
80000cb2:	0742                	slli	a4,a4,0x10
80000cb4:	0862                	slli	a6,a6,0x18
80000cb6:	06c2                	slli	a3,a3,0x10
80000cb8:	01076733          	or	a4,a4,a6
80000cbc:	82c1                	srli	a3,a3,0x10
80000cbe:	8f55                	or	a4,a4,a3
80000cc0:	d798                	sw	a4,40(a5)
C:\NucleiStudio_workspace3\simple_world\Debug/../src/main.c:587
	sum = 2;
	while (sum < data_len){
80000cc2:	4709                	li	a4,2
80000cc4:	06a77663          	bgeu	a4,a0,80000d30 <send_udp+0x2ba>
80000cc8:	ffd50893          	addi	a7,a0,-3
80000ccc:	04014737          	lui	a4,0x4014
80000cd0:	0028d893          	srli	a7,a7,0x2
80000cd4:	0731                	addi	a4,a4,12
C:\NucleiStudio_workspace3\simple_world\Debug/../src/main.c:590
		sum2 = *(buf+sum);
		sum++;
		if (sum<data_len)
80000cd6:	effb0337          	lui	t1,0xeffb0
80000cda:	98ba                	add	a7,a7,a4
80000cdc:	fd730f13          	addi	t5,t1,-41 # effaffd7 <_sp+0x5ff9ffd7>
C:\NucleiStudio_workspace3\simple_world\Debug/../src/main.c:593
			sum2 = sum2 | ((*(buf+sum))<<8);
		sum++;
		if (sum<data_len)
80000ce0:	fd830e93          	addi	t4,t1,-40
80000ce4:	0589                	addi	a1,a1,2
80000ce6:	088a                	slli	a7,a7,0x2
C:\NucleiStudio_workspace3\simple_world\Debug/../src/main.c:585
	*p = ((ip_head[13] & 0xff00)>>8)|((ip_head[13] & 0x00ff)<<8)|((*buf)<<16)|((*(buf+1))<<24); p++;
80000ce8:	02c78793          	addi	a5,a5,44
C:\NucleiStudio_workspace3\simple_world\Debug/../src/main.c:596
			sum2 = sum2 | ((*(buf+sum))<<16);
		sum++;
		if (sum<data_len)
80000cec:	fd930313          	addi	t1,t1,-39
C:\NucleiStudio_workspace3\simple_world\Debug/../src/main.c:590
		if (sum<data_len)
80000cf0:	01e786b3          	add	a3,a5,t5
C:\NucleiStudio_workspace3\simple_world\Debug/../src/main.c:593
		if (sum<data_len)
80000cf4:	01d78833          	add	a6,a5,t4
C:\NucleiStudio_workspace3\simple_world\Debug/../src/main.c:596
		if (sum<data_len)
80000cf8:	00678633          	add	a2,a5,t1
C:\NucleiStudio_workspace3\simple_world\Debug/../src/main.c:588
		sum2 = *(buf+sum);
80000cfc:	0005c703          	lbu	a4,0(a1)
C:\NucleiStudio_workspace3\simple_world\Debug/../src/main.c:590
		if (sum<data_len)
80000d00:	00a6f663          	bgeu	a3,a0,80000d0c <send_udp+0x296>
C:\NucleiStudio_workspace3\simple_world\Debug/../src/main.c:591
			sum2 = sum2 | ((*(buf+sum))<<8);
80000d04:	0015c683          	lbu	a3,1(a1)
80000d08:	06a2                	slli	a3,a3,0x8
80000d0a:	8f55                	or	a4,a4,a3
C:\NucleiStudio_workspace3\simple_world\Debug/../src/main.c:593
		if (sum<data_len)
80000d0c:	00a87663          	bgeu	a6,a0,80000d18 <send_udp+0x2a2>
C:\NucleiStudio_workspace3\simple_world\Debug/../src/main.c:594
			sum2 = sum2 | ((*(buf+sum))<<16);
80000d10:	0025c683          	lbu	a3,2(a1)
80000d14:	06c2                	slli	a3,a3,0x10
80000d16:	8f55                	or	a4,a4,a3
C:\NucleiStudio_workspace3\simple_world\Debug/../src/main.c:596
		if (sum<data_len)
80000d18:	00a67663          	bgeu	a2,a0,80000d24 <send_udp+0x2ae>
C:\NucleiStudio_workspace3\simple_world\Debug/../src/main.c:597
			sum2 = sum2 | ((*(buf+sum))<<24);
80000d1c:	0035c683          	lbu	a3,3(a1)
80000d20:	06e2                	slli	a3,a3,0x18
80000d22:	8f55                	or	a4,a4,a3
C:\NucleiStudio_workspace3\simple_world\Debug/../src/main.c:600
		sum++;
		*p = sum2;
		p++;
80000d24:	0791                	addi	a5,a5,4
C:\NucleiStudio_workspace3\simple_world\Debug/../src/main.c:599
		*p = sum2;
80000d26:	fee7ae23          	sw	a4,-4(a5)
C:\NucleiStudio_workspace3\simple_world\Debug/../src/main.c:600
		p++;
80000d2a:	0591                	addi	a1,a1,4
C:\NucleiStudio_workspace3\simple_world\Debug/../src/main.c:587
	while (sum < data_len){
80000d2c:	fcf892e3          	bne	a7,a5,80000cf0 <send_udp+0x27a>
C:\NucleiStudio_workspace3\simple_world\Debug/../src/main.c:604
	}

	p =(uint32_t*)TX_PING_LEN;
	*p = total_num+14;
80000d30:	100507b7          	lui	a5,0x10050
80000d34:	0e39                	addi	t3,t3,14
80000d36:	7fc7aa23          	sw	t3,2036(a5) # 100507f4 <__stack_size+0x1004fff4>
C:\NucleiStudio_workspace3\simple_world\Debug/../src/main.c:606
	p=(uint32_t*)TX_PING_CON;
	*p = 0x01;
80000d3a:	4705                	li	a4,1
80000d3c:	7ee7ae23          	sw	a4,2044(a5)
C:\NucleiStudio_workspace3\simple_world\Debug/../src/main.c:607
	pan = *p;
80000d40:	7fc7a783          	lw	a5,2044(a5)
C:\NucleiStudio_workspace3\simple_world\Debug/../src/main.c:609
	while ((pan & 0x01)  == 0x01){
		pan=*p;
80000d44:	10050737          	lui	a4,0x10050
C:\NucleiStudio_workspace3\simple_world\Debug/../src/main.c:607
	pan = *p;
80000d48:	c63e                	sw	a5,12(sp)
C:\NucleiStudio_workspace3\simple_world\Debug/../src/main.c:608
	while ((pan & 0x01)  == 0x01){
80000d4a:	47b2                	lw	a5,12(sp)
80000d4c:	8b85                	andi	a5,a5,1
80000d4e:	c799                	beqz	a5,80000d5c <send_udp+0x2e6>
C:\NucleiStudio_workspace3\simple_world\Debug/../src/main.c:609
		pan=*p;
80000d50:	7fc72783          	lw	a5,2044(a4) # 100507fc <__stack_size+0x1004fffc>
80000d54:	c63e                	sw	a5,12(sp)
C:\NucleiStudio_workspace3\simple_world\Debug/../src/main.c:608
	while ((pan & 0x01)  == 0x01){
80000d56:	47b2                	lw	a5,12(sp)
80000d58:	8b85                	andi	a5,a5,1
80000d5a:	fbfd                	bnez	a5,80000d50 <send_udp+0x2da>
C:\NucleiStudio_workspace3\simple_world\Debug/../src/main.c:612
	};
	//printf("send a pkt\n");
}
80000d5c:	5432                	lw	s0,44(sp)
80000d5e:	54a2                	lw	s1,40(sp)
80000d60:	5912                	lw	s2,36(sp)
80000d62:	5982                	lw	s3,32(sp)
80000d64:	4a72                	lw	s4,28(sp)
80000d66:	4ae2                	lw	s5,24(sp)
80000d68:	4b52                	lw	s6,20(sp)
80000d6a:	6145                	addi	sp,sp,48
80000d6c:	8082                	ret

80000d6e <upsampleCb>:
upsampleCb():
C:\NucleiStudio_workspace3\simple_world\Debug/../src/picojpeg.c:1496
// Cb upsample and accumulate, 4x4 to 8x8
static void upsampleCb(uint8 srcOfs, uint8 dstOfs)
{
   // Cb - affects G and B
   uint8 x, y;
   int16* pSrc = gCoeffBuf + srcOfs;
80000d6e:	9000afb7          	lui	t6,0x9000a
80000d72:	0506                	slli	a0,a0,0x1
80000d74:	71cf8f93          	addi	t6,t6,1820 # 9000a71c <_sp+0xffffa71c>
C:\NucleiStudio_workspace3\simple_world\Debug/../src/picojpeg.c:1497
   uint8* pDstG = gMCUBufG + dstOfs;
80000d78:	9000bf37          	lui	t5,0x9000b
C:\NucleiStudio_workspace3\simple_world\Debug/../src/picojpeg.c:1498
   uint8* pDstB = gMCUBufB + dstOfs;
80000d7c:	9000b7b7          	lui	a5,0x9000b
C:\NucleiStudio_workspace3\simple_world\Debug/../src/picojpeg.c:1496
   int16* pSrc = gCoeffBuf + srcOfs;
80000d80:	9faa                	add	t6,t6,a0
C:\NucleiStudio_workspace3\simple_world\Debug/../src/picojpeg.c:1493
{
80000d82:	1141                	addi	sp,sp,-16
C:\NucleiStudio_workspace3\simple_world\Debug/../src/picojpeg.c:1497
   uint8* pDstG = gMCUBufG + dstOfs;
80000d84:	cfcf0f13          	addi	t5,t5,-772 # 9000acfc <_sp+0xffffacfc>
C:\NucleiStudio_workspace3\simple_world\Debug/../src/picojpeg.c:1498
   uint8* pDstB = gMCUBufB + dstOfs;
80000d88:	bfc78793          	addi	a5,a5,-1028 # 9000abfc <_sp+0xffffabfc>
C:\NucleiStudio_workspace3\simple_world\Debug/../src/picojpeg.c:1497
   uint8* pDstG = gMCUBufG + dstOfs;
80000d8c:	9f2e                	add	t5,t5,a1
C:\NucleiStudio_workspace3\simple_world\Debug/../src/picojpeg.c:1498
   uint8* pDstB = gMCUBufB + dstOfs;
80000d8e:	008f8313          	addi	t1,t6,8
C:\NucleiStudio_workspace3\simple_world\Debug/../src/picojpeg.c:1493
{
80000d92:	c622                	sw	s0,12(sp)
C:\NucleiStudio_workspace3\simple_world\Debug/../src/picojpeg.c:1498
   uint8* pDstB = gMCUBufB + dstOfs;
80000d94:	95be                	add	a1,a1,a5
C:\NucleiStudio_workspace3\simple_world\Debug/../src/picojpeg.c:1499
   for (y = 0; y < 4; y++)
80000d96:	048f8f93          	addi	t6,t6,72
C:\NucleiStudio_workspace3\simple_world\Debug/../src/picojpeg.c:1506
      for (x = 0; x < 4; x++)
      {
         uint8 cb = (uint8)*pSrc++;
         int16 cbG, cbB;

         cbG = ((cb * 88U) >> 8U) - 44U;
80000d9a:	05800e93          	li	t4,88
subAndClamp():
C:\NucleiStudio_workspace3\simple_world\Debug/../src/picojpeg.c:1471
   if ((uint16)b > 255U)
80000d9e:	0ff00693          	li	a3,255
upsampleCb():
C:\NucleiStudio_workspace3\simple_world\Debug/../src/picojpeg.c:1512
         pDstG[0] = subAndClamp(pDstG[0], cbG);
         pDstG[1] = subAndClamp(pDstG[1], cbG);
         pDstG[8] = subAndClamp(pDstG[8], cbG);
         pDstG[9] = subAndClamp(pDstG[9], cbG);

         cbB = (cb + ((cb * 198U) >> 8U)) - 227U;
80000da2:	0c600e13          	li	t3,198
80000da6:	ff830893          	addi	a7,t1,-8
C:\NucleiStudio_workspace3\simple_world\Debug/../src/picojpeg.c:1493
{
80000daa:	882e                	mv	a6,a1
80000dac:	857a                	mv	a0,t5
C:\NucleiStudio_workspace3\simple_world\Debug/../src/picojpeg.c:1503 (discriminator 3)
         uint8 cb = (uint8)*pSrc++;
80000dae:	0889                	addi	a7,a7,2
80000db0:	ffe89703          	lh	a4,-2(a7)
subAndClamp():
C:\NucleiStudio_workspace3\simple_world\Debug/../src/picojpeg.c:1469 (discriminator 3)
   b = a - b;
80000db4:	00054283          	lbu	t0,0(a0)
upsampleCb():
C:\NucleiStudio_workspace3\simple_world\Debug/../src/picojpeg.c:1506 (discriminator 3)
         cbG = ((cb * 88U) >> 8U) - 44U;
80000db8:	0ff77793          	andi	a5,a4,255
80000dbc:	03d783b3          	mul	t2,a5,t4
80000dc0:	0083d393          	srli	t2,t2,0x8
80000dc4:	fd438393          	addi	t2,t2,-44
80000dc8:	01039613          	slli	a2,t2,0x10
80000dcc:	8241                	srli	a2,a2,0x10
subAndClamp():
C:\NucleiStudio_workspace3\simple_world\Debug/../src/picojpeg.c:1469 (discriminator 3)
   b = a - b;
80000dce:	40c282b3          	sub	t0,t0,a2
80000dd2:	02c2                	slli	t0,t0,0x10
80000dd4:	0102d293          	srli	t0,t0,0x10
C:\NucleiStudio_workspace3\simple_world\Debug/../src/picojpeg.c:1471 (discriminator 3)
   if ((uint16)b > 255U)
80000dd8:	0056fc63          	bgeu	a3,t0,80000df0 <upsampleCb+0x82>
C:\NucleiStudio_workspace3\simple_world\Debug/../src/picojpeg.c:1469
   b = a - b;
80000ddc:	01029413          	slli	s0,t0,0x10
80000de0:	8441                	srai	s0,s0,0x10
C:\NucleiStudio_workspace3\simple_world\Debug/../src/picojpeg.c:1474
         return 0;
80000de2:	4381                	li	t2,0
C:\NucleiStudio_workspace3\simple_world\Debug/../src/picojpeg.c:1473
      if (b < 0)
80000de4:	00044863          	bltz	s0,80000df4 <upsampleCb+0x86>
C:\NucleiStudio_workspace3\simple_world\Debug/../src/picojpeg.c:1476
         return 255;
80000de8:	0ff00393          	li	t2,255
C:\NucleiStudio_workspace3\simple_world\Debug/../src/picojpeg.c:1475
      else if (b > 255)
80000dec:	0086c463          	blt	a3,s0,80000df4 <upsampleCb+0x86>
C:\NucleiStudio_workspace3\simple_world\Debug/../src/picojpeg.c:1479
   return (uint8)b;
80000df0:	0ff2f393          	andi	t2,t0,255
C:\NucleiStudio_workspace3\simple_world\Debug/../src/picojpeg.c:1469
   b = a - b;
80000df4:	00154283          	lbu	t0,1(a0)
upsampleCb():
C:\NucleiStudio_workspace3\simple_world\Debug/../src/picojpeg.c:1507
         pDstG[0] = subAndClamp(pDstG[0], cbG);
80000df8:	00750023          	sb	t2,0(a0)
subAndClamp():
C:\NucleiStudio_workspace3\simple_world\Debug/../src/picojpeg.c:1469
   b = a - b;
80000dfc:	40c282b3          	sub	t0,t0,a2
80000e00:	02c2                	slli	t0,t0,0x10
80000e02:	0102d293          	srli	t0,t0,0x10
C:\NucleiStudio_workspace3\simple_world\Debug/../src/picojpeg.c:1471
   if ((uint16)b > 255U)
80000e06:	0056fc63          	bgeu	a3,t0,80000e1e <upsampleCb+0xb0>
C:\NucleiStudio_workspace3\simple_world\Debug/../src/picojpeg.c:1469
   b = a - b;
80000e0a:	01029413          	slli	s0,t0,0x10
80000e0e:	8441                	srai	s0,s0,0x10
C:\NucleiStudio_workspace3\simple_world\Debug/../src/picojpeg.c:1474
         return 0;
80000e10:	4381                	li	t2,0
C:\NucleiStudio_workspace3\simple_world\Debug/../src/picojpeg.c:1473
      if (b < 0)
80000e12:	00044863          	bltz	s0,80000e22 <upsampleCb+0xb4>
C:\NucleiStudio_workspace3\simple_world\Debug/../src/picojpeg.c:1476
         return 255;
80000e16:	0ff00393          	li	t2,255
C:\NucleiStudio_workspace3\simple_world\Debug/../src/picojpeg.c:1475
      else if (b > 255)
80000e1a:	0086c463          	blt	a3,s0,80000e22 <upsampleCb+0xb4>
C:\NucleiStudio_workspace3\simple_world\Debug/../src/picojpeg.c:1479
   return (uint8)b;
80000e1e:	0ff2f393          	andi	t2,t0,255
C:\NucleiStudio_workspace3\simple_world\Debug/../src/picojpeg.c:1469
   b = a - b;
80000e22:	00854283          	lbu	t0,8(a0)
upsampleCb():
C:\NucleiStudio_workspace3\simple_world\Debug/../src/picojpeg.c:1508
         pDstG[1] = subAndClamp(pDstG[1], cbG);
80000e26:	007500a3          	sb	t2,1(a0)
subAndClamp():
C:\NucleiStudio_workspace3\simple_world\Debug/../src/picojpeg.c:1469
   b = a - b;
80000e2a:	40c282b3          	sub	t0,t0,a2
80000e2e:	02c2                	slli	t0,t0,0x10
80000e30:	0102d293          	srli	t0,t0,0x10
C:\NucleiStudio_workspace3\simple_world\Debug/../src/picojpeg.c:1471
   if ((uint16)b > 255U)
80000e34:	0056fc63          	bgeu	a3,t0,80000e4c <upsampleCb+0xde>
C:\NucleiStudio_workspace3\simple_world\Debug/../src/picojpeg.c:1469
   b = a - b;
80000e38:	01029413          	slli	s0,t0,0x10
80000e3c:	8441                	srai	s0,s0,0x10
C:\NucleiStudio_workspace3\simple_world\Debug/../src/picojpeg.c:1474
         return 0;
80000e3e:	4381                	li	t2,0
C:\NucleiStudio_workspace3\simple_world\Debug/../src/picojpeg.c:1473
      if (b < 0)
80000e40:	00044863          	bltz	s0,80000e50 <upsampleCb+0xe2>
C:\NucleiStudio_workspace3\simple_world\Debug/../src/picojpeg.c:1476
         return 255;
80000e44:	0ff00393          	li	t2,255
C:\NucleiStudio_workspace3\simple_world\Debug/../src/picojpeg.c:1475
      else if (b > 255)
80000e48:	0086c463          	blt	a3,s0,80000e50 <upsampleCb+0xe2>
C:\NucleiStudio_workspace3\simple_world\Debug/../src/picojpeg.c:1479
   return (uint8)b;
80000e4c:	0ff2f393          	andi	t2,t0,255
C:\NucleiStudio_workspace3\simple_world\Debug/../src/picojpeg.c:1469
   b = a - b;
80000e50:	00954283          	lbu	t0,9(a0)
upsampleCb():
C:\NucleiStudio_workspace3\simple_world\Debug/../src/picojpeg.c:1509
         pDstG[8] = subAndClamp(pDstG[8], cbG);
80000e54:	00750423          	sb	t2,8(a0)
subAndClamp():
C:\NucleiStudio_workspace3\simple_world\Debug/../src/picojpeg.c:1469
   b = a - b;
80000e58:	40c28633          	sub	a2,t0,a2
80000e5c:	0642                	slli	a2,a2,0x10
80000e5e:	8241                	srli	a2,a2,0x10
C:\NucleiStudio_workspace3\simple_world\Debug/../src/picojpeg.c:1471
   if ((uint16)b > 255U)
80000e60:	00c6fd63          	bgeu	a3,a2,80000e7a <upsampleCb+0x10c>
C:\NucleiStudio_workspace3\simple_world\Debug/../src/picojpeg.c:1469
   b = a - b;
80000e64:	01061393          	slli	t2,a2,0x10
80000e68:	4103d393          	srai	t2,t2,0x10
C:\NucleiStudio_workspace3\simple_world\Debug/../src/picojpeg.c:1474
         return 0;
80000e6c:	4281                	li	t0,0
C:\NucleiStudio_workspace3\simple_world\Debug/../src/picojpeg.c:1473
      if (b < 0)
80000e6e:	0003c863          	bltz	t2,80000e7e <upsampleCb+0x110>
C:\NucleiStudio_workspace3\simple_world\Debug/../src/picojpeg.c:1476
         return 255;
80000e72:	0ff00293          	li	t0,255
C:\NucleiStudio_workspace3\simple_world\Debug/../src/picojpeg.c:1475
      else if (b > 255)
80000e76:	0076c463          	blt	a3,t2,80000e7e <upsampleCb+0x110>
C:\NucleiStudio_workspace3\simple_world\Debug/../src/picojpeg.c:1479
   return (uint8)b;
80000e7a:	0ff67293          	andi	t0,a2,255
upsampleCb():
C:\NucleiStudio_workspace3\simple_world\Debug/../src/picojpeg.c:1512
         cbB = (cb + ((cb * 198U) >> 8U)) - 227U;
80000e7e:	03c78633          	mul	a2,a5,t3
80000e82:	0ff77793          	andi	a5,a4,255
80000e86:	f1d78793          	addi	a5,a5,-227
addAndClamp():
C:\NucleiStudio_workspace3\simple_world\Debug/../src/picojpeg.c:1454
   b = a + b;
80000e8a:	00084703          	lbu	a4,0(a6)
upsampleCb():
C:\NucleiStudio_workspace3\simple_world\Debug/../src/picojpeg.c:1510
         pDstG[9] = subAndClamp(pDstG[9], cbG);
80000e8e:	005504a3          	sb	t0,9(a0)
C:\NucleiStudio_workspace3\simple_world\Debug/../src/picojpeg.c:1512
         cbB = (cb + ((cb * 198U) >> 8U)) - 227U;
80000e92:	8221                	srli	a2,a2,0x8
80000e94:	97b2                	add	a5,a5,a2
80000e96:	07c2                	slli	a5,a5,0x10
80000e98:	83c1                	srli	a5,a5,0x10
addAndClamp():
C:\NucleiStudio_workspace3\simple_world\Debug/../src/picojpeg.c:1454
   b = a + b;
80000e9a:	973e                	add	a4,a4,a5
80000e9c:	0742                	slli	a4,a4,0x10
80000e9e:	8341                	srli	a4,a4,0x10
C:\NucleiStudio_workspace3\simple_world\Debug/../src/picojpeg.c:1456
   if ((uint16)b > 255U)
80000ea0:	00e6fd63          	bgeu	a3,a4,80000eba <upsampleCb+0x14c>
C:\NucleiStudio_workspace3\simple_world\Debug/../src/picojpeg.c:1454
   b = a + b;
80000ea4:	01071293          	slli	t0,a4,0x10
80000ea8:	4102d293          	srai	t0,t0,0x10
C:\NucleiStudio_workspace3\simple_world\Debug/../src/picojpeg.c:1459
         return 0;
80000eac:	4601                	li	a2,0
C:\NucleiStudio_workspace3\simple_world\Debug/../src/picojpeg.c:1458
      if (b < 0)
80000eae:	0002c863          	bltz	t0,80000ebe <upsampleCb+0x150>
C:\NucleiStudio_workspace3\simple_world\Debug/../src/picojpeg.c:1461
         return 255;
80000eb2:	0ff00613          	li	a2,255
C:\NucleiStudio_workspace3\simple_world\Debug/../src/picojpeg.c:1460
      else if (b > 255)
80000eb6:	0056c463          	blt	a3,t0,80000ebe <upsampleCb+0x150>
C:\NucleiStudio_workspace3\simple_world\Debug/../src/picojpeg.c:1464
   return (uint8)b;
80000eba:	0ff77613          	andi	a2,a4,255
C:\NucleiStudio_workspace3\simple_world\Debug/../src/picojpeg.c:1454
   b = a + b;
80000ebe:	00184703          	lbu	a4,1(a6)
upsampleCb():
C:\NucleiStudio_workspace3\simple_world\Debug/../src/picojpeg.c:1513
         pDstB[0] = addAndClamp(pDstB[0], cbB);
80000ec2:	00c80023          	sb	a2,0(a6)
addAndClamp():
C:\NucleiStudio_workspace3\simple_world\Debug/../src/picojpeg.c:1454
   b = a + b;
80000ec6:	973e                	add	a4,a4,a5
80000ec8:	0742                	slli	a4,a4,0x10
80000eca:	8341                	srli	a4,a4,0x10
C:\NucleiStudio_workspace3\simple_world\Debug/../src/picojpeg.c:1456
   if ((uint16)b > 255U)
80000ecc:	00e6fd63          	bgeu	a3,a4,80000ee6 <upsampleCb+0x178>
C:\NucleiStudio_workspace3\simple_world\Debug/../src/picojpeg.c:1454
   b = a + b;
80000ed0:	01071293          	slli	t0,a4,0x10
80000ed4:	4102d293          	srai	t0,t0,0x10
C:\NucleiStudio_workspace3\simple_world\Debug/../src/picojpeg.c:1459
         return 0;
80000ed8:	4601                	li	a2,0
C:\NucleiStudio_workspace3\simple_world\Debug/../src/picojpeg.c:1458
      if (b < 0)
80000eda:	0002c863          	bltz	t0,80000eea <upsampleCb+0x17c>
C:\NucleiStudio_workspace3\simple_world\Debug/../src/picojpeg.c:1461
         return 255;
80000ede:	0ff00613          	li	a2,255
C:\NucleiStudio_workspace3\simple_world\Debug/../src/picojpeg.c:1460
      else if (b > 255)
80000ee2:	0056c463          	blt	a3,t0,80000eea <upsampleCb+0x17c>
C:\NucleiStudio_workspace3\simple_world\Debug/../src/picojpeg.c:1464
   return (uint8)b;
80000ee6:	0ff77613          	andi	a2,a4,255
C:\NucleiStudio_workspace3\simple_world\Debug/../src/picojpeg.c:1454
   b = a + b;
80000eea:	00884703          	lbu	a4,8(a6)
upsampleCb():
C:\NucleiStudio_workspace3\simple_world\Debug/../src/picojpeg.c:1514
         pDstB[1] = addAndClamp(pDstB[1], cbB);
80000eee:	00c800a3          	sb	a2,1(a6)
addAndClamp():
C:\NucleiStudio_workspace3\simple_world\Debug/../src/picojpeg.c:1454
   b = a + b;
80000ef2:	973e                	add	a4,a4,a5
80000ef4:	0742                	slli	a4,a4,0x10
80000ef6:	8341                	srli	a4,a4,0x10
C:\NucleiStudio_workspace3\simple_world\Debug/../src/picojpeg.c:1456
   if ((uint16)b > 255U)
80000ef8:	00e6fd63          	bgeu	a3,a4,80000f12 <upsampleCb+0x1a4>
C:\NucleiStudio_workspace3\simple_world\Debug/../src/picojpeg.c:1454
   b = a + b;
80000efc:	01071293          	slli	t0,a4,0x10
80000f00:	4102d293          	srai	t0,t0,0x10
C:\NucleiStudio_workspace3\simple_world\Debug/../src/picojpeg.c:1459
         return 0;
80000f04:	4601                	li	a2,0
C:\NucleiStudio_workspace3\simple_world\Debug/../src/picojpeg.c:1458
      if (b < 0)
80000f06:	0002c863          	bltz	t0,80000f16 <upsampleCb+0x1a8>
C:\NucleiStudio_workspace3\simple_world\Debug/../src/picojpeg.c:1461
         return 255;
80000f0a:	0ff00613          	li	a2,255
C:\NucleiStudio_workspace3\simple_world\Debug/../src/picojpeg.c:1460
      else if (b > 255)
80000f0e:	0056c463          	blt	a3,t0,80000f16 <upsampleCb+0x1a8>
C:\NucleiStudio_workspace3\simple_world\Debug/../src/picojpeg.c:1464
   return (uint8)b;
80000f12:	0ff77613          	andi	a2,a4,255
C:\NucleiStudio_workspace3\simple_world\Debug/../src/picojpeg.c:1454
   b = a + b;
80000f16:	00984703          	lbu	a4,9(a6)
upsampleCb():
C:\NucleiStudio_workspace3\simple_world\Debug/../src/picojpeg.c:1515
         pDstB[8] = addAndClamp(pDstB[8], cbB);
80000f1a:	00c80423          	sb	a2,8(a6)
addAndClamp():
C:\NucleiStudio_workspace3\simple_world\Debug/../src/picojpeg.c:1454
   b = a + b;
80000f1e:	97ba                	add	a5,a5,a4
80000f20:	07c2                	slli	a5,a5,0x10
80000f22:	83c1                	srli	a5,a5,0x10
C:\NucleiStudio_workspace3\simple_world\Debug/../src/picojpeg.c:1456
   if ((uint16)b > 255U)
80000f24:	00f6fc63          	bgeu	a3,a5,80000f3c <upsampleCb+0x1ce>
C:\NucleiStudio_workspace3\simple_world\Debug/../src/picojpeg.c:1454
   b = a + b;
80000f28:	01079613          	slli	a2,a5,0x10
80000f2c:	8641                	srai	a2,a2,0x10
C:\NucleiStudio_workspace3\simple_world\Debug/../src/picojpeg.c:1459
         return 0;
80000f2e:	4701                	li	a4,0
C:\NucleiStudio_workspace3\simple_world\Debug/../src/picojpeg.c:1458
      if (b < 0)
80000f30:	00064863          	bltz	a2,80000f40 <upsampleCb+0x1d2>
C:\NucleiStudio_workspace3\simple_world\Debug/../src/picojpeg.c:1461
         return 255;
80000f34:	0ff00713          	li	a4,255
C:\NucleiStudio_workspace3\simple_world\Debug/../src/picojpeg.c:1460
      else if (b > 255)
80000f38:	00c6c463          	blt	a3,a2,80000f40 <upsampleCb+0x1d2>
C:\NucleiStudio_workspace3\simple_world\Debug/../src/picojpeg.c:1464
   return (uint8)b;
80000f3c:	0ff7f713          	andi	a4,a5,255
upsampleCb():
C:\NucleiStudio_workspace3\simple_world\Debug/../src/picojpeg.c:1516
         pDstB[9] = addAndClamp(pDstB[9], cbB);
80000f40:	00e804a3          	sb	a4,9(a6)
C:\NucleiStudio_workspace3\simple_world\Debug/../src/picojpeg.c:1518

         pDstG += 2;
80000f44:	0509                	addi	a0,a0,2
C:\NucleiStudio_workspace3\simple_world\Debug/../src/picojpeg.c:1519
         pDstB += 2;
80000f46:	0809                	addi	a6,a6,2
C:\NucleiStudio_workspace3\simple_world\Debug/../src/picojpeg.c:1501
      for (x = 0; x < 4; x++)
80000f48:	e66893e3          	bne	a7,t1,80000dae <upsampleCb+0x40>
C:\NucleiStudio_workspace3\simple_world\Debug/../src/picojpeg.c:1523 (discriminator 2)
      }

      pSrc = pSrc - 4 + 8;
      pDstG = pDstG - 8 + 16;
80000f4c:	01088313          	addi	t1,a7,16
80000f50:	0f41                	addi	t5,t5,16
C:\NucleiStudio_workspace3\simple_world\Debug/../src/picojpeg.c:1524 (discriminator 2)
      pDstB = pDstB - 8 + 16;
80000f52:	05c1                	addi	a1,a1,16
C:\NucleiStudio_workspace3\simple_world\Debug/../src/picojpeg.c:1499 (discriminator 2)
   for (y = 0; y < 4; y++)
80000f54:	e46f99e3          	bne	t6,t1,80000da6 <upsampleCb+0x38>
C:\NucleiStudio_workspace3\simple_world\Debug/../src/picojpeg.c:1526
   }
}   
80000f58:	4432                	lw	s0,12(sp)
80000f5a:	0141                	addi	sp,sp,16
80000f5c:	8082                	ret

80000f5e <upsampleCbH>:
upsampleCbH():
C:\NucleiStudio_workspace3\simple_world\Debug/../src/picojpeg.c:1533
// Cb upsample and accumulate, 4x8 to 8x8
static void upsampleCbH(uint8 srcOfs, uint8 dstOfs)
{
   // Cb - affects G and B
   uint8 x, y;
   int16* pSrc = gCoeffBuf + srcOfs;
80000f5e:	9000a2b7          	lui	t0,0x9000a
80000f62:	0506                	slli	a0,a0,0x1
80000f64:	71c28293          	addi	t0,t0,1820 # 9000a71c <_sp+0xffffa71c>
C:\NucleiStudio_workspace3\simple_world\Debug/../src/picojpeg.c:1534
   uint8* pDstG = gMCUBufG + dstOfs;
80000f68:	9000bfb7          	lui	t6,0x9000b
C:\NucleiStudio_workspace3\simple_world\Debug/../src/picojpeg.c:1535
   uint8* pDstB = gMCUBufB + dstOfs;
80000f6c:	9000b7b7          	lui	a5,0x9000b
C:\NucleiStudio_workspace3\simple_world\Debug/../src/picojpeg.c:1533
   int16* pSrc = gCoeffBuf + srcOfs;
80000f70:	92aa                	add	t0,t0,a0
C:\NucleiStudio_workspace3\simple_world\Debug/../src/picojpeg.c:1530
{
80000f72:	1141                	addi	sp,sp,-16
C:\NucleiStudio_workspace3\simple_world\Debug/../src/picojpeg.c:1534
   uint8* pDstG = gMCUBufG + dstOfs;
80000f74:	cfcf8f93          	addi	t6,t6,-772 # 9000acfc <_sp+0xffffacfc>
C:\NucleiStudio_workspace3\simple_world\Debug/../src/picojpeg.c:1535
   uint8* pDstB = gMCUBufB + dstOfs;
80000f78:	bfc78793          	addi	a5,a5,-1028 # 9000abfc <_sp+0xffffabfc>
C:\NucleiStudio_workspace3\simple_world\Debug/../src/picojpeg.c:1534
   uint8* pDstG = gMCUBufG + dstOfs;
80000f7c:	9fae                	add	t6,t6,a1
C:\NucleiStudio_workspace3\simple_world\Debug/../src/picojpeg.c:1535
   uint8* pDstB = gMCUBufB + dstOfs;
80000f7e:	00828e13          	addi	t3,t0,8
C:\NucleiStudio_workspace3\simple_world\Debug/../src/picojpeg.c:1530
{
80000f82:	c622                	sw	s0,12(sp)
C:\NucleiStudio_workspace3\simple_world\Debug/../src/picojpeg.c:1535
   uint8* pDstB = gMCUBufB + dstOfs;
80000f84:	95be                	add	a1,a1,a5
C:\NucleiStudio_workspace3\simple_world\Debug/../src/picojpeg.c:1536
   for (y = 0; y < 8; y++)
80000f86:	08828293          	addi	t0,t0,136
C:\NucleiStudio_workspace3\simple_world\Debug/../src/picojpeg.c:1543
      for (x = 0; x < 4; x++)
      {
         uint8 cb = (uint8)*pSrc++;
         int16 cbG, cbB;

         cbG = ((cb * 88U) >> 8U) - 44U;
80000f8a:	05800f13          	li	t5,88
subAndClamp():
C:\NucleiStudio_workspace3\simple_world\Debug/../src/picojpeg.c:1471
   if ((uint16)b > 255U)
80000f8e:	0ff00893          	li	a7,255
upsampleCbH():
C:\NucleiStudio_workspace3\simple_world\Debug/../src/picojpeg.c:1547
         pDstG[0] = subAndClamp(pDstG[0], cbG);
         pDstG[1] = subAndClamp(pDstG[1], cbG);

         cbB = (cb + ((cb * 198U) >> 8U)) - 227U;
80000f92:	0c600e93          	li	t4,198
80000f96:	ff8e0313          	addi	t1,t3,-8
C:\NucleiStudio_workspace3\simple_world\Debug/../src/picojpeg.c:1530
{
80000f9a:	882e                	mv	a6,a1
80000f9c:	857e                	mv	a0,t6
C:\NucleiStudio_workspace3\simple_world\Debug/../src/picojpeg.c:1540 (discriminator 3)
         uint8 cb = (uint8)*pSrc++;
80000f9e:	0309                	addi	t1,t1,2
80000fa0:	ffe31703          	lh	a4,-2(t1)
subAndClamp():
C:\NucleiStudio_workspace3\simple_world\Debug/../src/picojpeg.c:1469 (discriminator 3)
   b = a - b;
80000fa4:	00054603          	lbu	a2,0(a0)
upsampleCbH():
C:\NucleiStudio_workspace3\simple_world\Debug/../src/picojpeg.c:1543 (discriminator 3)
         cbG = ((cb * 88U) >> 8U) - 44U;
80000fa8:	0ff77793          	andi	a5,a4,255
80000fac:	03e786b3          	mul	a3,a5,t5
80000fb0:	82a1                	srli	a3,a3,0x8
80000fb2:	fd468693          	addi	a3,a3,-44
80000fb6:	06c2                	slli	a3,a3,0x10
80000fb8:	82c1                	srli	a3,a3,0x10
subAndClamp():
C:\NucleiStudio_workspace3\simple_world\Debug/../src/picojpeg.c:1469 (discriminator 3)
   b = a - b;
80000fba:	8e15                	sub	a2,a2,a3
80000fbc:	0642                	slli	a2,a2,0x10
80000fbe:	8241                	srli	a2,a2,0x10
C:\NucleiStudio_workspace3\simple_world\Debug/../src/picojpeg.c:1471 (discriminator 3)
   if ((uint16)b > 255U)
80000fc0:	00c8fc63          	bgeu	a7,a2,80000fd8 <upsampleCbH+0x7a>
C:\NucleiStudio_workspace3\simple_world\Debug/../src/picojpeg.c:1469
   b = a - b;
80000fc4:	01061413          	slli	s0,a2,0x10
80000fc8:	8441                	srai	s0,s0,0x10
C:\NucleiStudio_workspace3\simple_world\Debug/../src/picojpeg.c:1474
         return 0;
80000fca:	4381                	li	t2,0
C:\NucleiStudio_workspace3\simple_world\Debug/../src/picojpeg.c:1473
      if (b < 0)
80000fcc:	00044863          	bltz	s0,80000fdc <upsampleCbH+0x7e>
C:\NucleiStudio_workspace3\simple_world\Debug/../src/picojpeg.c:1476
         return 255;
80000fd0:	0ff00393          	li	t2,255
C:\NucleiStudio_workspace3\simple_world\Debug/../src/picojpeg.c:1475
      else if (b > 255)
80000fd4:	0088c463          	blt	a7,s0,80000fdc <upsampleCbH+0x7e>
C:\NucleiStudio_workspace3\simple_world\Debug/../src/picojpeg.c:1479
   return (uint8)b;
80000fd8:	0ff67393          	andi	t2,a2,255
C:\NucleiStudio_workspace3\simple_world\Debug/../src/picojpeg.c:1469
   b = a - b;
80000fdc:	00154603          	lbu	a2,1(a0)
upsampleCbH():
C:\NucleiStudio_workspace3\simple_world\Debug/../src/picojpeg.c:1544
         pDstG[0] = subAndClamp(pDstG[0], cbG);
80000fe0:	00750023          	sb	t2,0(a0)
subAndClamp():
C:\NucleiStudio_workspace3\simple_world\Debug/../src/picojpeg.c:1469
   b = a - b;
80000fe4:	40d606b3          	sub	a3,a2,a3
80000fe8:	06c2                	slli	a3,a3,0x10
80000fea:	82c1                	srli	a3,a3,0x10
C:\NucleiStudio_workspace3\simple_world\Debug/../src/picojpeg.c:1471
   if ((uint16)b > 255U)
80000fec:	00d8fd63          	bgeu	a7,a3,80001006 <upsampleCbH+0xa8>
C:\NucleiStudio_workspace3\simple_world\Debug/../src/picojpeg.c:1469
   b = a - b;
80000ff0:	01069393          	slli	t2,a3,0x10
80000ff4:	4103d393          	srai	t2,t2,0x10
C:\NucleiStudio_workspace3\simple_world\Debug/../src/picojpeg.c:1474
         return 0;
80000ff8:	4601                	li	a2,0
C:\NucleiStudio_workspace3\simple_world\Debug/../src/picojpeg.c:1473
      if (b < 0)
80000ffa:	0003c863          	bltz	t2,8000100a <upsampleCbH+0xac>
C:\NucleiStudio_workspace3\simple_world\Debug/../src/picojpeg.c:1476
         return 255;
80000ffe:	0ff00613          	li	a2,255
C:\NucleiStudio_workspace3\simple_world\Debug/../src/picojpeg.c:1475
      else if (b > 255)
80001002:	0078c463          	blt	a7,t2,8000100a <upsampleCbH+0xac>
C:\NucleiStudio_workspace3\simple_world\Debug/../src/picojpeg.c:1479
   return (uint8)b;
80001006:	0ff6f613          	andi	a2,a3,255
upsampleCbH():
C:\NucleiStudio_workspace3\simple_world\Debug/../src/picojpeg.c:1547
         cbB = (cb + ((cb * 198U) >> 8U)) - 227U;
8000100a:	03d786b3          	mul	a3,a5,t4
8000100e:	0ff77793          	andi	a5,a4,255
80001012:	f1d78793          	addi	a5,a5,-227
addAndClamp():
C:\NucleiStudio_workspace3\simple_world\Debug/../src/picojpeg.c:1454
   b = a + b;
80001016:	00084703          	lbu	a4,0(a6)
upsampleCbH():
C:\NucleiStudio_workspace3\simple_world\Debug/../src/picojpeg.c:1545
         pDstG[1] = subAndClamp(pDstG[1], cbG);
8000101a:	00c500a3          	sb	a2,1(a0)
C:\NucleiStudio_workspace3\simple_world\Debug/../src/picojpeg.c:1547
         cbB = (cb + ((cb * 198U) >> 8U)) - 227U;
8000101e:	82a1                	srli	a3,a3,0x8
80001020:	97b6                	add	a5,a5,a3
80001022:	07c2                	slli	a5,a5,0x10
80001024:	83c1                	srli	a5,a5,0x10
addAndClamp():
C:\NucleiStudio_workspace3\simple_world\Debug/../src/picojpeg.c:1454
   b = a + b;
80001026:	973e                	add	a4,a4,a5
80001028:	0742                	slli	a4,a4,0x10
8000102a:	8341                	srli	a4,a4,0x10
C:\NucleiStudio_workspace3\simple_world\Debug/../src/picojpeg.c:1456
   if ((uint16)b > 255U)
8000102c:	00e8fc63          	bgeu	a7,a4,80001044 <upsampleCbH+0xe6>
C:\NucleiStudio_workspace3\simple_world\Debug/../src/picojpeg.c:1454
   b = a + b;
80001030:	01071613          	slli	a2,a4,0x10
80001034:	8641                	srai	a2,a2,0x10
C:\NucleiStudio_workspace3\simple_world\Debug/../src/picojpeg.c:1459
         return 0;
80001036:	4681                	li	a3,0
C:\NucleiStudio_workspace3\simple_world\Debug/../src/picojpeg.c:1458
      if (b < 0)
80001038:	00064863          	bltz	a2,80001048 <upsampleCbH+0xea>
C:\NucleiStudio_workspace3\simple_world\Debug/../src/picojpeg.c:1461
         return 255;
8000103c:	0ff00693          	li	a3,255
C:\NucleiStudio_workspace3\simple_world\Debug/../src/picojpeg.c:1460
      else if (b > 255)
80001040:	00c8c463          	blt	a7,a2,80001048 <upsampleCbH+0xea>
C:\NucleiStudio_workspace3\simple_world\Debug/../src/picojpeg.c:1464
   return (uint8)b;
80001044:	0ff77693          	andi	a3,a4,255
C:\NucleiStudio_workspace3\simple_world\Debug/../src/picojpeg.c:1454
   b = a + b;
80001048:	00184703          	lbu	a4,1(a6)
upsampleCbH():
C:\NucleiStudio_workspace3\simple_world\Debug/../src/picojpeg.c:1548
         pDstB[0] = addAndClamp(pDstB[0], cbB);
8000104c:	00d80023          	sb	a3,0(a6)
addAndClamp():
C:\NucleiStudio_workspace3\simple_world\Debug/../src/picojpeg.c:1454
   b = a + b;
80001050:	97ba                	add	a5,a5,a4
80001052:	07c2                	slli	a5,a5,0x10
80001054:	83c1                	srli	a5,a5,0x10
C:\NucleiStudio_workspace3\simple_world\Debug/../src/picojpeg.c:1456
   if ((uint16)b > 255U)
80001056:	00f8fc63          	bgeu	a7,a5,8000106e <upsampleCbH+0x110>
C:\NucleiStudio_workspace3\simple_world\Debug/../src/picojpeg.c:1454
   b = a + b;
8000105a:	01079693          	slli	a3,a5,0x10
8000105e:	86c1                	srai	a3,a3,0x10
C:\NucleiStudio_workspace3\simple_world\Debug/../src/picojpeg.c:1459
         return 0;
80001060:	4701                	li	a4,0
C:\NucleiStudio_workspace3\simple_world\Debug/../src/picojpeg.c:1458
      if (b < 0)
80001062:	0006c863          	bltz	a3,80001072 <upsampleCbH+0x114>
C:\NucleiStudio_workspace3\simple_world\Debug/../src/picojpeg.c:1461
         return 255;
80001066:	0ff00713          	li	a4,255
C:\NucleiStudio_workspace3\simple_world\Debug/../src/picojpeg.c:1460
      else if (b > 255)
8000106a:	00d8c463          	blt	a7,a3,80001072 <upsampleCbH+0x114>
C:\NucleiStudio_workspace3\simple_world\Debug/../src/picojpeg.c:1464
   return (uint8)b;
8000106e:	0ff7f713          	andi	a4,a5,255
upsampleCbH():
C:\NucleiStudio_workspace3\simple_world\Debug/../src/picojpeg.c:1549
         pDstB[1] = addAndClamp(pDstB[1], cbB);
80001072:	00e800a3          	sb	a4,1(a6)
C:\NucleiStudio_workspace3\simple_world\Debug/../src/picojpeg.c:1551

         pDstG += 2;
80001076:	0509                	addi	a0,a0,2
C:\NucleiStudio_workspace3\simple_world\Debug/../src/picojpeg.c:1552
         pDstB += 2;
80001078:	0809                	addi	a6,a6,2
C:\NucleiStudio_workspace3\simple_world\Debug/../src/picojpeg.c:1538
      for (x = 0; x < 4; x++)
8000107a:	f3c312e3          	bne	t1,t3,80000f9e <upsampleCbH+0x40>
8000107e:	01030e13          	addi	t3,t1,16
80001082:	0fa1                	addi	t6,t6,8
80001084:	05a1                	addi	a1,a1,8
C:\NucleiStudio_workspace3\simple_world\Debug/../src/picojpeg.c:1536 (discriminator 2)
   for (y = 0; y < 8; y++)
80001086:	f1c298e3          	bne	t0,t3,80000f96 <upsampleCbH+0x38>
C:\NucleiStudio_workspace3\simple_world\Debug/../src/picojpeg.c:1557
      }

      pSrc = pSrc - 4 + 8;
   }
}   
8000108a:	4432                	lw	s0,12(sp)
8000108c:	0141                	addi	sp,sp,16
8000108e:	8082                	ret

80001090 <upsampleCbV>:
upsampleCbV():
C:\NucleiStudio_workspace3\simple_world\Debug/../src/picojpeg.c:1565
static void upsampleCbV(uint8 srcOfs, uint8 dstOfs)
{
   // Cb - affects G and B
   uint8 x, y;
   int16* pSrc = gCoeffBuf + srcOfs;
   uint8* pDstG = gMCUBufG + dstOfs;
80001090:	9000bfb7          	lui	t6,0x9000b
C:\NucleiStudio_workspace3\simple_world\Debug/../src/picojpeg.c:1564
   int16* pSrc = gCoeffBuf + srcOfs;
80001094:	0506                	slli	a0,a0,0x1
C:\NucleiStudio_workspace3\simple_world\Debug/../src/picojpeg.c:1565
   uint8* pDstG = gMCUBufG + dstOfs;
80001096:	cfcf8f93          	addi	t6,t6,-772 # 9000acfc <_sp+0xffffacfc>
C:\NucleiStudio_workspace3\simple_world\Debug/../src/picojpeg.c:1566
   uint8* pDstB = gMCUBufB + dstOfs;
8000109a:	9000b7b7          	lui	a5,0x9000b
8000109e:	9000ae37          	lui	t3,0x9000a
C:\NucleiStudio_workspace3\simple_world\Debug/../src/picojpeg.c:1565
   uint8* pDstG = gMCUBufG + dstOfs;
800010a2:	9fae                	add	t6,t6,a1
C:\NucleiStudio_workspace3\simple_world\Debug/../src/picojpeg.c:1561
{
800010a4:	1141                	addi	sp,sp,-16
800010a6:	0541                	addi	a0,a0,16
C:\NucleiStudio_workspace3\simple_world\Debug/../src/picojpeg.c:1566
   uint8* pDstB = gMCUBufB + dstOfs;
800010a8:	bfc78793          	addi	a5,a5,-1028 # 9000abfc <_sp+0xffffabfc>
800010ac:	71ce0e13          	addi	t3,t3,1820 # 9000a71c <_sp+0xffffa71c>
C:\NucleiStudio_workspace3\simple_world\Debug/../src/picojpeg.c:1561
{
800010b0:	c622                	sw	s0,12(sp)
C:\NucleiStudio_workspace3\simple_world\Debug/../src/picojpeg.c:1566
   uint8* pDstB = gMCUBufB + dstOfs;
800010b2:	95be                	add	a1,a1,a5
C:\NucleiStudio_workspace3\simple_world\Debug/../src/picojpeg.c:1567
   for (y = 0; y < 4; y++)
800010b4:	9e2a                	add	t3,t3,a0
800010b6:	040f8293          	addi	t0,t6,64
C:\NucleiStudio_workspace3\simple_world\Debug/../src/picojpeg.c:1574
      for (x = 0; x < 8; x++)
      {
         uint8 cb = (uint8)*pSrc++;
         int16 cbG, cbB;

         cbG = ((cb * 88U) >> 8U) - 44U;
800010ba:	05800f13          	li	t5,88
subAndClamp():
C:\NucleiStudio_workspace3\simple_world\Debug/../src/picojpeg.c:1471
   if ((uint16)b > 255U)
800010be:	0ff00893          	li	a7,255
upsampleCbV():
C:\NucleiStudio_workspace3\simple_world\Debug/../src/picojpeg.c:1578
         pDstG[0] = subAndClamp(pDstG[0], cbG);
         pDstG[8] = subAndClamp(pDstG[8], cbG);

         cbB = (cb + ((cb * 198U) >> 8U)) - 227U;
800010c2:	0c600e93          	li	t4,198
800010c6:	ff0e0313          	addi	t1,t3,-16
C:\NucleiStudio_workspace3\simple_world\Debug/../src/picojpeg.c:1561
{
800010ca:	882e                	mv	a6,a1
800010cc:	857e                	mv	a0,t6
C:\NucleiStudio_workspace3\simple_world\Debug/../src/picojpeg.c:1571 (discriminator 3)
         uint8 cb = (uint8)*pSrc++;
800010ce:	0309                	addi	t1,t1,2
800010d0:	ffe31703          	lh	a4,-2(t1)
subAndClamp():
C:\NucleiStudio_workspace3\simple_world\Debug/../src/picojpeg.c:1469 (discriminator 3)
   b = a - b;
800010d4:	00054603          	lbu	a2,0(a0)
upsampleCbV():
C:\NucleiStudio_workspace3\simple_world\Debug/../src/picojpeg.c:1574 (discriminator 3)
         cbG = ((cb * 88U) >> 8U) - 44U;
800010d8:	0ff77793          	andi	a5,a4,255
800010dc:	03e786b3          	mul	a3,a5,t5
800010e0:	82a1                	srli	a3,a3,0x8
800010e2:	fd468693          	addi	a3,a3,-44
800010e6:	06c2                	slli	a3,a3,0x10
800010e8:	82c1                	srli	a3,a3,0x10
subAndClamp():
C:\NucleiStudio_workspace3\simple_world\Debug/../src/picojpeg.c:1469 (discriminator 3)
   b = a - b;
800010ea:	8e15                	sub	a2,a2,a3
800010ec:	0642                	slli	a2,a2,0x10
800010ee:	8241                	srli	a2,a2,0x10
C:\NucleiStudio_workspace3\simple_world\Debug/../src/picojpeg.c:1471 (discriminator 3)
   if ((uint16)b > 255U)
800010f0:	00c8fc63          	bgeu	a7,a2,80001108 <upsampleCbV+0x78>
C:\NucleiStudio_workspace3\simple_world\Debug/../src/picojpeg.c:1469
   b = a - b;
800010f4:	01061413          	slli	s0,a2,0x10
800010f8:	8441                	srai	s0,s0,0x10
C:\NucleiStudio_workspace3\simple_world\Debug/../src/picojpeg.c:1474
         return 0;
800010fa:	4381                	li	t2,0
C:\NucleiStudio_workspace3\simple_world\Debug/../src/picojpeg.c:1473
      if (b < 0)
800010fc:	00044863          	bltz	s0,8000110c <upsampleCbV+0x7c>
C:\NucleiStudio_workspace3\simple_world\Debug/../src/picojpeg.c:1476
         return 255;
80001100:	0ff00393          	li	t2,255
C:\NucleiStudio_workspace3\simple_world\Debug/../src/picojpeg.c:1475
      else if (b > 255)
80001104:	0088c463          	blt	a7,s0,8000110c <upsampleCbV+0x7c>
C:\NucleiStudio_workspace3\simple_world\Debug/../src/picojpeg.c:1479
   return (uint8)b;
80001108:	0ff67393          	andi	t2,a2,255
C:\NucleiStudio_workspace3\simple_world\Debug/../src/picojpeg.c:1469
   b = a - b;
8000110c:	00854603          	lbu	a2,8(a0)
upsampleCbV():
C:\NucleiStudio_workspace3\simple_world\Debug/../src/picojpeg.c:1575
         pDstG[0] = subAndClamp(pDstG[0], cbG);
80001110:	00750023          	sb	t2,0(a0)
subAndClamp():
C:\NucleiStudio_workspace3\simple_world\Debug/../src/picojpeg.c:1469
   b = a - b;
80001114:	40d606b3          	sub	a3,a2,a3
80001118:	06c2                	slli	a3,a3,0x10
8000111a:	82c1                	srli	a3,a3,0x10
C:\NucleiStudio_workspace3\simple_world\Debug/../src/picojpeg.c:1471
   if ((uint16)b > 255U)
8000111c:	00d8fd63          	bgeu	a7,a3,80001136 <upsampleCbV+0xa6>
C:\NucleiStudio_workspace3\simple_world\Debug/../src/picojpeg.c:1469
   b = a - b;
80001120:	01069393          	slli	t2,a3,0x10
80001124:	4103d393          	srai	t2,t2,0x10
C:\NucleiStudio_workspace3\simple_world\Debug/../src/picojpeg.c:1474
         return 0;
80001128:	4601                	li	a2,0
C:\NucleiStudio_workspace3\simple_world\Debug/../src/picojpeg.c:1473
      if (b < 0)
8000112a:	0003c863          	bltz	t2,8000113a <upsampleCbV+0xaa>
C:\NucleiStudio_workspace3\simple_world\Debug/../src/picojpeg.c:1476
         return 255;
8000112e:	0ff00613          	li	a2,255
C:\NucleiStudio_workspace3\simple_world\Debug/../src/picojpeg.c:1475
      else if (b > 255)
80001132:	0078c463          	blt	a7,t2,8000113a <upsampleCbV+0xaa>
C:\NucleiStudio_workspace3\simple_world\Debug/../src/picojpeg.c:1479
   return (uint8)b;
80001136:	0ff6f613          	andi	a2,a3,255
upsampleCbV():
C:\NucleiStudio_workspace3\simple_world\Debug/../src/picojpeg.c:1578
         cbB = (cb + ((cb * 198U) >> 8U)) - 227U;
8000113a:	03d786b3          	mul	a3,a5,t4
8000113e:	0ff77793          	andi	a5,a4,255
80001142:	f1d78793          	addi	a5,a5,-227
addAndClamp():
C:\NucleiStudio_workspace3\simple_world\Debug/../src/picojpeg.c:1454
   b = a + b;
80001146:	00084703          	lbu	a4,0(a6)
upsampleCbV():
C:\NucleiStudio_workspace3\simple_world\Debug/../src/picojpeg.c:1576
         pDstG[8] = subAndClamp(pDstG[8], cbG);
8000114a:	00c50423          	sb	a2,8(a0)
C:\NucleiStudio_workspace3\simple_world\Debug/../src/picojpeg.c:1578
         cbB = (cb + ((cb * 198U) >> 8U)) - 227U;
8000114e:	82a1                	srli	a3,a3,0x8
80001150:	97b6                	add	a5,a5,a3
80001152:	07c2                	slli	a5,a5,0x10
80001154:	83c1                	srli	a5,a5,0x10
addAndClamp():
C:\NucleiStudio_workspace3\simple_world\Debug/../src/picojpeg.c:1454
   b = a + b;
80001156:	973e                	add	a4,a4,a5
80001158:	0742                	slli	a4,a4,0x10
8000115a:	8341                	srli	a4,a4,0x10
C:\NucleiStudio_workspace3\simple_world\Debug/../src/picojpeg.c:1456
   if ((uint16)b > 255U)
8000115c:	00e8fc63          	bgeu	a7,a4,80001174 <upsampleCbV+0xe4>
C:\NucleiStudio_workspace3\simple_world\Debug/../src/picojpeg.c:1454
   b = a + b;
80001160:	01071613          	slli	a2,a4,0x10
80001164:	8641                	srai	a2,a2,0x10
C:\NucleiStudio_workspace3\simple_world\Debug/../src/picojpeg.c:1459
         return 0;
80001166:	4681                	li	a3,0
C:\NucleiStudio_workspace3\simple_world\Debug/../src/picojpeg.c:1458
      if (b < 0)
80001168:	00064863          	bltz	a2,80001178 <upsampleCbV+0xe8>
C:\NucleiStudio_workspace3\simple_world\Debug/../src/picojpeg.c:1461
         return 255;
8000116c:	0ff00693          	li	a3,255
C:\NucleiStudio_workspace3\simple_world\Debug/../src/picojpeg.c:1460
      else if (b > 255)
80001170:	00c8c463          	blt	a7,a2,80001178 <upsampleCbV+0xe8>
C:\NucleiStudio_workspace3\simple_world\Debug/../src/picojpeg.c:1464
   return (uint8)b;
80001174:	0ff77693          	andi	a3,a4,255
C:\NucleiStudio_workspace3\simple_world\Debug/../src/picojpeg.c:1454
   b = a + b;
80001178:	00884703          	lbu	a4,8(a6)
upsampleCbV():
C:\NucleiStudio_workspace3\simple_world\Debug/../src/picojpeg.c:1579
         pDstB[0] = addAndClamp(pDstB[0], cbB);
8000117c:	00d80023          	sb	a3,0(a6)
addAndClamp():
C:\NucleiStudio_workspace3\simple_world\Debug/../src/picojpeg.c:1454
   b = a + b;
80001180:	97ba                	add	a5,a5,a4
80001182:	07c2                	slli	a5,a5,0x10
80001184:	83c1                	srli	a5,a5,0x10
C:\NucleiStudio_workspace3\simple_world\Debug/../src/picojpeg.c:1456
   if ((uint16)b > 255U)
80001186:	00f8fc63          	bgeu	a7,a5,8000119e <upsampleCbV+0x10e>
C:\NucleiStudio_workspace3\simple_world\Debug/../src/picojpeg.c:1454
   b = a + b;
8000118a:	01079693          	slli	a3,a5,0x10
8000118e:	86c1                	srai	a3,a3,0x10
C:\NucleiStudio_workspace3\simple_world\Debug/../src/picojpeg.c:1459
         return 0;
80001190:	4701                	li	a4,0
C:\NucleiStudio_workspace3\simple_world\Debug/../src/picojpeg.c:1458
      if (b < 0)
80001192:	0006c863          	bltz	a3,800011a2 <upsampleCbV+0x112>
C:\NucleiStudio_workspace3\simple_world\Debug/../src/picojpeg.c:1461
         return 255;
80001196:	0ff00713          	li	a4,255
C:\NucleiStudio_workspace3\simple_world\Debug/../src/picojpeg.c:1460
      else if (b > 255)
8000119a:	00d8c463          	blt	a7,a3,800011a2 <upsampleCbV+0x112>
C:\NucleiStudio_workspace3\simple_world\Debug/../src/picojpeg.c:1464
   return (uint8)b;
8000119e:	0ff7f713          	andi	a4,a5,255
upsampleCbV():
C:\NucleiStudio_workspace3\simple_world\Debug/../src/picojpeg.c:1580
         pDstB[8] = addAndClamp(pDstB[8], cbB);
800011a2:	00e80423          	sb	a4,8(a6)
C:\NucleiStudio_workspace3\simple_world\Debug/../src/picojpeg.c:1582

         ++pDstG;
800011a6:	0505                	addi	a0,a0,1
C:\NucleiStudio_workspace3\simple_world\Debug/../src/picojpeg.c:1583
         ++pDstB;
800011a8:	0805                	addi	a6,a6,1
C:\NucleiStudio_workspace3\simple_world\Debug/../src/picojpeg.c:1569
      for (x = 0; x < 8; x++)
800011aa:	f3c312e3          	bne	t1,t3,800010ce <upsampleCbV+0x3e>
C:\NucleiStudio_workspace3\simple_world\Debug/../src/picojpeg.c:1586 (discriminator 2)
      }

      pDstG = pDstG - 8 + 16;
800011ae:	0fc1                	addi	t6,t6,16
C:\NucleiStudio_workspace3\simple_world\Debug/../src/picojpeg.c:1587 (discriminator 2)
      pDstB = pDstB - 8 + 16;
800011b0:	05c1                	addi	a1,a1,16
800011b2:	01030e13          	addi	t3,t1,16
C:\NucleiStudio_workspace3\simple_world\Debug/../src/picojpeg.c:1567 (discriminator 2)
   for (y = 0; y < 4; y++)
800011b6:	f05f98e3          	bne	t6,t0,800010c6 <upsampleCbV+0x36>
C:\NucleiStudio_workspace3\simple_world\Debug/../src/picojpeg.c:1589
   }
}   
800011ba:	4432                	lw	s0,12(sp)
800011bc:	0141                	addi	sp,sp,16
800011be:	8082                	ret

800011c0 <upsampleCr>:
upsampleCr():
C:\NucleiStudio_workspace3\simple_world\Debug/../src/picojpeg.c:1605
// Cr upsample and accumulate, 4x4 to 8x8
static void upsampleCr(uint8 srcOfs, uint8 dstOfs)
{
   // Cr - affects R and G
   uint8 x, y;
   int16* pSrc = gCoeffBuf + srcOfs;
800011c0:	9000afb7          	lui	t6,0x9000a
800011c4:	0506                	slli	a0,a0,0x1
800011c6:	71cf8f93          	addi	t6,t6,1820 # 9000a71c <_sp+0xffffa71c>
C:\NucleiStudio_workspace3\simple_world\Debug/../src/picojpeg.c:1606
   uint8* pDstR = gMCUBufR + dstOfs;
800011ca:	9000bf37          	lui	t5,0x9000b
C:\NucleiStudio_workspace3\simple_world\Debug/../src/picojpeg.c:1607
   uint8* pDstG = gMCUBufG + dstOfs;
800011ce:	9000b7b7          	lui	a5,0x9000b
C:\NucleiStudio_workspace3\simple_world\Debug/../src/picojpeg.c:1605
   int16* pSrc = gCoeffBuf + srcOfs;
800011d2:	9faa                	add	t6,t6,a0
C:\NucleiStudio_workspace3\simple_world\Debug/../src/picojpeg.c:1606
   uint8* pDstR = gMCUBufR + dstOfs;
800011d4:	dfcf0f13          	addi	t5,t5,-516 # 9000adfc <_sp+0xffffadfc>
C:\NucleiStudio_workspace3\simple_world\Debug/../src/picojpeg.c:1607
   uint8* pDstG = gMCUBufG + dstOfs;
800011d8:	cfc78793          	addi	a5,a5,-772 # 9000acfc <_sp+0xffffacfc>
C:\NucleiStudio_workspace3\simple_world\Debug/../src/picojpeg.c:1606
   uint8* pDstR = gMCUBufR + dstOfs;
800011dc:	9f2e                	add	t5,t5,a1
C:\NucleiStudio_workspace3\simple_world\Debug/../src/picojpeg.c:1607
   uint8* pDstG = gMCUBufG + dstOfs;
800011de:	008f8313          	addi	t1,t6,8
800011e2:	95be                	add	a1,a1,a5
C:\NucleiStudio_workspace3\simple_world\Debug/../src/picojpeg.c:1608
   for (y = 0; y < 4; y++)
800011e4:	048f8f93          	addi	t6,t6,72
C:\NucleiStudio_workspace3\simple_world\Debug/../src/picojpeg.c:1615
      for (x = 0; x < 4; x++)
      {
         uint8 cr = (uint8)*pSrc++;
         int16 crR, crG;

         crR = (cr + ((cr * 103U) >> 8U)) - 179;
800011e8:	06700e93          	li	t4,103
addAndClamp():
C:\NucleiStudio_workspace3\simple_world\Debug/../src/picojpeg.c:1456
   if ((uint16)b > 255U)
800011ec:	0ff00613          	li	a2,255
upsampleCr():
C:\NucleiStudio_workspace3\simple_world\Debug/../src/picojpeg.c:1621
         pDstR[0] = addAndClamp(pDstR[0], crR);
         pDstR[1] = addAndClamp(pDstR[1], crR);
         pDstR[8] = addAndClamp(pDstR[8], crR);
         pDstR[9] = addAndClamp(pDstR[9], crR);
         
         crG = ((cr * 183U) >> 8U) - 91;
800011f0:	0b700e13          	li	t3,183
800011f4:	ff830893          	addi	a7,t1,-8
C:\NucleiStudio_workspace3\simple_world\Debug/../src/picojpeg.c:1602
{
800011f8:	882e                	mv	a6,a1
800011fa:	857a                	mv	a0,t5
C:\NucleiStudio_workspace3\simple_world\Debug/../src/picojpeg.c:1612 (discriminator 3)
         uint8 cr = (uint8)*pSrc++;
800011fc:	0889                	addi	a7,a7,2
800011fe:	ffe89703          	lh	a4,-2(a7)
addAndClamp():
C:\NucleiStudio_workspace3\simple_world\Debug/../src/picojpeg.c:1454 (discriminator 3)
   b = a + b;
80001202:	00054283          	lbu	t0,0(a0)
upsampleCr():
C:\NucleiStudio_workspace3\simple_world\Debug/../src/picojpeg.c:1615 (discriminator 3)
         crR = (cr + ((cr * 103U) >> 8U)) - 179;
80001206:	0ff77693          	andi	a3,a4,255
8000120a:	03d687b3          	mul	a5,a3,t4
8000120e:	0ff77713          	andi	a4,a4,255
80001212:	f4d70713          	addi	a4,a4,-179
80001216:	83a1                	srli	a5,a5,0x8
80001218:	973e                	add	a4,a4,a5
8000121a:	01071793          	slli	a5,a4,0x10
8000121e:	83c1                	srli	a5,a5,0x10
addAndClamp():
C:\NucleiStudio_workspace3\simple_world\Debug/../src/picojpeg.c:1454 (discriminator 3)
   b = a + b;
80001220:	00578733          	add	a4,a5,t0
80001224:	0742                	slli	a4,a4,0x10
80001226:	8341                	srli	a4,a4,0x10
C:\NucleiStudio_workspace3\simple_world\Debug/../src/picojpeg.c:1456 (discriminator 3)
   if ((uint16)b > 255U)
80001228:	00e67d63          	bgeu	a2,a4,80001242 <upsampleCr+0x82>
C:\NucleiStudio_workspace3\simple_world\Debug/../src/picojpeg.c:1454
   b = a + b;
8000122c:	01071393          	slli	t2,a4,0x10
80001230:	4103d393          	srai	t2,t2,0x10
C:\NucleiStudio_workspace3\simple_world\Debug/../src/picojpeg.c:1459
         return 0;
80001234:	4281                	li	t0,0
C:\NucleiStudio_workspace3\simple_world\Debug/../src/picojpeg.c:1458
      if (b < 0)
80001236:	0003c863          	bltz	t2,80001246 <upsampleCr+0x86>
C:\NucleiStudio_workspace3\simple_world\Debug/../src/picojpeg.c:1461
         return 255;
8000123a:	0ff00293          	li	t0,255
C:\NucleiStudio_workspace3\simple_world\Debug/../src/picojpeg.c:1460
      else if (b > 255)
8000123e:	00764463          	blt	a2,t2,80001246 <upsampleCr+0x86>
C:\NucleiStudio_workspace3\simple_world\Debug/../src/picojpeg.c:1464
   return (uint8)b;
80001242:	0ff77293          	andi	t0,a4,255
C:\NucleiStudio_workspace3\simple_world\Debug/../src/picojpeg.c:1454
   b = a + b;
80001246:	00154703          	lbu	a4,1(a0)
upsampleCr():
C:\NucleiStudio_workspace3\simple_world\Debug/../src/picojpeg.c:1616
         pDstR[0] = addAndClamp(pDstR[0], crR);
8000124a:	00550023          	sb	t0,0(a0)
addAndClamp():
C:\NucleiStudio_workspace3\simple_world\Debug/../src/picojpeg.c:1454
   b = a + b;
8000124e:	973e                	add	a4,a4,a5
80001250:	0742                	slli	a4,a4,0x10
80001252:	8341                	srli	a4,a4,0x10
C:\NucleiStudio_workspace3\simple_world\Debug/../src/picojpeg.c:1456
   if ((uint16)b > 255U)
80001254:	00e67d63          	bgeu	a2,a4,8000126e <upsampleCr+0xae>
C:\NucleiStudio_workspace3\simple_world\Debug/../src/picojpeg.c:1454
   b = a + b;
80001258:	01071393          	slli	t2,a4,0x10
8000125c:	4103d393          	srai	t2,t2,0x10
C:\NucleiStudio_workspace3\simple_world\Debug/../src/picojpeg.c:1459
         return 0;
80001260:	4281                	li	t0,0
C:\NucleiStudio_workspace3\simple_world\Debug/../src/picojpeg.c:1458
      if (b < 0)
80001262:	0003c863          	bltz	t2,80001272 <upsampleCr+0xb2>
C:\NucleiStudio_workspace3\simple_world\Debug/../src/picojpeg.c:1461
         return 255;
80001266:	0ff00293          	li	t0,255
C:\NucleiStudio_workspace3\simple_world\Debug/../src/picojpeg.c:1460
      else if (b > 255)
8000126a:	00764463          	blt	a2,t2,80001272 <upsampleCr+0xb2>
C:\NucleiStudio_workspace3\simple_world\Debug/../src/picojpeg.c:1464
   return (uint8)b;
8000126e:	0ff77293          	andi	t0,a4,255
C:\NucleiStudio_workspace3\simple_world\Debug/../src/picojpeg.c:1454
   b = a + b;
80001272:	00854703          	lbu	a4,8(a0)
upsampleCr():
C:\NucleiStudio_workspace3\simple_world\Debug/../src/picojpeg.c:1617
         pDstR[1] = addAndClamp(pDstR[1], crR);
80001276:	005500a3          	sb	t0,1(a0)
addAndClamp():
C:\NucleiStudio_workspace3\simple_world\Debug/../src/picojpeg.c:1454
   b = a + b;
8000127a:	973e                	add	a4,a4,a5
8000127c:	0742                	slli	a4,a4,0x10
8000127e:	8341                	srli	a4,a4,0x10
C:\NucleiStudio_workspace3\simple_world\Debug/../src/picojpeg.c:1456
   if ((uint16)b > 255U)
80001280:	00e67d63          	bgeu	a2,a4,8000129a <upsampleCr+0xda>
C:\NucleiStudio_workspace3\simple_world\Debug/../src/picojpeg.c:1454
   b = a + b;
80001284:	01071393          	slli	t2,a4,0x10
80001288:	4103d393          	srai	t2,t2,0x10
C:\NucleiStudio_workspace3\simple_world\Debug/../src/picojpeg.c:1459
         return 0;
8000128c:	4281                	li	t0,0
C:\NucleiStudio_workspace3\simple_world\Debug/../src/picojpeg.c:1458
      if (b < 0)
8000128e:	0003c863          	bltz	t2,8000129e <upsampleCr+0xde>
C:\NucleiStudio_workspace3\simple_world\Debug/../src/picojpeg.c:1461
         return 255;
80001292:	0ff00293          	li	t0,255
C:\NucleiStudio_workspace3\simple_world\Debug/../src/picojpeg.c:1460
      else if (b > 255)
80001296:	00764463          	blt	a2,t2,8000129e <upsampleCr+0xde>
C:\NucleiStudio_workspace3\simple_world\Debug/../src/picojpeg.c:1464
   return (uint8)b;
8000129a:	0ff77293          	andi	t0,a4,255
C:\NucleiStudio_workspace3\simple_world\Debug/../src/picojpeg.c:1454
   b = a + b;
8000129e:	00954703          	lbu	a4,9(a0)
upsampleCr():
C:\NucleiStudio_workspace3\simple_world\Debug/../src/picojpeg.c:1618
         pDstR[8] = addAndClamp(pDstR[8], crR);
800012a2:	00550423          	sb	t0,8(a0)
addAndClamp():
C:\NucleiStudio_workspace3\simple_world\Debug/../src/picojpeg.c:1454
   b = a + b;
800012a6:	973e                	add	a4,a4,a5
800012a8:	0742                	slli	a4,a4,0x10
800012aa:	8341                	srli	a4,a4,0x10
C:\NucleiStudio_workspace3\simple_world\Debug/../src/picojpeg.c:1456
   if ((uint16)b > 255U)
800012ac:	00e67c63          	bgeu	a2,a4,800012c4 <upsampleCr+0x104>
C:\NucleiStudio_workspace3\simple_world\Debug/../src/picojpeg.c:1454
   b = a + b;
800012b0:	01071793          	slli	a5,a4,0x10
800012b4:	87c1                	srai	a5,a5,0x10
C:\NucleiStudio_workspace3\simple_world\Debug/../src/picojpeg.c:1459
         return 0;
800012b6:	4281                	li	t0,0
C:\NucleiStudio_workspace3\simple_world\Debug/../src/picojpeg.c:1458
      if (b < 0)
800012b8:	0007c863          	bltz	a5,800012c8 <upsampleCr+0x108>
C:\NucleiStudio_workspace3\simple_world\Debug/../src/picojpeg.c:1461
         return 255;
800012bc:	0ff00293          	li	t0,255
C:\NucleiStudio_workspace3\simple_world\Debug/../src/picojpeg.c:1460
      else if (b > 255)
800012c0:	00f64463          	blt	a2,a5,800012c8 <upsampleCr+0x108>
C:\NucleiStudio_workspace3\simple_world\Debug/../src/picojpeg.c:1464
   return (uint8)b;
800012c4:	0ff77293          	andi	t0,a4,255
upsampleCr():
C:\NucleiStudio_workspace3\simple_world\Debug/../src/picojpeg.c:1621
         crG = ((cr * 183U) >> 8U) - 91;
800012c8:	03c687b3          	mul	a5,a3,t3
subAndClamp():
C:\NucleiStudio_workspace3\simple_world\Debug/../src/picojpeg.c:1469
   b = a - b;
800012cc:	00084703          	lbu	a4,0(a6)
upsampleCr():
C:\NucleiStudio_workspace3\simple_world\Debug/../src/picojpeg.c:1619
         pDstR[9] = addAndClamp(pDstR[9], crR);
800012d0:	005504a3          	sb	t0,9(a0)
C:\NucleiStudio_workspace3\simple_world\Debug/../src/picojpeg.c:1621
         crG = ((cr * 183U) >> 8U) - 91;
800012d4:	83a1                	srli	a5,a5,0x8
800012d6:	fa578793          	addi	a5,a5,-91
800012da:	07c2                	slli	a5,a5,0x10
800012dc:	83c1                	srli	a5,a5,0x10
subAndClamp():
C:\NucleiStudio_workspace3\simple_world\Debug/../src/picojpeg.c:1469
   b = a - b;
800012de:	8f1d                	sub	a4,a4,a5
800012e0:	0742                	slli	a4,a4,0x10
800012e2:	8341                	srli	a4,a4,0x10
C:\NucleiStudio_workspace3\simple_world\Debug/../src/picojpeg.c:1471
   if ((uint16)b > 255U)
800012e4:	00e67d63          	bgeu	a2,a4,800012fe <upsampleCr+0x13e>
C:\NucleiStudio_workspace3\simple_world\Debug/../src/picojpeg.c:1469
   b = a - b;
800012e8:	01071293          	slli	t0,a4,0x10
800012ec:	4102d293          	srai	t0,t0,0x10
C:\NucleiStudio_workspace3\simple_world\Debug/../src/picojpeg.c:1474
         return 0;
800012f0:	4681                	li	a3,0
C:\NucleiStudio_workspace3\simple_world\Debug/../src/picojpeg.c:1473
      if (b < 0)
800012f2:	0002c863          	bltz	t0,80001302 <upsampleCr+0x142>
C:\NucleiStudio_workspace3\simple_world\Debug/../src/picojpeg.c:1476
         return 255;
800012f6:	0ff00693          	li	a3,255
C:\NucleiStudio_workspace3\simple_world\Debug/../src/picojpeg.c:1475
      else if (b > 255)
800012fa:	00564463          	blt	a2,t0,80001302 <upsampleCr+0x142>
C:\NucleiStudio_workspace3\simple_world\Debug/../src/picojpeg.c:1479
   return (uint8)b;
800012fe:	0ff77693          	andi	a3,a4,255
C:\NucleiStudio_workspace3\simple_world\Debug/../src/picojpeg.c:1469
   b = a - b;
80001302:	00184703          	lbu	a4,1(a6)
upsampleCr():
C:\NucleiStudio_workspace3\simple_world\Debug/../src/picojpeg.c:1622
         pDstG[0] = subAndClamp(pDstG[0], crG);
80001306:	00d80023          	sb	a3,0(a6)
subAndClamp():
C:\NucleiStudio_workspace3\simple_world\Debug/../src/picojpeg.c:1469
   b = a - b;
8000130a:	8f1d                	sub	a4,a4,a5
8000130c:	0742                	slli	a4,a4,0x10
8000130e:	8341                	srli	a4,a4,0x10
C:\NucleiStudio_workspace3\simple_world\Debug/../src/picojpeg.c:1471
   if ((uint16)b > 255U)
80001310:	00e67d63          	bgeu	a2,a4,8000132a <upsampleCr+0x16a>
C:\NucleiStudio_workspace3\simple_world\Debug/../src/picojpeg.c:1469
   b = a - b;
80001314:	01071293          	slli	t0,a4,0x10
80001318:	4102d293          	srai	t0,t0,0x10
C:\NucleiStudio_workspace3\simple_world\Debug/../src/picojpeg.c:1474
         return 0;
8000131c:	4681                	li	a3,0
C:\NucleiStudio_workspace3\simple_world\Debug/../src/picojpeg.c:1473
      if (b < 0)
8000131e:	0002c863          	bltz	t0,8000132e <upsampleCr+0x16e>
C:\NucleiStudio_workspace3\simple_world\Debug/../src/picojpeg.c:1476
         return 255;
80001322:	0ff00693          	li	a3,255
C:\NucleiStudio_workspace3\simple_world\Debug/../src/picojpeg.c:1475
      else if (b > 255)
80001326:	00564463          	blt	a2,t0,8000132e <upsampleCr+0x16e>
C:\NucleiStudio_workspace3\simple_world\Debug/../src/picojpeg.c:1479
   return (uint8)b;
8000132a:	0ff77693          	andi	a3,a4,255
C:\NucleiStudio_workspace3\simple_world\Debug/../src/picojpeg.c:1469
   b = a - b;
8000132e:	00884703          	lbu	a4,8(a6)
upsampleCr():
C:\NucleiStudio_workspace3\simple_world\Debug/../src/picojpeg.c:1623
         pDstG[1] = subAndClamp(pDstG[1], crG);
80001332:	00d800a3          	sb	a3,1(a6)
subAndClamp():
C:\NucleiStudio_workspace3\simple_world\Debug/../src/picojpeg.c:1469
   b = a - b;
80001336:	8f1d                	sub	a4,a4,a5
80001338:	0742                	slli	a4,a4,0x10
8000133a:	8341                	srli	a4,a4,0x10
C:\NucleiStudio_workspace3\simple_world\Debug/../src/picojpeg.c:1471
   if ((uint16)b > 255U)
8000133c:	00e67d63          	bgeu	a2,a4,80001356 <upsampleCr+0x196>
C:\NucleiStudio_workspace3\simple_world\Debug/../src/picojpeg.c:1469
   b = a - b;
80001340:	01071293          	slli	t0,a4,0x10
80001344:	4102d293          	srai	t0,t0,0x10
C:\NucleiStudio_workspace3\simple_world\Debug/../src/picojpeg.c:1474
         return 0;
80001348:	4681                	li	a3,0
C:\NucleiStudio_workspace3\simple_world\Debug/../src/picojpeg.c:1473
      if (b < 0)
8000134a:	0002c863          	bltz	t0,8000135a <upsampleCr+0x19a>
C:\NucleiStudio_workspace3\simple_world\Debug/../src/picojpeg.c:1476
         return 255;
8000134e:	0ff00693          	li	a3,255
C:\NucleiStudio_workspace3\simple_world\Debug/../src/picojpeg.c:1475
      else if (b > 255)
80001352:	00564463          	blt	a2,t0,8000135a <upsampleCr+0x19a>
C:\NucleiStudio_workspace3\simple_world\Debug/../src/picojpeg.c:1479
   return (uint8)b;
80001356:	0ff77693          	andi	a3,a4,255
C:\NucleiStudio_workspace3\simple_world\Debug/../src/picojpeg.c:1469
   b = a - b;
8000135a:	00984703          	lbu	a4,9(a6)
upsampleCr():
C:\NucleiStudio_workspace3\simple_world\Debug/../src/picojpeg.c:1624
         pDstG[8] = subAndClamp(pDstG[8], crG);
8000135e:	00d80423          	sb	a3,8(a6)
subAndClamp():
C:\NucleiStudio_workspace3\simple_world\Debug/../src/picojpeg.c:1469
   b = a - b;
80001362:	40f707b3          	sub	a5,a4,a5
80001366:	07c2                	slli	a5,a5,0x10
80001368:	83c1                	srli	a5,a5,0x10
C:\NucleiStudio_workspace3\simple_world\Debug/../src/picojpeg.c:1471
   if ((uint16)b > 255U)
8000136a:	00f67c63          	bgeu	a2,a5,80001382 <upsampleCr+0x1c2>
C:\NucleiStudio_workspace3\simple_world\Debug/../src/picojpeg.c:1469
   b = a - b;
8000136e:	01079693          	slli	a3,a5,0x10
80001372:	86c1                	srai	a3,a3,0x10
C:\NucleiStudio_workspace3\simple_world\Debug/../src/picojpeg.c:1474
         return 0;
80001374:	4701                	li	a4,0
C:\NucleiStudio_workspace3\simple_world\Debug/../src/picojpeg.c:1473
      if (b < 0)
80001376:	0006c863          	bltz	a3,80001386 <upsampleCr+0x1c6>
C:\NucleiStudio_workspace3\simple_world\Debug/../src/picojpeg.c:1476
         return 255;
8000137a:	0ff00713          	li	a4,255
C:\NucleiStudio_workspace3\simple_world\Debug/../src/picojpeg.c:1475
      else if (b > 255)
8000137e:	00d64463          	blt	a2,a3,80001386 <upsampleCr+0x1c6>
C:\NucleiStudio_workspace3\simple_world\Debug/../src/picojpeg.c:1479
   return (uint8)b;
80001382:	0ff7f713          	andi	a4,a5,255
upsampleCr():
C:\NucleiStudio_workspace3\simple_world\Debug/../src/picojpeg.c:1625
         pDstG[9] = subAndClamp(pDstG[9], crG);
80001386:	00e804a3          	sb	a4,9(a6)
C:\NucleiStudio_workspace3\simple_world\Debug/../src/picojpeg.c:1627
         
         pDstR += 2;
8000138a:	0509                	addi	a0,a0,2
C:\NucleiStudio_workspace3\simple_world\Debug/../src/picojpeg.c:1628
         pDstG += 2;
8000138c:	0809                	addi	a6,a6,2
C:\NucleiStudio_workspace3\simple_world\Debug/../src/picojpeg.c:1610
      for (x = 0; x < 4; x++)
8000138e:	e66897e3          	bne	a7,t1,800011fc <upsampleCr+0x3c>
C:\NucleiStudio_workspace3\simple_world\Debug/../src/picojpeg.c:1632 (discriminator 2)
      }

      pSrc = pSrc - 4 + 8;
      pDstR = pDstR - 8 + 16;
80001392:	01088313          	addi	t1,a7,16
80001396:	0f41                	addi	t5,t5,16
C:\NucleiStudio_workspace3\simple_world\Debug/../src/picojpeg.c:1633 (discriminator 2)
      pDstG = pDstG - 8 + 16;
80001398:	05c1                	addi	a1,a1,16
C:\NucleiStudio_workspace3\simple_world\Debug/../src/picojpeg.c:1608 (discriminator 2)
   for (y = 0; y < 4; y++)
8000139a:	e46f9de3          	bne	t6,t1,800011f4 <upsampleCr+0x34>
C:\NucleiStudio_workspace3\simple_world\Debug/../src/picojpeg.c:1635
   }
}   
8000139e:	8082                	ret

800013a0 <upsampleCrH>:
upsampleCrH():
C:\NucleiStudio_workspace3\simple_world\Debug/../src/picojpeg.c:1642
// Cr upsample and accumulate, 4x8 to 8x8
static void upsampleCrH(uint8 srcOfs, uint8 dstOfs)
{
   // Cr - affects R and G
   uint8 x, y;
   int16* pSrc = gCoeffBuf + srcOfs;
800013a0:	9000afb7          	lui	t6,0x9000a
800013a4:	0506                	slli	a0,a0,0x1
800013a6:	71cf8f93          	addi	t6,t6,1820 # 9000a71c <_sp+0xffffa71c>
C:\NucleiStudio_workspace3\simple_world\Debug/../src/picojpeg.c:1643
   uint8* pDstR = gMCUBufR + dstOfs;
800013aa:	9000bf37          	lui	t5,0x9000b
C:\NucleiStudio_workspace3\simple_world\Debug/../src/picojpeg.c:1644
   uint8* pDstG = gMCUBufG + dstOfs;
800013ae:	9000b7b7          	lui	a5,0x9000b
C:\NucleiStudio_workspace3\simple_world\Debug/../src/picojpeg.c:1642
   int16* pSrc = gCoeffBuf + srcOfs;
800013b2:	9faa                	add	t6,t6,a0
C:\NucleiStudio_workspace3\simple_world\Debug/../src/picojpeg.c:1643
   uint8* pDstR = gMCUBufR + dstOfs;
800013b4:	dfcf0f13          	addi	t5,t5,-516 # 9000adfc <_sp+0xffffadfc>
C:\NucleiStudio_workspace3\simple_world\Debug/../src/picojpeg.c:1644
   uint8* pDstG = gMCUBufG + dstOfs;
800013b8:	cfc78793          	addi	a5,a5,-772 # 9000acfc <_sp+0xffffacfc>
C:\NucleiStudio_workspace3\simple_world\Debug/../src/picojpeg.c:1643
   uint8* pDstR = gMCUBufR + dstOfs;
800013bc:	9f2e                	add	t5,t5,a1
C:\NucleiStudio_workspace3\simple_world\Debug/../src/picojpeg.c:1644
   uint8* pDstG = gMCUBufG + dstOfs;
800013be:	008f8313          	addi	t1,t6,8
800013c2:	95be                	add	a1,a1,a5
C:\NucleiStudio_workspace3\simple_world\Debug/../src/picojpeg.c:1645
   for (y = 0; y < 8; y++)
800013c4:	088f8f93          	addi	t6,t6,136
C:\NucleiStudio_workspace3\simple_world\Debug/../src/picojpeg.c:1652
      for (x = 0; x < 4; x++)
      {
         uint8 cr = (uint8)*pSrc++;
         int16 crR, crG;

         crR = (cr + ((cr * 103U) >> 8U)) - 179;
800013c8:	06700e93          	li	t4,103
addAndClamp():
C:\NucleiStudio_workspace3\simple_world\Debug/../src/picojpeg.c:1456
   if ((uint16)b > 255U)
800013cc:	0ff00813          	li	a6,255
upsampleCrH():
C:\NucleiStudio_workspace3\simple_world\Debug/../src/picojpeg.c:1656
         pDstR[0] = addAndClamp(pDstR[0], crR);
         pDstR[1] = addAndClamp(pDstR[1], crR);
         
         crG = ((cr * 183U) >> 8U) - 91;
800013d0:	0b700e13          	li	t3,183
800013d4:	ff830893          	addi	a7,t1,-8
C:\NucleiStudio_workspace3\simple_world\Debug/../src/picojpeg.c:1639
{
800013d8:	852e                	mv	a0,a1
800013da:	867a                	mv	a2,t5
C:\NucleiStudio_workspace3\simple_world\Debug/../src/picojpeg.c:1649 (discriminator 3)
         uint8 cr = (uint8)*pSrc++;
800013dc:	0889                	addi	a7,a7,2
800013de:	ffe89703          	lh	a4,-2(a7)
addAndClamp():
C:\NucleiStudio_workspace3\simple_world\Debug/../src/picojpeg.c:1454 (discriminator 3)
   b = a + b;
800013e2:	00064283          	lbu	t0,0(a2)
upsampleCrH():
C:\NucleiStudio_workspace3\simple_world\Debug/../src/picojpeg.c:1652 (discriminator 3)
         crR = (cr + ((cr * 103U) >> 8U)) - 179;
800013e6:	0ff77693          	andi	a3,a4,255
800013ea:	03d683b3          	mul	t2,a3,t4
800013ee:	0ff77793          	andi	a5,a4,255
800013f2:	f4d78793          	addi	a5,a5,-179
800013f6:	0083d713          	srli	a4,t2,0x8
800013fa:	97ba                	add	a5,a5,a4
800013fc:	07c2                	slli	a5,a5,0x10
800013fe:	83c1                	srli	a5,a5,0x10
addAndClamp():
C:\NucleiStudio_workspace3\simple_world\Debug/../src/picojpeg.c:1454 (discriminator 3)
   b = a + b;
80001400:	00578733          	add	a4,a5,t0
80001404:	0742                	slli	a4,a4,0x10
80001406:	8341                	srli	a4,a4,0x10
C:\NucleiStudio_workspace3\simple_world\Debug/../src/picojpeg.c:1456 (discriminator 3)
   if ((uint16)b > 255U)
80001408:	00e87d63          	bgeu	a6,a4,80001422 <upsampleCrH+0x82>
C:\NucleiStudio_workspace3\simple_world\Debug/../src/picojpeg.c:1454
   b = a + b;
8000140c:	01071393          	slli	t2,a4,0x10
80001410:	4103d393          	srai	t2,t2,0x10
C:\NucleiStudio_workspace3\simple_world\Debug/../src/picojpeg.c:1459
         return 0;
80001414:	4281                	li	t0,0
C:\NucleiStudio_workspace3\simple_world\Debug/../src/picojpeg.c:1458
      if (b < 0)
80001416:	0003c863          	bltz	t2,80001426 <upsampleCrH+0x86>
C:\NucleiStudio_workspace3\simple_world\Debug/../src/picojpeg.c:1461
         return 255;
8000141a:	0ff00293          	li	t0,255
C:\NucleiStudio_workspace3\simple_world\Debug/../src/picojpeg.c:1460
      else if (b > 255)
8000141e:	00784463          	blt	a6,t2,80001426 <upsampleCrH+0x86>
C:\NucleiStudio_workspace3\simple_world\Debug/../src/picojpeg.c:1464
   return (uint8)b;
80001422:	0ff77293          	andi	t0,a4,255
C:\NucleiStudio_workspace3\simple_world\Debug/../src/picojpeg.c:1454
   b = a + b;
80001426:	00164703          	lbu	a4,1(a2)
upsampleCrH():
C:\NucleiStudio_workspace3\simple_world\Debug/../src/picojpeg.c:1653
         pDstR[0] = addAndClamp(pDstR[0], crR);
8000142a:	00560023          	sb	t0,0(a2)
addAndClamp():
C:\NucleiStudio_workspace3\simple_world\Debug/../src/picojpeg.c:1454
   b = a + b;
8000142e:	97ba                	add	a5,a5,a4
80001430:	07c2                	slli	a5,a5,0x10
80001432:	83c1                	srli	a5,a5,0x10
C:\NucleiStudio_workspace3\simple_world\Debug/../src/picojpeg.c:1456
   if ((uint16)b > 255U)
80001434:	00f87c63          	bgeu	a6,a5,8000144c <upsampleCrH+0xac>
C:\NucleiStudio_workspace3\simple_world\Debug/../src/picojpeg.c:1454
   b = a + b;
80001438:	01079713          	slli	a4,a5,0x10
8000143c:	8741                	srai	a4,a4,0x10
C:\NucleiStudio_workspace3\simple_world\Debug/../src/picojpeg.c:1459
         return 0;
8000143e:	4281                	li	t0,0
C:\NucleiStudio_workspace3\simple_world\Debug/../src/picojpeg.c:1458
      if (b < 0)
80001440:	00074863          	bltz	a4,80001450 <upsampleCrH+0xb0>
C:\NucleiStudio_workspace3\simple_world\Debug/../src/picojpeg.c:1461
         return 255;
80001444:	0ff00293          	li	t0,255
C:\NucleiStudio_workspace3\simple_world\Debug/../src/picojpeg.c:1460
      else if (b > 255)
80001448:	00e84463          	blt	a6,a4,80001450 <upsampleCrH+0xb0>
C:\NucleiStudio_workspace3\simple_world\Debug/../src/picojpeg.c:1464
   return (uint8)b;
8000144c:	0ff7f293          	andi	t0,a5,255
upsampleCrH():
C:\NucleiStudio_workspace3\simple_world\Debug/../src/picojpeg.c:1656
         crG = ((cr * 183U) >> 8U) - 91;
80001450:	03c687b3          	mul	a5,a3,t3
subAndClamp():
C:\NucleiStudio_workspace3\simple_world\Debug/../src/picojpeg.c:1469
   b = a - b;
80001454:	00054703          	lbu	a4,0(a0)
upsampleCrH():
C:\NucleiStudio_workspace3\simple_world\Debug/../src/picojpeg.c:1654
         pDstR[1] = addAndClamp(pDstR[1], crR);
80001458:	005600a3          	sb	t0,1(a2)
C:\NucleiStudio_workspace3\simple_world\Debug/../src/picojpeg.c:1656
         crG = ((cr * 183U) >> 8U) - 91;
8000145c:	83a1                	srli	a5,a5,0x8
8000145e:	fa578793          	addi	a5,a5,-91
80001462:	07c2                	slli	a5,a5,0x10
80001464:	83c1                	srli	a5,a5,0x10
subAndClamp():
C:\NucleiStudio_workspace3\simple_world\Debug/../src/picojpeg.c:1469
   b = a - b;
80001466:	8f1d                	sub	a4,a4,a5
80001468:	0742                	slli	a4,a4,0x10
8000146a:	8341                	srli	a4,a4,0x10
C:\NucleiStudio_workspace3\simple_world\Debug/../src/picojpeg.c:1471
   if ((uint16)b > 255U)
8000146c:	00e87d63          	bgeu	a6,a4,80001486 <upsampleCrH+0xe6>
C:\NucleiStudio_workspace3\simple_world\Debug/../src/picojpeg.c:1469
   b = a - b;
80001470:	01071293          	slli	t0,a4,0x10
80001474:	4102d293          	srai	t0,t0,0x10
C:\NucleiStudio_workspace3\simple_world\Debug/../src/picojpeg.c:1474
         return 0;
80001478:	4681                	li	a3,0
C:\NucleiStudio_workspace3\simple_world\Debug/../src/picojpeg.c:1473
      if (b < 0)
8000147a:	0002c863          	bltz	t0,8000148a <upsampleCrH+0xea>
C:\NucleiStudio_workspace3\simple_world\Debug/../src/picojpeg.c:1476
         return 255;
8000147e:	0ff00693          	li	a3,255
C:\NucleiStudio_workspace3\simple_world\Debug/../src/picojpeg.c:1475
      else if (b > 255)
80001482:	00584463          	blt	a6,t0,8000148a <upsampleCrH+0xea>
C:\NucleiStudio_workspace3\simple_world\Debug/../src/picojpeg.c:1479
   return (uint8)b;
80001486:	0ff77693          	andi	a3,a4,255
C:\NucleiStudio_workspace3\simple_world\Debug/../src/picojpeg.c:1469
   b = a - b;
8000148a:	00154703          	lbu	a4,1(a0)
upsampleCrH():
C:\NucleiStudio_workspace3\simple_world\Debug/../src/picojpeg.c:1657
         pDstG[0] = subAndClamp(pDstG[0], crG);
8000148e:	00d50023          	sb	a3,0(a0)
subAndClamp():
C:\NucleiStudio_workspace3\simple_world\Debug/../src/picojpeg.c:1469
   b = a - b;
80001492:	40f707b3          	sub	a5,a4,a5
80001496:	07c2                	slli	a5,a5,0x10
80001498:	83c1                	srli	a5,a5,0x10
C:\NucleiStudio_workspace3\simple_world\Debug/../src/picojpeg.c:1471
   if ((uint16)b > 255U)
8000149a:	00f87c63          	bgeu	a6,a5,800014b2 <upsampleCrH+0x112>
C:\NucleiStudio_workspace3\simple_world\Debug/../src/picojpeg.c:1469
   b = a - b;
8000149e:	01079693          	slli	a3,a5,0x10
800014a2:	86c1                	srai	a3,a3,0x10
C:\NucleiStudio_workspace3\simple_world\Debug/../src/picojpeg.c:1474
         return 0;
800014a4:	4701                	li	a4,0
C:\NucleiStudio_workspace3\simple_world\Debug/../src/picojpeg.c:1473
      if (b < 0)
800014a6:	0006c863          	bltz	a3,800014b6 <upsampleCrH+0x116>
C:\NucleiStudio_workspace3\simple_world\Debug/../src/picojpeg.c:1476
         return 255;
800014aa:	0ff00713          	li	a4,255
C:\NucleiStudio_workspace3\simple_world\Debug/../src/picojpeg.c:1475
      else if (b > 255)
800014ae:	00d84463          	blt	a6,a3,800014b6 <upsampleCrH+0x116>
C:\NucleiStudio_workspace3\simple_world\Debug/../src/picojpeg.c:1479
   return (uint8)b;
800014b2:	0ff7f713          	andi	a4,a5,255
upsampleCrH():
C:\NucleiStudio_workspace3\simple_world\Debug/../src/picojpeg.c:1658
         pDstG[1] = subAndClamp(pDstG[1], crG);
800014b6:	00e500a3          	sb	a4,1(a0)
C:\NucleiStudio_workspace3\simple_world\Debug/../src/picojpeg.c:1660
         
         pDstR += 2;
800014ba:	0609                	addi	a2,a2,2
C:\NucleiStudio_workspace3\simple_world\Debug/../src/picojpeg.c:1661
         pDstG += 2;
800014bc:	0509                	addi	a0,a0,2
C:\NucleiStudio_workspace3\simple_world\Debug/../src/picojpeg.c:1647
      for (x = 0; x < 4; x++)
800014be:	f0689fe3          	bne	a7,t1,800013dc <upsampleCrH+0x3c>
800014c2:	01088313          	addi	t1,a7,16
800014c6:	0f21                	addi	t5,t5,8
800014c8:	05a1                	addi	a1,a1,8
C:\NucleiStudio_workspace3\simple_world\Debug/../src/picojpeg.c:1645 (discriminator 2)
   for (y = 0; y < 8; y++)
800014ca:	f06f95e3          	bne	t6,t1,800013d4 <upsampleCrH+0x34>
C:\NucleiStudio_workspace3\simple_world\Debug/../src/picojpeg.c:1666
      }

      pSrc = pSrc - 4 + 8;
   }
}   
800014ce:	8082                	ret

800014d0 <upsampleCrV>:
upsampleCrV():
C:\NucleiStudio_workspace3\simple_world\Debug/../src/picojpeg.c:1674
static void upsampleCrV(uint8 srcOfs, uint8 dstOfs)
{
   // Cr - affects R and G
   uint8 x, y;
   int16* pSrc = gCoeffBuf + srcOfs;
   uint8* pDstR = gMCUBufR + dstOfs;
800014d0:	9000bf37          	lui	t5,0x9000b
C:\NucleiStudio_workspace3\simple_world\Debug/../src/picojpeg.c:1673
   int16* pSrc = gCoeffBuf + srcOfs;
800014d4:	0506                	slli	a0,a0,0x1
C:\NucleiStudio_workspace3\simple_world\Debug/../src/picojpeg.c:1674
   uint8* pDstR = gMCUBufR + dstOfs;
800014d6:	dfcf0f13          	addi	t5,t5,-516 # 9000adfc <_sp+0xffffadfc>
C:\NucleiStudio_workspace3\simple_world\Debug/../src/picojpeg.c:1675
   uint8* pDstG = gMCUBufG + dstOfs;
800014da:	9000b7b7          	lui	a5,0x9000b
800014de:	9000a337          	lui	t1,0x9000a
C:\NucleiStudio_workspace3\simple_world\Debug/../src/picojpeg.c:1674
   uint8* pDstR = gMCUBufR + dstOfs;
800014e2:	9f2e                	add	t5,t5,a1
C:\NucleiStudio_workspace3\simple_world\Debug/../src/picojpeg.c:1675
   uint8* pDstG = gMCUBufG + dstOfs;
800014e4:	0541                	addi	a0,a0,16
800014e6:	cfc78793          	addi	a5,a5,-772 # 9000acfc <_sp+0xffffacfc>
800014ea:	71c30313          	addi	t1,t1,1820 # 9000a71c <_sp+0xffffa71c>
800014ee:	95be                	add	a1,a1,a5
C:\NucleiStudio_workspace3\simple_world\Debug/../src/picojpeg.c:1676
   for (y = 0; y < 4; y++)
800014f0:	932a                	add	t1,t1,a0
800014f2:	040f0f93          	addi	t6,t5,64
C:\NucleiStudio_workspace3\simple_world\Debug/../src/picojpeg.c:1683
      for (x = 0; x < 8; x++)
      {
         uint8 cr = (uint8)*pSrc++;
         int16 crR, crG;

         crR = (cr + ((cr * 103U) >> 8U)) - 179;
800014f6:	06700e93          	li	t4,103
addAndClamp():
C:\NucleiStudio_workspace3\simple_world\Debug/../src/picojpeg.c:1456
   if ((uint16)b > 255U)
800014fa:	0ff00813          	li	a6,255
upsampleCrV():
C:\NucleiStudio_workspace3\simple_world\Debug/../src/picojpeg.c:1687
         pDstR[0] = addAndClamp(pDstR[0], crR);
         pDstR[8] = addAndClamp(pDstR[8], crR);

         crG = ((cr * 183U) >> 8U) - 91;
800014fe:	0b700e13          	li	t3,183
80001502:	ff030893          	addi	a7,t1,-16
C:\NucleiStudio_workspace3\simple_world\Debug/../src/picojpeg.c:1670
{
80001506:	852e                	mv	a0,a1
80001508:	867a                	mv	a2,t5
C:\NucleiStudio_workspace3\simple_world\Debug/../src/picojpeg.c:1680 (discriminator 3)
         uint8 cr = (uint8)*pSrc++;
8000150a:	0889                	addi	a7,a7,2
8000150c:	ffe89703          	lh	a4,-2(a7)
addAndClamp():
C:\NucleiStudio_workspace3\simple_world\Debug/../src/picojpeg.c:1454 (discriminator 3)
   b = a + b;
80001510:	00064283          	lbu	t0,0(a2)
upsampleCrV():
C:\NucleiStudio_workspace3\simple_world\Debug/../src/picojpeg.c:1683 (discriminator 3)
         crR = (cr + ((cr * 103U) >> 8U)) - 179;
80001514:	0ff77693          	andi	a3,a4,255
80001518:	03d683b3          	mul	t2,a3,t4
8000151c:	0ff77793          	andi	a5,a4,255
80001520:	f4d78793          	addi	a5,a5,-179
80001524:	0083d713          	srli	a4,t2,0x8
80001528:	97ba                	add	a5,a5,a4
8000152a:	07c2                	slli	a5,a5,0x10
8000152c:	83c1                	srli	a5,a5,0x10
addAndClamp():
C:\NucleiStudio_workspace3\simple_world\Debug/../src/picojpeg.c:1454 (discriminator 3)
   b = a + b;
8000152e:	00578733          	add	a4,a5,t0
80001532:	0742                	slli	a4,a4,0x10
80001534:	8341                	srli	a4,a4,0x10
C:\NucleiStudio_workspace3\simple_world\Debug/../src/picojpeg.c:1456 (discriminator 3)
   if ((uint16)b > 255U)
80001536:	00e87d63          	bgeu	a6,a4,80001550 <upsampleCrV+0x80>
C:\NucleiStudio_workspace3\simple_world\Debug/../src/picojpeg.c:1454
   b = a + b;
8000153a:	01071393          	slli	t2,a4,0x10
8000153e:	4103d393          	srai	t2,t2,0x10
C:\NucleiStudio_workspace3\simple_world\Debug/../src/picojpeg.c:1459
         return 0;
80001542:	4281                	li	t0,0
C:\NucleiStudio_workspace3\simple_world\Debug/../src/picojpeg.c:1458
      if (b < 0)
80001544:	0003c863          	bltz	t2,80001554 <upsampleCrV+0x84>
C:\NucleiStudio_workspace3\simple_world\Debug/../src/picojpeg.c:1461
         return 255;
80001548:	0ff00293          	li	t0,255
C:\NucleiStudio_workspace3\simple_world\Debug/../src/picojpeg.c:1460
      else if (b > 255)
8000154c:	00784463          	blt	a6,t2,80001554 <upsampleCrV+0x84>
C:\NucleiStudio_workspace3\simple_world\Debug/../src/picojpeg.c:1464
   return (uint8)b;
80001550:	0ff77293          	andi	t0,a4,255
C:\NucleiStudio_workspace3\simple_world\Debug/../src/picojpeg.c:1454
   b = a + b;
80001554:	00864703          	lbu	a4,8(a2)
upsampleCrV():
C:\NucleiStudio_workspace3\simple_world\Debug/../src/picojpeg.c:1684
         pDstR[0] = addAndClamp(pDstR[0], crR);
80001558:	00560023          	sb	t0,0(a2)
addAndClamp():
C:\NucleiStudio_workspace3\simple_world\Debug/../src/picojpeg.c:1454
   b = a + b;
8000155c:	97ba                	add	a5,a5,a4
8000155e:	07c2                	slli	a5,a5,0x10
80001560:	83c1                	srli	a5,a5,0x10
C:\NucleiStudio_workspace3\simple_world\Debug/../src/picojpeg.c:1456
   if ((uint16)b > 255U)
80001562:	00f87c63          	bgeu	a6,a5,8000157a <upsampleCrV+0xaa>
C:\NucleiStudio_workspace3\simple_world\Debug/../src/picojpeg.c:1454
   b = a + b;
80001566:	01079713          	slli	a4,a5,0x10
8000156a:	8741                	srai	a4,a4,0x10
C:\NucleiStudio_workspace3\simple_world\Debug/../src/picojpeg.c:1459
         return 0;
8000156c:	4281                	li	t0,0
C:\NucleiStudio_workspace3\simple_world\Debug/../src/picojpeg.c:1458
      if (b < 0)
8000156e:	00074863          	bltz	a4,8000157e <upsampleCrV+0xae>
C:\NucleiStudio_workspace3\simple_world\Debug/../src/picojpeg.c:1461
         return 255;
80001572:	0ff00293          	li	t0,255
C:\NucleiStudio_workspace3\simple_world\Debug/../src/picojpeg.c:1460
      else if (b > 255)
80001576:	00e84463          	blt	a6,a4,8000157e <upsampleCrV+0xae>
C:\NucleiStudio_workspace3\simple_world\Debug/../src/picojpeg.c:1464
   return (uint8)b;
8000157a:	0ff7f293          	andi	t0,a5,255
upsampleCrV():
C:\NucleiStudio_workspace3\simple_world\Debug/../src/picojpeg.c:1687
         crG = ((cr * 183U) >> 8U) - 91;
8000157e:	03c687b3          	mul	a5,a3,t3
subAndClamp():
C:\NucleiStudio_workspace3\simple_world\Debug/../src/picojpeg.c:1469
   b = a - b;
80001582:	00054703          	lbu	a4,0(a0)
upsampleCrV():
C:\NucleiStudio_workspace3\simple_world\Debug/../src/picojpeg.c:1685
         pDstR[8] = addAndClamp(pDstR[8], crR);
80001586:	00560423          	sb	t0,8(a2)
C:\NucleiStudio_workspace3\simple_world\Debug/../src/picojpeg.c:1687
         crG = ((cr * 183U) >> 8U) - 91;
8000158a:	83a1                	srli	a5,a5,0x8
8000158c:	fa578793          	addi	a5,a5,-91
80001590:	07c2                	slli	a5,a5,0x10
80001592:	83c1                	srli	a5,a5,0x10
subAndClamp():
C:\NucleiStudio_workspace3\simple_world\Debug/../src/picojpeg.c:1469
   b = a - b;
80001594:	8f1d                	sub	a4,a4,a5
80001596:	0742                	slli	a4,a4,0x10
80001598:	8341                	srli	a4,a4,0x10
C:\NucleiStudio_workspace3\simple_world\Debug/../src/picojpeg.c:1471
   if ((uint16)b > 255U)
8000159a:	00e87d63          	bgeu	a6,a4,800015b4 <upsampleCrV+0xe4>
C:\NucleiStudio_workspace3\simple_world\Debug/../src/picojpeg.c:1469
   b = a - b;
8000159e:	01071293          	slli	t0,a4,0x10
800015a2:	4102d293          	srai	t0,t0,0x10
C:\NucleiStudio_workspace3\simple_world\Debug/../src/picojpeg.c:1474
         return 0;
800015a6:	4681                	li	a3,0
C:\NucleiStudio_workspace3\simple_world\Debug/../src/picojpeg.c:1473
      if (b < 0)
800015a8:	0002c863          	bltz	t0,800015b8 <upsampleCrV+0xe8>
C:\NucleiStudio_workspace3\simple_world\Debug/../src/picojpeg.c:1476
         return 255;
800015ac:	0ff00693          	li	a3,255
C:\NucleiStudio_workspace3\simple_world\Debug/../src/picojpeg.c:1475
      else if (b > 255)
800015b0:	00584463          	blt	a6,t0,800015b8 <upsampleCrV+0xe8>
C:\NucleiStudio_workspace3\simple_world\Debug/../src/picojpeg.c:1479
   return (uint8)b;
800015b4:	0ff77693          	andi	a3,a4,255
C:\NucleiStudio_workspace3\simple_world\Debug/../src/picojpeg.c:1469
   b = a - b;
800015b8:	00854703          	lbu	a4,8(a0)
upsampleCrV():
C:\NucleiStudio_workspace3\simple_world\Debug/../src/picojpeg.c:1688
         pDstG[0] = subAndClamp(pDstG[0], crG);
800015bc:	00d50023          	sb	a3,0(a0)
subAndClamp():
C:\NucleiStudio_workspace3\simple_world\Debug/../src/picojpeg.c:1469
   b = a - b;
800015c0:	40f707b3          	sub	a5,a4,a5
800015c4:	07c2                	slli	a5,a5,0x10
800015c6:	83c1                	srli	a5,a5,0x10
C:\NucleiStudio_workspace3\simple_world\Debug/../src/picojpeg.c:1471
   if ((uint16)b > 255U)
800015c8:	00f87c63          	bgeu	a6,a5,800015e0 <upsampleCrV+0x110>
C:\NucleiStudio_workspace3\simple_world\Debug/../src/picojpeg.c:1469
   b = a - b;
800015cc:	01079693          	slli	a3,a5,0x10
800015d0:	86c1                	srai	a3,a3,0x10
C:\NucleiStudio_workspace3\simple_world\Debug/../src/picojpeg.c:1474
         return 0;
800015d2:	4701                	li	a4,0
C:\NucleiStudio_workspace3\simple_world\Debug/../src/picojpeg.c:1473
      if (b < 0)
800015d4:	0006c863          	bltz	a3,800015e4 <upsampleCrV+0x114>
C:\NucleiStudio_workspace3\simple_world\Debug/../src/picojpeg.c:1476
         return 255;
800015d8:	0ff00713          	li	a4,255
C:\NucleiStudio_workspace3\simple_world\Debug/../src/picojpeg.c:1475
      else if (b > 255)
800015dc:	00d84463          	blt	a6,a3,800015e4 <upsampleCrV+0x114>
C:\NucleiStudio_workspace3\simple_world\Debug/../src/picojpeg.c:1479
   return (uint8)b;
800015e0:	0ff7f713          	andi	a4,a5,255
upsampleCrV():
C:\NucleiStudio_workspace3\simple_world\Debug/../src/picojpeg.c:1689
         pDstG[8] = subAndClamp(pDstG[8], crG);
800015e4:	00e50423          	sb	a4,8(a0)
C:\NucleiStudio_workspace3\simple_world\Debug/../src/picojpeg.c:1691

         ++pDstR;
800015e8:	0605                	addi	a2,a2,1
C:\NucleiStudio_workspace3\simple_world\Debug/../src/picojpeg.c:1692
         ++pDstG;
800015ea:	0505                	addi	a0,a0,1
C:\NucleiStudio_workspace3\simple_world\Debug/../src/picojpeg.c:1678
      for (x = 0; x < 8; x++)
800015ec:	f0689fe3          	bne	a7,t1,8000150a <upsampleCrV+0x3a>
C:\NucleiStudio_workspace3\simple_world\Debug/../src/picojpeg.c:1695 (discriminator 2)
      }

      pDstR = pDstR - 8 + 16;
800015f0:	0f41                	addi	t5,t5,16
C:\NucleiStudio_workspace3\simple_world\Debug/../src/picojpeg.c:1696 (discriminator 2)
      pDstG = pDstG - 8 + 16;
800015f2:	05c1                	addi	a1,a1,16
800015f4:	01088313          	addi	t1,a7,16
C:\NucleiStudio_workspace3\simple_world\Debug/../src/picojpeg.c:1676 (discriminator 2)
   for (y = 0; y < 4; y++)
800015f8:	f1ff15e3          	bne	t5,t6,80001502 <upsampleCrV+0x32>
C:\NucleiStudio_workspace3\simple_world\Debug/../src/picojpeg.c:1698
   }
} 
800015fc:	8082                	ret

800015fe <getChar>:
getChar():
C:\NucleiStudio_workspace3\simple_world\Debug/../src/picojpeg.c:242
{
800015fe:	1141                	addi	sp,sp,-16
80001600:	c04a                	sw	s2,0(sp)
C:\NucleiStudio_workspace3\simple_world\Debug/../src/picojpeg.c:243
   if (!gInBufLeft)
80001602:	88618913          	addi	s2,gp,-1914 # 900009d6 <gInBufLeft>
80001606:	00094783          	lbu	a5,0(s2)
C:\NucleiStudio_workspace3\simple_world\Debug/../src/picojpeg.c:242
{
8000160a:	c606                	sw	ra,12(sp)
8000160c:	c422                	sw	s0,8(sp)
8000160e:	c226                	sw	s1,4(sp)
C:\NucleiStudio_workspace3\simple_world\Debug/../src/picojpeg.c:243
   if (!gInBufLeft)
80001610:	cb85                	beqz	a5,80001640 <getChar+0x42>
80001612:	9000b437          	lui	s0,0x9000b
80001616:	88718493          	addi	s1,gp,-1913 # 900009d7 <gInBufOfs>
8000161a:	afc40413          	addi	s0,s0,-1284 # 9000aafc <_sp+0xffffaafc>
C:\NucleiStudio_workspace3\simple_world\Debug/../src/picojpeg.c:254
   return gInBuf[gInBufOfs++];
8000161e:	0004c703          	lbu	a4,0(s1)
C:\NucleiStudio_workspace3\simple_world\Debug/../src/picojpeg.c:255
}
80001622:	40b2                	lw	ra,12(sp)
C:\NucleiStudio_workspace3\simple_world\Debug/../src/picojpeg.c:253
   gInBufLeft--;
80001624:	17fd                	addi	a5,a5,-1
C:\NucleiStudio_workspace3\simple_world\Debug/../src/picojpeg.c:254
   return gInBuf[gInBufOfs++];
80001626:	943a                	add	s0,s0,a4
80001628:	00044503          	lbu	a0,0(s0)
C:\NucleiStudio_workspace3\simple_world\Debug/../src/picojpeg.c:255
}
8000162c:	4422                	lw	s0,8(sp)
C:\NucleiStudio_workspace3\simple_world\Debug/../src/picojpeg.c:254
   return gInBuf[gInBufOfs++];
8000162e:	0705                	addi	a4,a4,1
C:\NucleiStudio_workspace3\simple_world\Debug/../src/picojpeg.c:253
   gInBufLeft--;
80001630:	00f90023          	sb	a5,0(s2)
C:\NucleiStudio_workspace3\simple_world\Debug/../src/picojpeg.c:254
   return gInBuf[gInBufOfs++];
80001634:	00e48023          	sb	a4,0(s1)
C:\NucleiStudio_workspace3\simple_world\Debug/../src/picojpeg.c:255
}
80001638:	4902                	lw	s2,0(sp)
8000163a:	4492                	lw	s1,4(sp)
8000163c:	0141                	addi	sp,sp,16
8000163e:	8082                	ret
fillInBuf():
C:\NucleiStudio_workspace3\simple_world\Debug/../src/picojpeg.c:232
   status = (*g_pNeedBytesCallback)(gInBuf + gInBufOfs, PJPG_MAX_IN_BUF_SIZE - gInBufOfs, &gInBufLeft, g_pCallback_data);
80001640:	8b41a683          	lw	a3,-1868(gp) # 90000a04 <g_pCallback_data>
80001644:	9000b437          	lui	s0,0x9000b
80001648:	8b81a783          	lw	a5,-1864(gp) # 90000a08 <g_pNeedBytesCallback>
8000164c:	afc40413          	addi	s0,s0,-1284 # 9000aafc <_sp+0xffffaafc>
C:\NucleiStudio_workspace3\simple_world\Debug/../src/picojpeg.c:229
   gInBufOfs = 4;
80001650:	88718493          	addi	s1,gp,-1913 # 900009d7 <gInBufOfs>
80001654:	4711                	li	a4,4
C:\NucleiStudio_workspace3\simple_world\Debug/../src/picojpeg.c:230
   gInBufLeft = 0;
80001656:	00090023          	sb	zero,0(s2)
C:\NucleiStudio_workspace3\simple_world\Debug/../src/picojpeg.c:232
   status = (*g_pNeedBytesCallback)(gInBuf + gInBufOfs, PJPG_MAX_IN_BUF_SIZE - gInBufOfs, &gInBufLeft, g_pCallback_data);
8000165a:	88618613          	addi	a2,gp,-1914 # 900009d6 <gInBufLeft>
8000165e:	0fc00593          	li	a1,252
80001662:	00440513          	addi	a0,s0,4
C:\NucleiStudio_workspace3\simple_world\Debug/../src/picojpeg.c:229
   gInBufOfs = 4;
80001666:	00e48023          	sb	a4,0(s1)
C:\NucleiStudio_workspace3\simple_world\Debug/../src/picojpeg.c:232
   status = (*g_pNeedBytesCallback)(gInBuf + gInBufOfs, PJPG_MAX_IN_BUF_SIZE - gInBufOfs, &gInBufLeft, g_pCallback_data);
8000166a:	9782                	jalr	a5
C:\NucleiStudio_workspace3\simple_world\Debug/../src/picojpeg.c:233
   if (status)
8000166c:	c119                	beqz	a0,80001672 <getChar+0x74>
C:\NucleiStudio_workspace3\simple_world\Debug/../src/picojpeg.c:237
      gCallbackStatus = status;
8000166e:	86a181a3          	sb	a0,-1949(gp) # 900009b3 <gCallbackStatus>
getChar():
C:\NucleiStudio_workspace3\simple_world\Debug/../src/picojpeg.c:246
      if (!gInBufLeft)
80001672:	00094783          	lbu	a5,0(s2)
80001676:	f7c5                	bnez	a5,8000161e <getChar+0x20>
C:\NucleiStudio_workspace3\simple_world\Debug/../src/picojpeg.c:248
         gTemFlag = ~gTemFlag;
80001678:	8b018713          	addi	a4,gp,-1872 # 90000a00 <gTemFlag>
8000167c:	00074783          	lbu	a5,0(a4)
80001680:	fff7c793          	not	a5,a5
80001684:	0ff7f793          	andi	a5,a5,255
80001688:	00f70023          	sb	a5,0(a4)
C:\NucleiStudio_workspace3\simple_world\Debug/../src/picojpeg.c:255
}
8000168c:	40b2                	lw	ra,12(sp)
8000168e:	4422                	lw	s0,8(sp)
C:\NucleiStudio_workspace3\simple_world\Debug/../src/picojpeg.c:249
         return gTemFlag ? 0xFF : 0xD9;
80001690:	00f03533          	snez	a0,a5
80001694:	40a00533          	neg	a0,a0
80001698:	02657513          	andi	a0,a0,38
C:\NucleiStudio_workspace3\simple_world\Debug/../src/picojpeg.c:255
}
8000169c:	4492                	lw	s1,4(sp)
8000169e:	4902                	lw	s2,0(sp)
C:\NucleiStudio_workspace3\simple_world\Debug/../src/picojpeg.c:249
         return gTemFlag ? 0xFF : 0xD9;
800016a0:	0d950513          	addi	a0,a0,217
C:\NucleiStudio_workspace3\simple_world\Debug/../src/picojpeg.c:255
}
800016a4:	0141                	addi	sp,sp,16
800016a6:	8082                	ret

800016a8 <getOctet.part.1>:
getOctet():
C:\NucleiStudio_workspace3\simple_world\Debug/../src/picojpeg.c:264
static PJPG_INLINE uint8 getOctet(uint8 FFCheck)
800016a8:	1141                	addi	sp,sp,-16
800016aa:	c606                	sw	ra,12(sp)
C:\NucleiStudio_workspace3\simple_world\Debug/../src/picojpeg.c:270
      uint8 n = getChar();
800016ac:	3f89                	jal	800015fe <getChar>
C:\NucleiStudio_workspace3\simple_world\Debug/../src/picojpeg.c:272
      if (n)
800016ae:	c121                	beqz	a0,800016ee <getOctet.part.1+0x46>
stuffChar():
C:\NucleiStudio_workspace3\simple_world\Debug/../src/picojpeg.c:259
   gInBufOfs--;
800016b0:	88718593          	addi	a1,gp,-1913 # 900009d7 <gInBufOfs>
800016b4:	0005c783          	lbu	a5,0(a1)
C:\NucleiStudio_workspace3\simple_world\Debug/../src/picojpeg.c:261
   gInBufLeft++;
800016b8:	88618613          	addi	a2,gp,-1914 # 900009d6 <gInBufLeft>
800016bc:	00064803          	lbu	a6,0(a2)
C:\NucleiStudio_workspace3\simple_world\Debug/../src/picojpeg.c:259
   gInBufOfs--;
800016c0:	fff78693          	addi	a3,a5,-1
C:\NucleiStudio_workspace3\simple_world\Debug/../src/picojpeg.c:260
   gInBuf[gInBufOfs] = i;
800016c4:	9000b737          	lui	a4,0x9000b
800016c8:	afc70713          	addi	a4,a4,-1284 # 9000aafc <_sp+0xffffaafc>
800016cc:	0ff6f693          	andi	a3,a3,255
C:\NucleiStudio_workspace3\simple_world\Debug/../src/picojpeg.c:259
   gInBufOfs--;
800016d0:	17f9                	addi	a5,a5,-2
800016d2:	0ff7f793          	andi	a5,a5,255
C:\NucleiStudio_workspace3\simple_world\Debug/../src/picojpeg.c:260
   gInBuf[gInBufOfs] = i;
800016d6:	96ba                	add	a3,a3,a4
800016d8:	00a68023          	sb	a0,0(a3)
800016dc:	973e                	add	a4,a4,a5
C:\NucleiStudio_workspace3\simple_world\Debug/../src/picojpeg.c:261
   gInBufLeft++;
800016de:	0809                	addi	a6,a6,2
C:\NucleiStudio_workspace3\simple_world\Debug/../src/picojpeg.c:259
   gInBufOfs--;
800016e0:	00f58023          	sb	a5,0(a1)
C:\NucleiStudio_workspace3\simple_world\Debug/../src/picojpeg.c:260
   gInBuf[gInBufOfs] = i;
800016e4:	57fd                	li	a5,-1
800016e6:	00f70023          	sb	a5,0(a4)
C:\NucleiStudio_workspace3\simple_world\Debug/../src/picojpeg.c:261
   gInBufLeft++;
800016ea:	01060023          	sb	a6,0(a2)
getOctet():
C:\NucleiStudio_workspace3\simple_world\Debug/../src/picojpeg.c:280
}
800016ee:	40b2                	lw	ra,12(sp)
800016f0:	0141                	addi	sp,sp,16
800016f2:	8082                	ret

800016f4 <getBits>:
getBits():
C:\NucleiStudio_workspace3\simple_world\Debug/../src/picojpeg.c:283
{
800016f4:	7179                	addi	sp,sp,-48
800016f6:	d422                	sw	s0,40(sp)
800016f8:	d226                	sw	s1,36(sp)
800016fa:	cc52                	sw	s4,24(sp)
800016fc:	ca56                	sw	s5,20(sp)
800016fe:	c85a                	sw	s6,16(sp)
C:\NucleiStudio_workspace3\simple_world\Debug/../src/picojpeg.c:285
   uint16 ret = gBitBuf;
80001700:	86018413          	addi	s0,gp,-1952 # 900009b0 <gBitBuf>
80001704:	86218493          	addi	s1,gp,-1950 # 900009b2 <gBitsLeft>
C:\NucleiStudio_workspace3\simple_world\Debug/../src/picojpeg.c:283
{
80001708:	d606                	sw	ra,44(sp)
8000170a:	d04a                	sw	s2,32(sp)
8000170c:	ce4e                	sw	s3,28(sp)
C:\NucleiStudio_workspace3\simple_world\Debug/../src/picojpeg.c:287
   if (numBits > 8)
8000170e:	4721                	li	a4,8
C:\NucleiStudio_workspace3\simple_world\Debug/../src/picojpeg.c:285
   uint16 ret = gBitBuf;
80001710:	00045a83          	lhu	s5,0(s0)
C:\NucleiStudio_workspace3\simple_world\Debug/../src/picojpeg.c:283
{
80001714:	8a2a                	mv	s4,a0
80001716:	8b2e                	mv	s6,a1
80001718:	0004c683          	lbu	a3,0(s1)
C:\NucleiStudio_workspace3\simple_world\Debug/../src/picojpeg.c:287
   if (numBits > 8)
8000171c:	04a76063          	bltu	a4,a0,8000175c <getBits+0x68>
80001720:	89aa                	mv	s3,a0
C:\NucleiStudio_workspace3\simple_world\Debug/../src/picojpeg.c:300
   if (gBitsLeft < numBits)
80001722:	87d6                	mv	a5,s5
80001724:	8956                	mv	s2,s5
80001726:	0936e463          	bltu	a3,s3,800017ae <getBits+0xba>
C:\NucleiStudio_workspace3\simple_world\Debug/../src/picojpeg.c:312
      gBitsLeft = (uint8)(gBitsLeft - numBits);
8000172a:	41368733          	sub	a4,a3,s3
C:\NucleiStudio_workspace3\simple_world\Debug/../src/picojpeg.c:313
      gBitBuf <<= numBits;
8000172e:	013797b3          	sll	a5,a5,s3
C:\NucleiStudio_workspace3\simple_world\Debug/../src/picojpeg.c:312
      gBitsLeft = (uint8)(gBitsLeft - numBits);
80001732:	00e48023          	sb	a4,0(s1)
C:\NucleiStudio_workspace3\simple_world\Debug/../src/picojpeg.c:313
      gBitBuf <<= numBits;
80001736:	00f41023          	sh	a5,0(s0)
C:\NucleiStudio_workspace3\simple_world\Debug/../src/picojpeg.c:316
   return ret >> (16 - origBits);
8000173a:	4541                	li	a0,16
8000173c:	41450533          	sub	a0,a0,s4
C:\NucleiStudio_workspace3\simple_world\Debug/../src/picojpeg.c:317
}
80001740:	50b2                	lw	ra,44(sp)
80001742:	5422                	lw	s0,40(sp)
C:\NucleiStudio_workspace3\simple_world\Debug/../src/picojpeg.c:316
   return ret >> (16 - origBits);
80001744:	40a95533          	sra	a0,s2,a0
C:\NucleiStudio_workspace3\simple_world\Debug/../src/picojpeg.c:317
}
80001748:	0542                	slli	a0,a0,0x10
8000174a:	5492                	lw	s1,36(sp)
8000174c:	5902                	lw	s2,32(sp)
8000174e:	49f2                	lw	s3,28(sp)
80001750:	4a62                	lw	s4,24(sp)
80001752:	4ad2                	lw	s5,20(sp)
80001754:	4b42                	lw	s6,16(sp)
80001756:	8141                	srli	a0,a0,0x10
80001758:	6145                	addi	sp,sp,48
8000175a:	8082                	ret
C:\NucleiStudio_workspace3\simple_world\Debug/../src/picojpeg.c:291
      gBitBuf <<= gBitsLeft;
8000175c:	00da9733          	sll	a4,s5,a3
C:\NucleiStudio_workspace3\simple_world\Debug/../src/picojpeg.c:289
      numBits -= 8;
80001760:	ff850793          	addi	a5,a0,-8
80001764:	0ff7f993          	andi	s3,a5,255
C:\NucleiStudio_workspace3\simple_world\Debug/../src/picojpeg.c:291
      gBitBuf <<= gBitsLeft;
80001768:	00e41023          	sh	a4,0(s0)
getOctet():
C:\NucleiStudio_workspace3\simple_world\Debug/../src/picojpeg.c:266
   uint8 c = getChar();
8000176c:	3d49                	jal	800015fe <getChar>
C:\NucleiStudio_workspace3\simple_world\Debug/../src/picojpeg.c:268
   if ((FFCheck) && (c == 0xFF))
8000176e:	000b0663          	beqz	s6,8000177a <getBits+0x86>
80001772:	0ff00793          	li	a5,255
80001776:	06f50a63          	beq	a0,a5,800017ea <getBits+0xf6>
getBits():
C:\NucleiStudio_workspace3\simple_world\Debug/../src/picojpeg.c:293
      gBitBuf |= getOctet(FFCheck);
8000177a:	00045703          	lhu	a4,0(s0)
C:\NucleiStudio_workspace3\simple_world\Debug/../src/picojpeg.c:295
      gBitBuf <<= (8 - gBitsLeft);
8000177e:	0004c683          	lbu	a3,0(s1)
80001782:	47a1                	li	a5,8
C:\NucleiStudio_workspace3\simple_world\Debug/../src/picojpeg.c:293
      gBitBuf |= getOctet(FFCheck);
80001784:	8f49                	or	a4,a4,a0
C:\NucleiStudio_workspace3\simple_world\Debug/../src/picojpeg.c:295
      gBitBuf <<= (8 - gBitsLeft);
80001786:	0742                	slli	a4,a4,0x10
80001788:	8f95                	sub	a5,a5,a3
8000178a:	8341                	srli	a4,a4,0x10
8000178c:	00f71733          	sll	a4,a4,a5
80001790:	01071913          	slli	s2,a4,0x10
80001794:	01095913          	srli	s2,s2,0x10
C:\NucleiStudio_workspace3\simple_world\Debug/../src/picojpeg.c:297
      ret = (ret & 0xFF00) | (gBitBuf >> 8);
80001798:	f00afa93          	andi	s5,s5,-256
8000179c:	00895913          	srli	s2,s2,0x8
800017a0:	01071793          	slli	a5,a4,0x10
800017a4:	83c1                	srli	a5,a5,0x10
800017a6:	012ae933          	or	s2,s5,s2
C:\NucleiStudio_workspace3\simple_world\Debug/../src/picojpeg.c:300
   if (gBitsLeft < numBits)
800017aa:	f936f0e3          	bgeu	a3,s3,8000172a <getBits+0x36>
C:\NucleiStudio_workspace3\simple_world\Debug/../src/picojpeg.c:302
      gBitBuf <<= gBitsLeft;
800017ae:	00d79733          	sll	a4,a5,a3
800017b2:	00e41023          	sh	a4,0(s0)
getOctet():
C:\NucleiStudio_workspace3\simple_world\Debug/../src/picojpeg.c:266
   uint8 c = getChar();
800017b6:	35a1                	jal	800015fe <getChar>
C:\NucleiStudio_workspace3\simple_world\Debug/../src/picojpeg.c:268
   if ((FFCheck) && (c == 0xFF))
800017b8:	000b0663          	beqz	s6,800017c4 <getBits+0xd0>
800017bc:	0ff00793          	li	a5,255
800017c0:	02f50963          	beq	a0,a5,800017f2 <getBits+0xfe>
getBits():
C:\NucleiStudio_workspace3\simple_world\Debug/../src/picojpeg.c:304
      gBitBuf |= getOctet(FFCheck);
800017c4:	00045703          	lhu	a4,0(s0)
C:\NucleiStudio_workspace3\simple_world\Debug/../src/picojpeg.c:306
      gBitBuf <<= (numBits - gBitsLeft);
800017c8:	0004c783          	lbu	a5,0(s1)
C:\NucleiStudio_workspace3\simple_world\Debug/../src/picojpeg.c:304
      gBitBuf |= getOctet(FFCheck);
800017cc:	8d59                	or	a0,a0,a4
C:\NucleiStudio_workspace3\simple_world\Debug/../src/picojpeg.c:306
      gBitBuf <<= (numBits - gBitsLeft);
800017ce:	0542                	slli	a0,a0,0x10
800017d0:	40f98733          	sub	a4,s3,a5
800017d4:	8141                	srli	a0,a0,0x10
C:\NucleiStudio_workspace3\simple_world\Debug/../src/picojpeg.c:308
      gBitsLeft = 8 - (numBits - gBitsLeft);
800017d6:	07a1                	addi	a5,a5,8
C:\NucleiStudio_workspace3\simple_world\Debug/../src/picojpeg.c:306
      gBitBuf <<= (numBits - gBitsLeft);
800017d8:	00e51533          	sll	a0,a0,a4
C:\NucleiStudio_workspace3\simple_world\Debug/../src/picojpeg.c:308
      gBitsLeft = 8 - (numBits - gBitsLeft);
800017dc:	413787b3          	sub	a5,a5,s3
C:\NucleiStudio_workspace3\simple_world\Debug/../src/picojpeg.c:306
      gBitBuf <<= (numBits - gBitsLeft);
800017e0:	00a41023          	sh	a0,0(s0)
C:\NucleiStudio_workspace3\simple_world\Debug/../src/picojpeg.c:308
      gBitsLeft = 8 - (numBits - gBitsLeft);
800017e4:	00f48023          	sb	a5,0(s1)
800017e8:	bf89                	j	8000173a <getBits+0x46>
800017ea:	c62a                	sw	a0,12(sp)
getOctet():
C:\NucleiStudio_workspace3\simple_world\Debug/../src/picojpeg.c:308
800017ec:	3d75                	jal	800016a8 <getOctet.part.1>
800017ee:	4532                	lw	a0,12(sp)
800017f0:	b769                	j	8000177a <getBits+0x86>
800017f2:	c62a                	sw	a0,12(sp)
800017f4:	3d55                	jal	800016a8 <getOctet.part.1>
800017f6:	4532                	lw	a0,12(sp)
800017f8:	b7f1                	j	800017c4 <getBits+0xd0>

800017fa <processMarkers>:
processMarkers():
C:\NucleiStudio_workspace3\simple_world\Debug/../src/picojpeg.c:763
{
800017fa:	711d                	addi	sp,sp,-96
800017fc:	c0da                	sw	s6,64(sp)
800017fe:	9000bb37          	lui	s6,0x9000b
80001802:	c4d2                	sw	s4,72(sp)
80001804:	f7cb0a13          	addi	s4,s6,-132 # 9000af7c <_sp+0xffffaf7c>
80001808:	c2d6                	sw	s5,68(sp)
8000180a:	de5e                	sw	s7,60(sp)
8000180c:	ce86                	sw	ra,92(sp)
8000180e:	cca2                	sw	s0,88(sp)
80001810:	caa6                	sw	s1,84(sp)
80001812:	c8ca                	sw	s2,80(sp)
80001814:	c6ce                	sw	s3,76(sp)
80001816:	dc62                	sw	s8,56(sp)
80001818:	da66                	sw	s9,52(sp)
8000181a:	d86a                	sw	s10,48(sp)
8000181c:	d66e                	sw	s11,44(sp)
8000181e:	9000bab7          	lui	s5,0x9000b
80001822:	c62a                	sw	a0,12(sp)
80001824:	080a0b93          	addi	s7,s4,128
nextMarker():
C:\NucleiStudio_workspace3\simple_world\Debug/../src/picojpeg.c:745
      } while (c != 0xFF);
80001828:	0ff00413          	li	s0,255
getBits1():
C:\NucleiStudio_workspace3\simple_world\Debug/../src/picojpeg.c:321
   return getBits(numBits, 0);
8000182c:	4581                	li	a1,0
8000182e:	4521                	li	a0,8
80001830:	35d1                	jal	800016f4 <getBits>
nextMarker():
C:\NucleiStudio_workspace3\simple_world\Debug/../src/picojpeg.c:745
      } while (c != 0xFF);
80001832:	0ff57513          	andi	a0,a0,255
80001836:	fe851be3          	bne	a0,s0,8000182c <processMarkers+0x32>
getBits1():
C:\NucleiStudio_workspace3\simple_world\Debug/../src/picojpeg.c:321
   return getBits(numBits, 0);
8000183a:	4581                	li	a1,0
8000183c:	4521                	li	a0,8
8000183e:	3d5d                	jal	800016f4 <getBits>
nextMarker():
C:\NucleiStudio_workspace3\simple_world\Debug/../src/picojpeg.c:749
         c = (uint8)getBits1(8);
80001840:	0ff57793          	andi	a5,a0,255
C:\NucleiStudio_workspace3\simple_world\Debug/../src/picojpeg.c:751
      } while (c == 0xFF);
80001844:	fe878be3          	beq	a5,s0,8000183a <processMarkers+0x40>
C:\NucleiStudio_workspace3\simple_world\Debug/../src/picojpeg.c:753
   } while (c == 0);
80001848:	d3f5                	beqz	a5,8000182c <processMarkers+0x32>
processMarkers():
C:\NucleiStudio_workspace3\simple_world\Debug/../src/picojpeg.c:768
      switch (c)
8000184a:	0cb00713          	li	a4,203
8000184e:	02f77c63          	bgeu	a4,a5,80001886 <processMarkers+0x8c>
80001852:	0d700713          	li	a4,215
80001856:	08f77463          	bgeu	a4,a5,800018de <processMarkers+0xe4>
8000185a:	0db00713          	li	a4,219
8000185e:	20e78763          	beq	a5,a4,80001a6c <processMarkers+0x272>
80001862:	04e7e563          	bltu	a5,a4,800018ac <processMarkers+0xb2>
80001866:	0dd00713          	li	a4,221
8000186a:	1ce79d63          	bne	a5,a4,80001a44 <processMarkers+0x24a>
getBits1():
C:\NucleiStudio_workspace3\simple_world\Debug/../src/picojpeg.c:321
   return getBits(numBits, 0);
8000186e:	4581                	li	a1,0
80001870:	4541                	li	a0,16
80001872:	3549                	jal	800016f4 <getBits>
readDRIMarker():
C:\NucleiStudio_workspace3\simple_world\Debug/../src/picojpeg.c:674
   if (getBits1(16) != 4)
80001874:	4791                	li	a5,4
80001876:	faf519e3          	bne	a0,a5,80001828 <processMarkers+0x2e>
getBits1():
C:\NucleiStudio_workspace3\simple_world\Debug/../src/picojpeg.c:321
   return getBits(numBits, 0);
8000187a:	4581                	li	a1,0
8000187c:	4541                	li	a0,16
8000187e:	3d9d                	jal	800016f4 <getBits>
readDRIMarker():
C:\NucleiStudio_workspace3\simple_world\Debug/../src/picojpeg.c:677
   gRestartInterval = getBits1(16);
80001880:	8aa19323          	sh	a0,-1882(gp) # 900009f6 <gRestartInterval>
C:\NucleiStudio_workspace3\simple_world\Debug/../src/picojpeg.c:679
   return 0;
80001884:	b755                	j	80001828 <processMarkers+0x2e>
80001886:	0c900713          	li	a4,201
8000188a:	02e7f163          	bgeu	a5,a4,800018ac <processMarkers+0xb2>
8000188e:	0c400713          	li	a4,196
80001892:	06e78063          	beq	a5,a4,800018f2 <processMarkers+0xf8>
80001896:	02f76e63          	bltu	a4,a5,800018d2 <processMarkers+0xd8>
8000189a:	4705                	li	a4,1
8000189c:	02e78f63          	beq	a5,a4,800018da <processMarkers+0xe0>
800018a0:	1a078263          	beqz	a5,80001a44 <processMarkers+0x24a>
800018a4:	0c000713          	li	a4,192
800018a8:	18e7ee63          	bltu	a5,a4,80001a44 <processMarkers+0x24a>
processMarkers():
C:\NucleiStudio_workspace3\simple_world\Debug/../src/picojpeg.c:788
            *pMarker = c;
800018ac:	4732                	lw	a4,12(sp)
C:\NucleiStudio_workspace3\simple_world\Debug/../src/picojpeg.c:789
            return 0;
800018ae:	4501                	li	a0,0
C:\NucleiStudio_workspace3\simple_world\Debug/../src/picojpeg.c:788
            *pMarker = c;
800018b0:	00f70023          	sb	a5,0(a4)
C:\NucleiStudio_workspace3\simple_world\Debug/../src/picojpeg.c:834
}
800018b4:	40f6                	lw	ra,92(sp)
800018b6:	4466                	lw	s0,88(sp)
800018b8:	44d6                	lw	s1,84(sp)
800018ba:	4946                	lw	s2,80(sp)
800018bc:	49b6                	lw	s3,76(sp)
800018be:	4a26                	lw	s4,72(sp)
800018c0:	4a96                	lw	s5,68(sp)
800018c2:	4b06                	lw	s6,64(sp)
800018c4:	5bf2                	lw	s7,60(sp)
800018c6:	5c62                	lw	s8,56(sp)
800018c8:	5cd2                	lw	s9,52(sp)
800018ca:	5d42                	lw	s10,48(sp)
800018cc:	5db2                	lw	s11,44(sp)
800018ce:	6125                	addi	sp,sp,96
800018d0:	8082                	ret
800018d2:	0c700713          	li	a4,199
800018d6:	fcf77be3          	bgeu	a4,a5,800018ac <processMarkers+0xb2>
C:\NucleiStudio_workspace3\simple_world\Debug/../src/picojpeg.c:824
            return PJPG_UNEXPECTED_MARKER;
800018da:	4549                	li	a0,18
800018dc:	bfe1                	j	800018b4 <processMarkers+0xba>
800018de:	0d000713          	li	a4,208
800018e2:	fee7fce3          	bgeu	a5,a4,800018da <processMarkers+0xe0>
800018e6:	0cc00713          	li	a4,204
C:\NucleiStudio_workspace3\simple_world\Debug/../src/picojpeg.c:799
            return PJPG_NO_ARITHMITIC_SUPPORT;
800018ea:	4545                	li	a0,17
800018ec:	fce784e3          	beq	a5,a4,800018b4 <processMarkers+0xba>
800018f0:	bf75                	j	800018ac <processMarkers+0xb2>
getBits1():
C:\NucleiStudio_workspace3\simple_world\Debug/../src/picojpeg.c:321
   return getBits(numBits, 0);
800018f2:	4581                	li	a1,0
800018f4:	4541                	li	a0,16
800018f6:	3bfd                	jal	800016f4 <getBits>
readDHTMarker():
C:\NucleiStudio_workspace3\simple_world\Debug/../src/picojpeg.c:506
   if (left < 2)
800018f8:	4785                	li	a5,1
800018fa:	f2a7f7e3          	bgeu	a5,a0,80001828 <processMarkers+0x2e>
C:\NucleiStudio_workspace3\simple_world\Debug/../src/picojpeg.c:509
   left -= 2;
800018fe:	1579                	addi	a0,a0,-2
80001900:	01051493          	slli	s1,a0,0x10
80001904:	80c1                	srli	s1,s1,0x10
C:\NucleiStudio_workspace3\simple_world\Debug/../src/picojpeg.c:511
   while (left)
80001906:	d08d                	beqz	s1,80001828 <processMarkers+0x2e>
80001908:	90000cb7          	lui	s9,0x90000
8000190c:	11cc8793          	addi	a5,s9,284 # 9000011c <_sp+0xffff011c>
80001910:	90000c37          	lui	s8,0x90000
80001914:	c23e                	sw	a5,4(sp)
80001916:	12cc0793          	addi	a5,s8,300 # 9000012c <_sp+0xffff012c>
8000191a:	c43e                	sw	a5,8(sp)
getBits1():
C:\NucleiStudio_workspace3\simple_world\Debug/../src/picojpeg.c:321
   return getBits(numBits, 0);
8000191c:	4581                	li	a1,0
8000191e:	4521                	li	a0,8
80001920:	3bd1                	jal	800016f4 <getBits>
readDHTMarker():
C:\NucleiStudio_workspace3\simple_world\Debug/../src/picojpeg.c:518
      index = (uint8)getBits1(8);
80001922:	0ff57793          	andi	a5,a0,255
C:\NucleiStudio_workspace3\simple_world\Debug/../src/picojpeg.c:520
      if ( ((index & 0xF) > 1) || ((index & 0xF0) > 0x10) )
80001926:	00e7f713          	andi	a4,a5,14
8000192a:	ee071fe3          	bnez	a4,80001828 <processMarkers+0x2e>
8000192e:	0f07f713          	andi	a4,a5,240
80001932:	46c1                	li	a3,16
80001934:	eee6eae3          	bltu	a3,a4,80001828 <processMarkers+0x2e>
C:\NucleiStudio_workspace3\simple_world\Debug/../src/picojpeg.c:523
      tableIndex = ((index >> 3) & 2) + (index & 1);
80001938:	0037d713          	srli	a4,a5,0x3
C:\NucleiStudio_workspace3\simple_world\Debug/../src/picojpeg.c:528
      gValidHuffTables |= (1 << tableIndex);
8000193c:	8b118613          	addi	a2,gp,-1871 # 90000a01 <gValidHuffTables>
C:\NucleiStudio_workspace3\simple_world\Debug/../src/picojpeg.c:523
      tableIndex = ((index >> 3) & 2) + (index & 1);
80001940:	8905                	andi	a0,a0,1
80001942:	4792                	lw	a5,4(sp)
80001944:	8b09                	andi	a4,a4,2
80001946:	00a76c33          	or	s8,a4,a0
processMarkers():
C:\NucleiStudio_workspace3\simple_world\Debug/../src/picojpeg.c:472
   switch (index)
8000194a:	002c1693          	slli	a3,s8,0x2
8000194e:	00d78533          	add	a0,a5,a3
80001952:	47a2                	lw	a5,8(sp)
readDHTMarker():
C:\NucleiStudio_workspace3\simple_world\Debug/../src/picojpeg.c:528
      gValidHuffTables |= (1 << tableIndex);
80001954:	00064583          	lbu	a1,0(a2)
80001958:	4100                	lw	s0,0(a0)
processMarkers():
C:\NucleiStudio_workspace3\simple_world\Debug/../src/picojpeg.c:486
   switch (index)
8000195a:	96be                	add	a3,a3,a5
readDHTMarker():
C:\NucleiStudio_workspace3\simple_world\Debug/../src/picojpeg.c:528
      gValidHuffTables |= (1 << tableIndex);
8000195c:	4785                	li	a5,1
8000195e:	018797b3          	sll	a5,a5,s8
80001962:	0006a983          	lw	s3,0(a3)
80001966:	8fcd                	or	a5,a5,a1
80001968:	01010d13          	addi	s10,sp,16
8000196c:	00f60023          	sb	a5,0(a2)
C:\NucleiStudio_workspace3\simple_world\Debug/../src/picojpeg.c:531
      for (i = 0; i <= 15; i++)
80001970:	02010913          	addi	s2,sp,32
C:\NucleiStudio_workspace3\simple_world\Debug/../src/picojpeg.c:528
      gValidHuffTables |= (1 << tableIndex);
80001974:	8cea                	mv	s9,s10
C:\NucleiStudio_workspace3\simple_world\Debug/../src/picojpeg.c:530
      count = 0;
80001976:	4d81                	li	s11,0
getBits1():
C:\NucleiStudio_workspace3\simple_world\Debug/../src/picojpeg.c:321
   return getBits(numBits, 0);
80001978:	4581                	li	a1,0
8000197a:	4521                	li	a0,8
8000197c:	3ba5                	jal	800016f4 <getBits>
readDHTMarker():
C:\NucleiStudio_workspace3\simple_world\Debug/../src/picojpeg.c:535
         count = (uint16)(count + n);
8000197e:	0ff57593          	andi	a1,a0,255
80001982:	00bd87b3          	add	a5,s11,a1
C:\NucleiStudio_workspace3\simple_world\Debug/../src/picojpeg.c:533
         uint8 n = (uint8)getBits1(8);
80001986:	00ac8023          	sb	a0,0(s9)
C:\NucleiStudio_workspace3\simple_world\Debug/../src/picojpeg.c:535
         count = (uint16)(count + n);
8000198a:	01079d93          	slli	s11,a5,0x10
8000198e:	0c85                	addi	s9,s9,1
80001990:	010ddd93          	srli	s11,s11,0x10
C:\NucleiStudio_workspace3\simple_world\Debug/../src/picojpeg.c:531
      for (i = 0; i <= 15; i++)
80001994:	ff2c92e3          	bne	s9,s2,80001978 <processMarkers+0x17e>
getMaxHuffCodes():
C:\NucleiStudio_workspace3\simple_world\Debug/../src/picojpeg.c:498
   return (index < 2) ? 12 : 255;
80001998:	4585                	li	a1,1
8000199a:	4631                	li	a2,12
8000199c:	0185d463          	bge	a1,s8,800019a4 <processMarkers+0x1aa>
800019a0:	0ff00613          	li	a2,255
readDHTMarker():
C:\NucleiStudio_workspace3\simple_world\Debug/../src/picojpeg.c:538
      if (count > getMaxHuffCodes(tableIndex))
800019a4:	e9b662e3          	bltu	a2,s11,80001828 <processMarkers+0x2e>
C:\NucleiStudio_workspace3\simple_world\Debug/../src/picojpeg.c:541
      for (i = 0; i < count; i++)
800019a8:	4c01                	li	s8,0
800019aa:	000d8f63          	beqz	s11,800019c8 <processMarkers+0x1ce>
getBits1():
C:\NucleiStudio_workspace3\simple_world\Debug/../src/picojpeg.c:321
   return getBits(numBits, 0);
800019ae:	4581                	li	a1,0
800019b0:	4521                	li	a0,8
800019b2:	3389                	jal	800016f4 <getBits>
readDHTMarker():
C:\NucleiStudio_workspace3\simple_world\Debug/../src/picojpeg.c:542
         pHuffVal[i] = (uint8)getBits1(8);
800019b4:	01898633          	add	a2,s3,s8
C:\NucleiStudio_workspace3\simple_world\Debug/../src/picojpeg.c:541
      for (i = 0; i < count; i++)
800019b8:	001c0713          	addi	a4,s8,1
C:\NucleiStudio_workspace3\simple_world\Debug/../src/picojpeg.c:542
         pHuffVal[i] = (uint8)getBits1(8);
800019bc:	00a60023          	sb	a0,0(a2)
C:\NucleiStudio_workspace3\simple_world\Debug/../src/picojpeg.c:541
      for (i = 0; i < count; i++)
800019c0:	0ff77c13          	andi	s8,a4,255
800019c4:	ffbc65e3          	bltu	s8,s11,800019ae <processMarkers+0x1b4>
C:\NucleiStudio_workspace3\simple_world\Debug/../src/picojpeg.c:544
      totalRead = 1 + 16 + count;
800019c8:	011d8793          	addi	a5,s11,17
800019cc:	07c2                	slli	a5,a5,0x10
800019ce:	83c1                	srli	a5,a5,0x10
C:\NucleiStudio_workspace3\simple_world\Debug/../src/picojpeg.c:546
      if (left < totalRead)
800019d0:	e4f4ece3          	bltu	s1,a5,80001828 <processMarkers+0x2e>
C:\NucleiStudio_workspace3\simple_world\Debug/../src/picojpeg.c:549
      left = (uint16)(left - totalRead);
800019d4:	8c9d                	sub	s1,s1,a5
800019d6:	04c2                	slli	s1,s1,0x10
800019d8:	04040713          	addi	a4,s0,64
800019dc:	80c1                	srli	s1,s1,0x10
huffCreate():
C:\NucleiStudio_workspace3\simple_world\Debug/../src/picojpeg.c:437
   uint16 code = 0;
800019de:	02040413          	addi	s0,s0,32
800019e2:	4781                	li	a5,0
C:\NucleiStudio_workspace3\simple_world\Debug/../src/picojpeg.c:435
   uint8 j = 0;
800019e4:	4601                	li	a2,0
800019e6:	a005                	j	80001a06 <processMarkers+0x20c>
C:\NucleiStudio_workspace3\simple_world\Debug/../src/picojpeg.c:446
         pHuffTable->mMaxCode[i] = 0xFFFF;
800019e8:	56fd                	li	a3,-1
C:\NucleiStudio_workspace3\simple_world\Debug/../src/picojpeg.c:445
         pHuffTable->mMinCode[i] = 0x0000;
800019ea:	fe041023          	sh	zero,-32(s0)
C:\NucleiStudio_workspace3\simple_world\Debug/../src/picojpeg.c:446
         pHuffTable->mMaxCode[i] = 0xFFFF;
800019ee:	00d41023          	sh	a3,0(s0)
C:\NucleiStudio_workspace3\simple_world\Debug/../src/picojpeg.c:460
      code <<= 1;
800019f2:	0786                	slli	a5,a5,0x1
C:\NucleiStudio_workspace3\simple_world\Debug/../src/picojpeg.c:447
         pHuffTable->mValPtr[i] = 0;
800019f4:	00070023          	sb	zero,0(a4)
C:\NucleiStudio_workspace3\simple_world\Debug/../src/picojpeg.c:460
      code <<= 1;
800019f8:	07c2                	slli	a5,a5,0x10
800019fa:	0d05                	addi	s10,s10,1
800019fc:	83c1                	srli	a5,a5,0x10
C:\NucleiStudio_workspace3\simple_world\Debug/../src/picojpeg.c:463
      if (i > 15)
800019fe:	0705                	addi	a4,a4,1
80001a00:	0409                	addi	s0,s0,2
80001a02:	032d0e63          	beq	s10,s2,80001a3e <processMarkers+0x244>
C:\NucleiStudio_workspace3\simple_world\Debug/../src/picojpeg.c:441
      uint8 num = pBits[i];
80001a06:	000d4583          	lbu	a1,0(s10)
C:\NucleiStudio_workspace3\simple_world\Debug/../src/picojpeg.c:452
         pHuffTable->mMaxCode[i] = code + num - 1;
80001a0a:	00b78833          	add	a6,a5,a1
C:\NucleiStudio_workspace3\simple_world\Debug/../src/picojpeg.c:455
         j = (uint8)(j + num);
80001a0e:	00c58533          	add	a0,a1,a2
C:\NucleiStudio_workspace3\simple_world\Debug/../src/picojpeg.c:443
      if (!num)
80001a12:	d9f9                	beqz	a1,800019e8 <processMarkers+0x1ee>
C:\NucleiStudio_workspace3\simple_world\Debug/../src/picojpeg.c:451
         pHuffTable->mMinCode[i] = code;
80001a14:	fef41023          	sh	a5,-32(s0)
C:\NucleiStudio_workspace3\simple_world\Debug/../src/picojpeg.c:452
         pHuffTable->mMaxCode[i] = code + num - 1;
80001a18:	01081793          	slli	a5,a6,0x10
80001a1c:	83c1                	srli	a5,a5,0x10
80001a1e:	fff78593          	addi	a1,a5,-1
80001a22:	00b41023          	sh	a1,0(s0)
C:\NucleiStudio_workspace3\simple_world\Debug/../src/picojpeg.c:460
      code <<= 1;
80001a26:	0786                	slli	a5,a5,0x1
C:\NucleiStudio_workspace3\simple_world\Debug/../src/picojpeg.c:453
         pHuffTable->mValPtr[i] = j;
80001a28:	00c70023          	sb	a2,0(a4)
C:\NucleiStudio_workspace3\simple_world\Debug/../src/picojpeg.c:460
      code <<= 1;
80001a2c:	07c2                	slli	a5,a5,0x10
80001a2e:	0d05                	addi	s10,s10,1
C:\NucleiStudio_workspace3\simple_world\Debug/../src/picojpeg.c:455
         j = (uint8)(j + num);
80001a30:	0ff57613          	andi	a2,a0,255
C:\NucleiStudio_workspace3\simple_world\Debug/../src/picojpeg.c:460
      code <<= 1;
80001a34:	83c1                	srli	a5,a5,0x10
C:\NucleiStudio_workspace3\simple_world\Debug/../src/picojpeg.c:463
      if (i > 15)
80001a36:	0705                	addi	a4,a4,1
80001a38:	0409                	addi	s0,s0,2
80001a3a:	fd2d16e3          	bne	s10,s2,80001a06 <processMarkers+0x20c>
readDHTMarker():
C:\NucleiStudio_workspace3\simple_world\Debug/../src/picojpeg.c:511
   while (left)
80001a3e:	ec049fe3          	bnez	s1,8000191c <processMarkers+0x122>
80001a42:	b3dd                	j	80001828 <processMarkers+0x2e>
getBits1():
C:\NucleiStudio_workspace3\simple_world\Debug/../src/picojpeg.c:321
   return getBits(numBits, 0);
80001a44:	4581                	li	a1,0
80001a46:	4541                	li	a0,16
80001a48:	3175                	jal	800016f4 <getBits>
skipVariableMarker():
C:\NucleiStudio_workspace3\simple_world\Debug/../src/picojpeg.c:657
   if (left < 2)
80001a4a:	4785                	li	a5,1
80001a4c:	dca7fee3          	bgeu	a5,a0,80001828 <processMarkers+0x2e>
C:\NucleiStudio_workspace3\simple_world\Debug/../src/picojpeg.c:660
   left -= 2;
80001a50:	1579                	addi	a0,a0,-2
80001a52:	01051413          	slli	s0,a0,0x10
80001a56:	8041                	srli	s0,s0,0x10
C:\NucleiStudio_workspace3\simple_world\Debug/../src/picojpeg.c:662
   while (left)
80001a58:	dc0408e3          	beqz	s0,80001828 <processMarkers+0x2e>
C:\NucleiStudio_workspace3\simple_world\Debug/../src/picojpeg.c:665
      left--;
80001a5c:	147d                	addi	s0,s0,-1
80001a5e:	0442                	slli	s0,s0,0x10
getBits1():
C:\NucleiStudio_workspace3\simple_world\Debug/../src/picojpeg.c:321
   return getBits(numBits, 0);
80001a60:	4581                	li	a1,0
80001a62:	4521                	li	a0,8
skipVariableMarker():
C:\NucleiStudio_workspace3\simple_world\Debug/../src/picojpeg.c:665
      left--;
80001a64:	8041                	srli	s0,s0,0x10
getBits1():
C:\NucleiStudio_workspace3\simple_world\Debug/../src/picojpeg.c:321
   return getBits(numBits, 0);
80001a66:	3179                	jal	800016f4 <getBits>
skipVariableMarker():
C:\NucleiStudio_workspace3\simple_world\Debug/../src/picojpeg.c:662
   while (left)
80001a68:	f875                	bnez	s0,80001a5c <processMarkers+0x262>
80001a6a:	bb7d                	j	80001828 <processMarkers+0x2e>
getBits1():
C:\NucleiStudio_workspace3\simple_world\Debug/../src/picojpeg.c:321
   return getBits(numBits, 0);
80001a6c:	4581                	li	a1,0
80001a6e:	4541                	li	a0,16
80001a70:	3151                	jal	800016f4 <getBits>
readDQTMarker():
C:\NucleiStudio_workspace3\simple_world\Debug/../src/picojpeg.c:563
   if (left < 2)
80001a72:	4785                	li	a5,1
80001a74:	daa7fae3          	bgeu	a5,a0,80001828 <processMarkers+0x2e>
C:\NucleiStudio_workspace3\simple_world\Debug/../src/picojpeg.c:566
   left -= 2;
80001a78:	ffe50793          	addi	a5,a0,-2
80001a7c:	01079993          	slli	s3,a5,0x10
80001a80:	0109d993          	srli	s3,s3,0x10
C:\NucleiStudio_workspace3\simple_world\Debug/../src/picojpeg.c:568
   while (left)
80001a84:	da0982e3          	beqz	s3,80001828 <processMarkers+0x2e>
C:\NucleiStudio_workspace3\simple_world\Debug/../src/picojpeg.c:580
      gValidQuantTables |= (n ? 2 : 1);         
80001a88:	900004b7          	lui	s1,0x90000
getBits1():
C:\NucleiStudio_workspace3\simple_world\Debug/../src/picojpeg.c:321
   return getBits(numBits, 0);
80001a8c:	4581                	li	a1,0
80001a8e:	4521                	li	a0,8
80001a90:	3195                	jal	800016f4 <getBits>
readDQTMarker():
C:\NucleiStudio_workspace3\simple_world\Debug/../src/picojpeg.c:571
      uint8 n = (uint8)getBits1(8);
80001a92:	0ff57513          	andi	a0,a0,255
C:\NucleiStudio_workspace3\simple_world\Debug/../src/picojpeg.c:577
      if (n > 1)
80001a96:	00e57793          	andi	a5,a0,14
C:\NucleiStudio_workspace3\simple_world\Debug/../src/picojpeg.c:572
      uint8 prec = n >> 4;
80001a9a:	00455413          	srli	s0,a0,0x4
C:\NucleiStudio_workspace3\simple_world\Debug/../src/picojpeg.c:575
      n &= 0x0F;
80001a9e:	00f57c93          	andi	s9,a0,15
C:\NucleiStudio_workspace3\simple_world\Debug/../src/picojpeg.c:577
      if (n > 1)
80001aa2:	d80793e3          	bnez	a5,80001828 <processMarkers+0x2e>
C:\NucleiStudio_workspace3\simple_world\Debug/../src/picojpeg.c:580
      gValidQuantTables |= (n ? 2 : 1);         
80001aa6:	8b218713          	addi	a4,gp,-1870 # 90000a02 <gValidQuantTables>
80001aaa:	00074683          	lbu	a3,0(a4)
80001aae:	019037b3          	snez	a5,s9
80001ab2:	0785                	addi	a5,a5,1
80001ab4:	8fd5                	or	a5,a5,a3
80001ab6:	00f70023          	sb	a5,0(a4)
C:\NucleiStudio_workspace3\simple_world\Debug/../src/picojpeg.c:583
      for (i = 0; i < 64; i++)
80001aba:	f7cb0d13          	addi	s10,s6,-132
80001abe:	efca8d93          	addi	s11,s5,-260 # 9000aefc <_sp+0xffffaefc>
80001ac2:	a039                	j	80001ad0 <processMarkers+0x2d6>
C:\NucleiStudio_workspace3\simple_world\Debug/../src/picojpeg.c:591
            gQuant1[i] = (int16)temp;            
80001ac4:	018d1023          	sh	s8,0(s10)
80001ac8:	0d09                	addi	s10,s10,2
80001aca:	0d89                	addi	s11,s11,2
C:\NucleiStudio_workspace3\simple_world\Debug/../src/picojpeg.c:583
      for (i = 0; i < 64; i++)
80001acc:	03ab8263          	beq	s7,s10,80001af0 <processMarkers+0x2f6>
getBits1():
C:\NucleiStudio_workspace3\simple_world\Debug/../src/picojpeg.c:321
   return getBits(numBits, 0);
80001ad0:	4581                	li	a1,0
80001ad2:	4521                	li	a0,8
80001ad4:	3105                	jal	800016f4 <getBits>
80001ad6:	8c2a                	mv	s8,a0
readDQTMarker():
C:\NucleiStudio_workspace3\simple_world\Debug/../src/picojpeg.c:587
         if (prec)
80001ad8:	e83d                	bnez	s0,80001b4e <processMarkers+0x354>
C:\NucleiStudio_workspace3\simple_world\Debug/../src/picojpeg.c:593
            gQuant0[i] = (int16)temp;            
80001ada:	0c42                	slli	s8,s8,0x10
80001adc:	410c5c13          	srai	s8,s8,0x10
C:\NucleiStudio_workspace3\simple_world\Debug/../src/picojpeg.c:590
         if (n)
80001ae0:	fe0c92e3          	bnez	s9,80001ac4 <processMarkers+0x2ca>
C:\NucleiStudio_workspace3\simple_world\Debug/../src/picojpeg.c:593
            gQuant0[i] = (int16)temp;            
80001ae4:	018d9023          	sh	s8,0(s11)
80001ae8:	0d09                	addi	s10,s10,2
80001aea:	0d89                	addi	s11,s11,2
C:\NucleiStudio_workspace3\simple_world\Debug/../src/picojpeg.c:583
      for (i = 0; i < 64; i++)
80001aec:	ffab92e3          	bne	s7,s10,80001ad0 <processMarkers+0x2d6>
C:\NucleiStudio_workspace3\simple_world\Debug/../src/picojpeg.c:596
      createWinogradQuant(n ? gQuant1 : gQuant0);
80001af0:	8752                	mv	a4,s4
80001af2:	000c9663          	bnez	s9,80001afe <processMarkers+0x304>
80001af6:	9000b7b7          	lui	a5,0x9000b
80001afa:	efc78713          	addi	a4,a5,-260 # 9000aefc <_sp+0xffffaefc>
createWinogradQuant():
C:\NucleiStudio_workspace3\simple_world\Debug/../src/picojpeg.c:1238
   for (i = 0; i < 64; i++) 
80001afe:	17c48693          	addi	a3,s1,380 # 9000017c <_sp+0xffff017c>
80001b02:	04068613          	addi	a2,a3,64
readDQTMarker():
C:\NucleiStudio_workspace3\simple_world\Debug/../src/picojpeg.c:596
      createWinogradQuant(n ? gQuant1 : gQuant0);
80001b06:	08000793          	li	a5,128
80001b0a:	a019                	j	80001b10 <processMarkers+0x316>
80001b0c:	0006c783          	lbu	a5,0(a3)
createWinogradQuant():
C:\NucleiStudio_workspace3\simple_world\Debug/../src/picojpeg.c:1240
      long x = pQuant[i];
80001b10:	00071583          	lh	a1,0(a4)
C:\NucleiStudio_workspace3\simple_world\Debug/../src/picojpeg.c:1242
      pQuant[i] = (int16)((x + (1 << (PJPG_WINOGRAD_QUANT_SCALE_BITS - PJPG_DCT_SCALE_BITS - 1))) >> (PJPG_WINOGRAD_QUANT_SCALE_BITS - PJPG_DCT_SCALE_BITS));
80001b14:	0709                	addi	a4,a4,2
80001b16:	0685                	addi	a3,a3,1
C:\NucleiStudio_workspace3\simple_world\Debug/../src/picojpeg.c:1241
      x *= gWinogradQuant[i];
80001b18:	02b787b3          	mul	a5,a5,a1
C:\NucleiStudio_workspace3\simple_world\Debug/../src/picojpeg.c:1242
      pQuant[i] = (int16)((x + (1 << (PJPG_WINOGRAD_QUANT_SCALE_BITS - PJPG_DCT_SCALE_BITS - 1))) >> (PJPG_WINOGRAD_QUANT_SCALE_BITS - PJPG_DCT_SCALE_BITS));
80001b1c:	0791                	addi	a5,a5,4
80001b1e:	878d                	srai	a5,a5,0x3
80001b20:	fef71f23          	sh	a5,-2(a4)
C:\NucleiStudio_workspace3\simple_world\Debug/../src/picojpeg.c:1238
   for (i = 0; i < 64; i++) 
80001b24:	fed614e3          	bne	a2,a3,80001b0c <processMarkers+0x312>
readDQTMarker():
C:\NucleiStudio_workspace3\simple_world\Debug/../src/picojpeg.c:601
         totalRead += 64;
80001b28:	00143793          	seqz	a5,s0
80001b2c:	40f007b3          	neg	a5,a5
80001b30:	fc07f793          	andi	a5,a5,-64
80001b34:	08178793          	addi	a5,a5,129
C:\NucleiStudio_workspace3\simple_world\Debug/../src/picojpeg.c:603
      if (left < totalRead)
80001b38:	cef9e8e3          	bltu	s3,a5,80001828 <processMarkers+0x2e>
C:\NucleiStudio_workspace3\simple_world\Debug/../src/picojpeg.c:606
      left = (uint16)(left - totalRead);
80001b3c:	40f987b3          	sub	a5,s3,a5
80001b40:	01079993          	slli	s3,a5,0x10
80001b44:	0109d993          	srli	s3,s3,0x10
C:\NucleiStudio_workspace3\simple_world\Debug/../src/picojpeg.c:568
   while (left)
80001b48:	f40992e3          	bnez	s3,80001a8c <processMarkers+0x292>
80001b4c:	b9f1                	j	80001828 <processMarkers+0x2e>
getBits1():
C:\NucleiStudio_workspace3\simple_world\Debug/../src/picojpeg.c:321
   return getBits(numBits, 0);
80001b4e:	4581                	li	a1,0
80001b50:	4521                	li	a0,8
80001b52:	364d                	jal	800016f4 <getBits>
readDQTMarker():
C:\NucleiStudio_workspace3\simple_world\Debug/../src/picojpeg.c:588
            temp = (temp << 8) + getBits1(8);
80001b54:	0c22                	slli	s8,s8,0x8
80001b56:	9c2a                	add	s8,s8,a0
80001b58:	0c42                	slli	s8,s8,0x10
80001b5a:	010c5c13          	srli	s8,s8,0x10
80001b5e:	bfb5                	j	80001ada <processMarkers+0x2e0>

80001b60 <getBit>:
getBit():
C:\NucleiStudio_workspace3\simple_world\Debug/../src/picojpeg.c:330
{
80001b60:	1101                	addi	sp,sp,-32
80001b62:	cc22                	sw	s0,24(sp)
80001b64:	ca26                	sw	s1,20(sp)
C:\NucleiStudio_workspace3\simple_world\Debug/../src/picojpeg.c:332
   if (gBitBuf & 0x8000) 
80001b66:	86018413          	addi	s0,gp,-1952 # 900009b0 <gBitBuf>
C:\NucleiStudio_workspace3\simple_world\Debug/../src/picojpeg.c:335
   if (!gBitsLeft)
80001b6a:	86218493          	addi	s1,gp,-1950 # 900009b2 <gBitsLeft>
C:\NucleiStudio_workspace3\simple_world\Debug/../src/picojpeg.c:332
   if (gBitBuf & 0x8000) 
80001b6e:	00045503          	lhu	a0,0(s0)
C:\NucleiStudio_workspace3\simple_world\Debug/../src/picojpeg.c:335
   if (!gBitsLeft)
80001b72:	0004c783          	lbu	a5,0(s1)
C:\NucleiStudio_workspace3\simple_world\Debug/../src/picojpeg.c:330
{
80001b76:	c84a                	sw	s2,16(sp)
80001b78:	ce06                	sw	ra,28(sp)
C:\NucleiStudio_workspace3\simple_world\Debug/../src/picojpeg.c:331
   uint8 ret = 0;
80001b7a:	00f55913          	srli	s2,a0,0xf
C:\NucleiStudio_workspace3\simple_world\Debug/../src/picojpeg.c:335
   if (!gBitsLeft)
80001b7e:	cf91                	beqz	a5,80001b9a <getBit+0x3a>
C:\NucleiStudio_workspace3\simple_world\Debug/../src/picojpeg.c:343
   gBitBuf <<= 1;
80001b80:	0506                	slli	a0,a0,0x1
80001b82:	00a41023          	sh	a0,0(s0)
C:\NucleiStudio_workspace3\simple_world\Debug/../src/picojpeg.c:346
}
80001b86:	40f2                	lw	ra,28(sp)
80001b88:	4462                	lw	s0,24(sp)
C:\NucleiStudio_workspace3\simple_world\Debug/../src/picojpeg.c:342
   gBitsLeft--;
80001b8a:	17fd                	addi	a5,a5,-1
80001b8c:	00f48023          	sb	a5,0(s1)
C:\NucleiStudio_workspace3\simple_world\Debug/../src/picojpeg.c:346
}
80001b90:	854a                	mv	a0,s2
80001b92:	44d2                	lw	s1,20(sp)
80001b94:	4942                	lw	s2,16(sp)
80001b96:	6105                	addi	sp,sp,32
80001b98:	8082                	ret
getOctet():
C:\NucleiStudio_workspace3\simple_world\Debug/../src/picojpeg.c:266
   uint8 c = getChar();
80001b9a:	3495                	jal	800015fe <getChar>
C:\NucleiStudio_workspace3\simple_world\Debug/../src/picojpeg.c:268
   if ((FFCheck) && (c == 0xFF))
80001b9c:	0ff00793          	li	a5,255
80001ba0:	00f50d63          	beq	a0,a5,80001bba <getBit+0x5a>
getBit():
C:\NucleiStudio_workspace3\simple_world\Debug/../src/picojpeg.c:337
      gBitBuf |= getOctet(1);
80001ba4:	00045703          	lhu	a4,0(s0)
C:\NucleiStudio_workspace3\simple_world\Debug/../src/picojpeg.c:339
      gBitsLeft += 8;
80001ba8:	0004c783          	lbu	a5,0(s1)
C:\NucleiStudio_workspace3\simple_world\Debug/../src/picojpeg.c:337
      gBitBuf |= getOctet(1);
80001bac:	8d59                	or	a0,a0,a4
C:\NucleiStudio_workspace3\simple_world\Debug/../src/picojpeg.c:339
      gBitsLeft += 8;
80001bae:	07a1                	addi	a5,a5,8
C:\NucleiStudio_workspace3\simple_world\Debug/../src/picojpeg.c:337
      gBitBuf |= getOctet(1);
80001bb0:	0542                	slli	a0,a0,0x10
80001bb2:	8141                	srli	a0,a0,0x10
C:\NucleiStudio_workspace3\simple_world\Debug/../src/picojpeg.c:339
      gBitsLeft += 8;
80001bb4:	0ff7f793          	andi	a5,a5,255
80001bb8:	b7e1                	j	80001b80 <getBit+0x20>
80001bba:	c62a                	sw	a0,12(sp)
getOctet():
C:\NucleiStudio_workspace3\simple_world\Debug/../src/picojpeg.c:339
80001bbc:	34f5                	jal	800016a8 <getOctet.part.1>
80001bbe:	4532                	lw	a0,12(sp)
80001bc0:	b7d5                	j	80001ba4 <getBit+0x44>

80001bc2 <huffDecode>:
huffDecode():
C:\NucleiStudio_workspace3\simple_world\Debug/../src/picojpeg.c:402
{
80001bc2:	1101                	addi	sp,sp,-32
80001bc4:	ca26                	sw	s1,20(sp)
80001bc6:	c84a                	sw	s2,16(sp)
80001bc8:	c64e                	sw	s3,12(sp)
80001bca:	c452                	sw	s4,8(sp)
80001bcc:	c256                	sw	s5,4(sp)
80001bce:	c05a                	sw	s6,0(sp)
80001bd0:	ce06                	sw	ra,28(sp)
80001bd2:	8b2a                	mv	s6,a0
80001bd4:	cc22                	sw	s0,24(sp)
80001bd6:	89ae                	mv	s3,a1
C:\NucleiStudio_workspace3\simple_world\Debug/../src/picojpeg.c:405
   uint16 code = getBit();
80001bd8:	3761                	jal	80001b60 <getBit>
80001bda:	0542                	slli	a0,a0,0x10
C:\NucleiStudio_workspace3\simple_world\Debug/../src/picojpeg.c:418
      if ((code <= maxCode) && (maxCode != 0xFFFF))
80001bdc:	6ac1                	lui	s5,0x10
C:\NucleiStudio_workspace3\simple_world\Debug/../src/picojpeg.c:405
   uint16 code = getBit();
80001bde:	8141                	srli	a0,a0,0x10
C:\NucleiStudio_workspace3\simple_world\Debug/../src/picojpeg.c:414
      if (i == 16)
80001be0:	020b0913          	addi	s2,s6,32
C:\NucleiStudio_workspace3\simple_world\Debug/../src/picojpeg.c:405
   uint16 code = getBit();
80001be4:	4481                	li	s1,0
C:\NucleiStudio_workspace3\simple_world\Debug/../src/picojpeg.c:418
      if ((code <= maxCode) && (maxCode != 0xFFFF))
80001be6:	1afd                	addi	s5,s5,-1
C:\NucleiStudio_workspace3\simple_world\Debug/../src/picojpeg.c:414
      if (i == 16)
80001be8:	4a41                	li	s4,16
C:\NucleiStudio_workspace3\simple_world\Debug/../src/picojpeg.c:417
      maxCode = pHuffTable->mMaxCode[i];
80001bea:	00095703          	lhu	a4,0(s2)
C:\NucleiStudio_workspace3\simple_world\Debug/../src/picojpeg.c:422
      code <<= 1;
80001bee:	00151793          	slli	a5,a0,0x1
80001bf2:	01079413          	slli	s0,a5,0x10
80001bf6:	8041                	srli	s0,s0,0x10
C:\NucleiStudio_workspace3\simple_world\Debug/../src/picojpeg.c:418
      if ((code <= maxCode) && (maxCode != 0xFFFF))
80001bf8:	00a76463          	bltu	a4,a0,80001c00 <huffDecode+0x3e>
C:\NucleiStudio_workspace3\simple_world\Debug/../src/picojpeg.c:418 (discriminator 1)
80001bfc:	03571563          	bne	a4,s5,80001c26 <huffDecode+0x64>
C:\NucleiStudio_workspace3\simple_world\Debug/../src/picojpeg.c:423
      code |= getBit();
80001c00:	3785                	jal	80001b60 <getBit>
80001c02:	8d41                	or	a0,a0,s0
80001c04:	0542                	slli	a0,a0,0x10
80001c06:	0485                	addi	s1,s1,1
80001c08:	8141                	srli	a0,a0,0x10
C:\NucleiStudio_workspace3\simple_world\Debug/../src/picojpeg.c:414
      if (i == 16)
80001c0a:	0909                	addi	s2,s2,2
80001c0c:	fd449fe3          	bne	s1,s4,80001bea <huffDecode+0x28>
C:\NucleiStudio_workspace3\simple_world\Debug/../src/picojpeg.c:415
         return 0;
80001c10:	4501                	li	a0,0
C:\NucleiStudio_workspace3\simple_world\Debug/../src/picojpeg.c:430
}
80001c12:	40f2                	lw	ra,28(sp)
80001c14:	4462                	lw	s0,24(sp)
80001c16:	44d2                	lw	s1,20(sp)
80001c18:	4942                	lw	s2,16(sp)
80001c1a:	49b2                	lw	s3,12(sp)
80001c1c:	4a22                	lw	s4,8(sp)
80001c1e:	4a92                	lw	s5,4(sp)
80001c20:	4b02                	lw	s6,0(sp)
80001c22:	6105                	addi	sp,sp,32
80001c24:	8082                	ret
C:\NucleiStudio_workspace3\simple_world\Debug/../src/picojpeg.c:426
   j = pHuffTable->mValPtr[i];
80001c26:	009b07b3          	add	a5,s6,s1
C:\NucleiStudio_workspace3\simple_world\Debug/../src/picojpeg.c:427
   j = (uint8)(j + (code - pHuffTable->mMinCode[i]));
80001c2a:	0486                	slli	s1,s1,0x1
80001c2c:	0407c703          	lbu	a4,64(a5)
80001c30:	94da                	add	s1,s1,s6
80001c32:	0004c783          	lbu	a5,0(s1)
80001c36:	953a                	add	a0,a0,a4
80001c38:	40f507b3          	sub	a5,a0,a5
C:\NucleiStudio_workspace3\simple_world\Debug/../src/picojpeg.c:429
   return pHuffVal[j];
80001c3c:	0ff7f793          	andi	a5,a5,255
80001c40:	97ce                	add	a5,a5,s3
80001c42:	0007c503          	lbu	a0,0(a5)
80001c46:	b7f1                	j	80001c12 <huffDecode+0x50>

80001c48 <pjpeg_decode_mcu>:
pjpeg_decode_mcu():
C:\NucleiStudio_workspace3\simple_world\Debug/../src/picojpeg.c:2263
         
   return 0;
}
//------------------------------------------------------------------------------
unsigned char pjpeg_decode_mcu(void)
{
80001c48:	7159                	addi	sp,sp,-112
80001c4a:	cece                	sw	s3,92(sp)
C:\NucleiStudio_workspace3\simple_world\Debug/../src/picojpeg.c:2266
   uint8 status;
   
   if (gCallbackStatus)
80001c4c:	86318993          	addi	s3,gp,-1949 # 900009b3 <gCallbackStatus>
80001c50:	0009c503          	lbu	a0,0(s3)
C:\NucleiStudio_workspace3\simple_world\Debug/../src/picojpeg.c:2263
{
80001c54:	d686                	sw	ra,108(sp)
80001c56:	d4a2                	sw	s0,104(sp)
80001c58:	d2a6                	sw	s1,100(sp)
80001c5a:	d0ca                	sw	s2,96(sp)
80001c5c:	ccd2                	sw	s4,88(sp)
80001c5e:	cad6                	sw	s5,84(sp)
80001c60:	c8da                	sw	s6,80(sp)
80001c62:	c6de                	sw	s7,76(sp)
80001c64:	c4e2                	sw	s8,72(sp)
80001c66:	c2e6                	sw	s9,68(sp)
80001c68:	c0ea                	sw	s10,64(sp)
80001c6a:	de6e                	sw	s11,60(sp)
C:\NucleiStudio_workspace3\simple_world\Debug/../src/picojpeg.c:2266
   if (gCallbackStatus)
80001c6c:	24051963          	bnez	a0,80001ebe <pjpeg_decode_mcu+0x276>
C:\NucleiStudio_workspace3\simple_world\Debug/../src/picojpeg.c:2269
      return gCallbackStatus;
   
   if ((!gNumMCUSRemainingX) && (!gNumMCUSRemainingY))
80001c70:	8a018713          	addi	a4,gp,-1888 # 900009f0 <gNumMCUSRemainingX>
80001c74:	8a218693          	addi	a3,gp,-1886 # 900009f2 <gNumMCUSRemainingY>
80001c78:	d43a                	sw	a4,40(sp)
80001c7a:	00075783          	lhu	a5,0(a4)
80001c7e:	0006d703          	lhu	a4,0(a3)
80001c82:	d636                	sw	a3,44(sp)
C:\NucleiStudio_workspace3\simple_world\Debug/../src/picojpeg.c:2270
      return PJPG_NO_MORE_BLOCKS;
80001c84:	4505                	li	a0,1
C:\NucleiStudio_workspace3\simple_world\Debug/../src/picojpeg.c:2269
   if ((!gNumMCUSRemainingX) && (!gNumMCUSRemainingY))
80001c86:	8f5d                	or	a4,a4,a5
80001c88:	22070b63          	beqz	a4,80001ebe <pjpeg_decode_mcu+0x276>
decodeNextMCU():
C:\NucleiStudio_workspace3\simple_world\Debug/../src/picojpeg.c:2123
   if (gRestartInterval) 
80001c8c:	8a618493          	addi	s1,gp,-1882 # 900009f6 <gRestartInterval>
80001c90:	0004d703          	lhu	a4,0(s1)
80001c94:	24071463          	bnez	a4,80001edc <pjpeg_decode_mcu+0x294>
C:\NucleiStudio_workspace3\simple_world\Debug/../src/picojpeg.c:2134
   for (mcuBlock = 0; mcuBlock < gMaxBlocksPerMCU; mcuBlock++)
80001c98:	89618a93          	addi	s5,gp,-1898 # 900009e6 <gMaxBlocksPerMCU>
80001c9c:	000ac703          	lbu	a4,0(s5) # 10000 <__stack_size+0xf800>
80001ca0:	1e070763          	beqz	a4,80001e8e <pjpeg_decode_mcu+0x246>
80001ca4:	88818793          	addi	a5,gp,-1912 # 900009d8 <gLastDC>
80001ca8:	c43e                	sw	a5,8(sp)
80001caa:	89018793          	addi	a5,gp,-1904 # 900009e0 <gMCUOrg>
80001cae:	c63e                	sw	a5,12(sp)
80001cb0:	86818793          	addi	a5,gp,-1944 # 900009b8 <gCompDCTab>
80001cb4:	c83e                	sw	a5,16(sp)
80001cb6:	87818793          	addi	a5,gp,-1928 # 900009c8 <gCompQuant>
80001cba:	ca3e                	sw	a5,20(sp)
80001cbc:	86418793          	addi	a5,gp,-1948 # 900009b4 <gCompACTab>
80001cc0:	cc3e                	sw	a5,24(sp)
80001cc2:	8a418793          	addi	a5,gp,-1884 # 900009f4 <gReduce>
80001cc6:	ce3e                	sw	a5,28(sp)
C:\NucleiStudio_workspace3\simple_world\Debug/../src/picojpeg.c:2140
      const int16* pQ = compQuant ? gQuant1 : gQuant0;
80001cc8:	9000b7b7          	lui	a5,0x9000b
80001ccc:	90000937          	lui	s2,0x90000
80001cd0:	9000a437          	lui	s0,0x9000a
80001cd4:	f7c78793          	addi	a5,a5,-132 # 9000af7c <_sp+0xffffaf7c>
huffExtend():
C:\NucleiStudio_workspace3\simple_world\Debug/../src/picojpeg.c:398
   return ((x < getExtendTest(s)) ? ((int16)x + getExtendOffset(s)) : (int16)x);
80001cd8:	90000a37          	lui	s4,0x90000
80001cdc:	13c90913          	addi	s2,s2,316 # 9000013c <_sp+0xffff013c>
processRestart():
C:\NucleiStudio_workspace3\simple_world\Debug/../src/picojpeg.c:992
   for (i = 1536; i > 0; i--)
80001ce0:	4481                	li	s1,0
80001ce2:	71c40413          	addi	s0,s0,1820 # 9000a71c <_sp+0xffffa71c>
decodeNextMCU():
C:\NucleiStudio_workspace3\simple_world\Debug/../src/picojpeg.c:2140
      const int16* pQ = compQuant ? gQuant1 : gQuant0;
80001ce6:	d03e                	sw	a5,32(sp)
huffExtend():
C:\NucleiStudio_workspace3\simple_world\Debug/../src/picojpeg.c:398
   return ((x < getExtendTest(s)) ? ((int16)x + getExtendOffset(s)) : (int16)x);
80001ce8:	0dca0a13          	addi	s4,s4,220 # 900000dc <_sp+0xffff00dc>
80001cec:	d256                	sw	s5,36(sp)
decodeNextMCU():
C:\NucleiStudio_workspace3\simple_world\Debug/../src/picojpeg.c:2136
      uint8 componentID = gMCUOrg[mcuBlock];
80001cee:	47b2                	lw	a5,12(sp)
C:\NucleiStudio_workspace3\simple_world\Debug/../src/picojpeg.c:2140
      const int16* pQ = compQuant ? gQuant1 : gQuant0;
80001cf0:	5b02                	lw	s6,32(sp)
C:\NucleiStudio_workspace3\simple_world\Debug/../src/picojpeg.c:2136
      uint8 componentID = gMCUOrg[mcuBlock];
80001cf2:	97a6                	add	a5,a5,s1
C:\NucleiStudio_workspace3\simple_world\Debug/../src/picojpeg.c:2137
      uint8 compQuant = gCompQuant[componentID];	
80001cf4:	0007cc03          	lbu	s8,0(a5)
80001cf8:	47d2                	lw	a5,20(sp)
80001cfa:	97e2                	add	a5,a5,s8
C:\NucleiStudio_workspace3\simple_world\Debug/../src/picojpeg.c:2140
      const int16* pQ = compQuant ? gQuant1 : gQuant0;
80001cfc:	0007c703          	lbu	a4,0(a5)
C:\NucleiStudio_workspace3\simple_world\Debug/../src/picojpeg.c:2138
      uint8 compDCTab = gCompDCTab[componentID];
80001d00:	47c2                	lw	a5,16(sp)
80001d02:	97e2                	add	a5,a5,s8
80001d04:	0007c783          	lbu	a5,0(a5)
C:\NucleiStudio_workspace3\simple_world\Debug/../src/picojpeg.c:2140
      const int16* pQ = compQuant ? gQuant1 : gQuant0;
80001d08:	e709                	bnez	a4,80001d12 <pjpeg_decode_mcu+0xca>
80001d0a:	9000bb37          	lui	s6,0x9000b
80001d0e:	efcb0b13          	addi	s6,s6,-260 # 9000aefc <_sp+0xffffaefc>
C:\NucleiStudio_workspace3\simple_world\Debug/../src/picojpeg.c:2143
      uint8 s = huffDecode(compDCTab ? &gHuffTab1 : &gHuffTab0, compDCTab ? gHuffVal1 : gHuffVal0);
80001d12:	3e079463          	bnez	a5,800020fa <pjpeg_decode_mcu+0x4b2>
80001d16:	9000a537          	lui	a0,0x9000a
80001d1a:	9000b5b7          	lui	a1,0x9000b
80001d1e:	79c50513          	addi	a0,a0,1948 # 9000a79c <_sp+0xffffa79c>
80001d22:	8dc58593          	addi	a1,a1,-1828 # 9000a8dc <_sp+0xffffa8dc>
80001d26:	3d71                	jal	80001bc2 <huffDecode>
80001d28:	8baa                	mv	s7,a0
C:\NucleiStudio_workspace3\simple_world\Debug/../src/picojpeg.c:2146
      numExtraBits = s & 0xF;
80001d2a:	893d                	andi	a0,a0,15
C:\NucleiStudio_workspace3\simple_world\Debug/../src/picojpeg.c:2145
      r = 0;
80001d2c:	4781                	li	a5,0
C:\NucleiStudio_workspace3\simple_world\Debug/../src/picojpeg.c:2147
      if (numExtraBits)
80001d2e:	3e051463          	bnez	a0,80002116 <pjpeg_decode_mcu+0x4ce>
pjpeg_decode_mcu():
C:\NucleiStudio_workspace3\simple_world\Debug/../src/picojpeg.c:350
   switch (i)
80001d32:	1bfd                	addi	s7,s7,-1
80001d34:	0ffbfb93          	andi	s7,s7,255
80001d38:	4739                	li	a4,14
80001d3a:	03776363          	bltu	a4,s7,80001d60 <pjpeg_decode_mcu+0x118>
huffExtend():
C:\NucleiStudio_workspace3\simple_world\Debug/../src/picojpeg.c:398
   return ((x < getExtendTest(s)) ? ((int16)x + getExtendOffset(s)) : (int16)x);
80001d3e:	0b86                	slli	s7,s7,0x1
80001d40:	017a0733          	add	a4,s4,s7
80001d44:	00075703          	lhu	a4,0(a4)
80001d48:	00e7fc63          	bgeu	a5,a4,80001d60 <pjpeg_decode_mcu+0x118>
80001d4c:	90000737          	lui	a4,0x90000
80001d50:	0fc70713          	addi	a4,a4,252 # 900000fc <_sp+0xffff00fc>
80001d54:	9bba                	add	s7,s7,a4
80001d56:	000bd503          	lhu	a0,0(s7)
80001d5a:	97aa                	add	a5,a5,a0
80001d5c:	07c2                	slli	a5,a5,0x10
80001d5e:	83c1                	srli	a5,a5,0x10
decodeNextMCU():
C:\NucleiStudio_workspace3\simple_world\Debug/../src/picojpeg.c:2151
      dc = dc + gLastDC[componentID];
80001d60:	4722                	lw	a4,8(sp)
80001d62:	001c1693          	slli	a3,s8,0x1
C:\NucleiStudio_workspace3\simple_world\Debug/../src/picojpeg.c:2158
      if (gReduce)
80001d66:	4672                	lw	a2,28(sp)
C:\NucleiStudio_workspace3\simple_world\Debug/../src/picojpeg.c:2151
      dc = dc + gLastDC[componentID];
80001d68:	96ba                	add	a3,a3,a4
80001d6a:	0006d503          	lhu	a0,0(a3)
C:\NucleiStudio_workspace3\simple_world\Debug/../src/picojpeg.c:2154
      gCoeffBuf[0] = dc * pQ[0];
80001d6e:	000b5703          	lhu	a4,0(s6)
C:\NucleiStudio_workspace3\simple_world\Debug/../src/picojpeg.c:2158
      if (gReduce)
80001d72:	00064583          	lbu	a1,0(a2)
C:\NucleiStudio_workspace3\simple_world\Debug/../src/picojpeg.c:2151
      dc = dc + gLastDC[componentID];
80001d76:	97aa                	add	a5,a5,a0
80001d78:	07c2                	slli	a5,a5,0x10
80001d7a:	83c1                	srli	a5,a5,0x10
C:\NucleiStudio_workspace3\simple_world\Debug/../src/picojpeg.c:2154
      gCoeffBuf[0] = dc * pQ[0];
80001d7c:	02e78633          	mul	a2,a5,a4
C:\NucleiStudio_workspace3\simple_world\Debug/../src/picojpeg.c:2156
      compACTab = gCompACTab[componentID];
80001d80:	4762                	lw	a4,24(sp)
C:\NucleiStudio_workspace3\simple_world\Debug/../src/picojpeg.c:2152
      gLastDC[componentID] = dc;
80001d82:	00f69023          	sh	a5,0(a3)
C:\NucleiStudio_workspace3\simple_world\Debug/../src/picojpeg.c:2156
      compACTab = gCompACTab[componentID];
80001d86:	9762                	add	a4,a4,s8
80001d88:	00074783          	lbu	a5,0(a4)
C:\NucleiStudio_workspace3\simple_world\Debug/../src/picojpeg.c:2154
      gCoeffBuf[0] = dc * pQ[0];
80001d8c:	00c41023          	sh	a2,0(s0)
C:\NucleiStudio_workspace3\simple_world\Debug/../src/picojpeg.c:2158
      if (gReduce)
80001d90:	38058863          	beqz	a1,80002120 <pjpeg_decode_mcu+0x4d8>
80001d94:	20078ae3          	beqz	a5,800027a8 <pjpeg_decode_mcu+0xb60>
80001d98:	9000bb37          	lui	s6,0x9000b
80001d9c:	9000bbb7          	lui	s7,0x9000b
80001da0:	9fcb0b13          	addi	s6,s6,-1540 # 9000a9fc <_sp+0xffffa9fc>
80001da4:	88cb8b93          	addi	s7,s7,-1908 # 9000a88c <_sp+0xffffa88c>
C:\NucleiStudio_workspace3\simple_world\Debug/../src/picojpeg.c:2161
         for (k = 1; k < 64; k++)
80001da8:	4d85                	li	s11,1
C:\NucleiStudio_workspace3\simple_world\Debug/../src/picojpeg.c:2184
               if (r == 15)
80001daa:	4d3d                	li	s10,15
C:\NucleiStudio_workspace3\simple_world\Debug/../src/picojpeg.c:2186
                  if ((k + 16) > 64)
80001dac:	03000c93          	li	s9,48
C:\NucleiStudio_workspace3\simple_world\Debug/../src/picojpeg.c:2176
                  if ((k + r) > 63)
80001db0:	03f00c13          	li	s8,63
C:\NucleiStudio_workspace3\simple_world\Debug/../src/picojpeg.c:2163
            s = huffDecode(compACTab ? &gHuffTab3 : &gHuffTab2, compACTab ? gHuffVal3 : gHuffVal2);
80001db4:	85da                	mv	a1,s6
80001db6:	855e                	mv	a0,s7
80001db8:	3529                	jal	80001bc2 <huffDecode>
80001dba:	8aaa                	mv	s5,a0
C:\NucleiStudio_workspace3\simple_world\Debug/../src/picojpeg.c:2165
            numExtraBits = s & 0xF;
80001dbc:	893d                	andi	a0,a0,15
C:\NucleiStudio_workspace3\simple_world\Debug/../src/picojpeg.c:2166
            if (numExtraBits)
80001dbe:	30051b63          	bnez	a0,800020d4 <pjpeg_decode_mcu+0x48c>
C:\NucleiStudio_workspace3\simple_world\Debug/../src/picojpeg.c:2169
            r = s >> 4;
80001dc2:	004ada93          	srli	s5,s5,0x4
C:\NucleiStudio_workspace3\simple_world\Debug/../src/picojpeg.c:2184
               if (r == 15)
80001dc6:	0ffafa93          	andi	s5,s5,255
80001dca:	01aa9c63          	bne	s5,s10,80001de2 <pjpeg_decode_mcu+0x19a>
C:\NucleiStudio_workspace3\simple_world\Debug/../src/picojpeg.c:2186
                  if ((k + 16) > 64)
80001dce:	31bcef63          	bltu	s9,s11,800020ec <pjpeg_decode_mcu+0x4a4>
C:\NucleiStudio_workspace3\simple_world\Debug/../src/picojpeg.c:2189
                  k += (16 - 1); // - 1 because the loop counter is k
80001dd2:	0dbd                	addi	s11,s11,15
80001dd4:	0ffdfd93          	andi	s11,s11,255
C:\NucleiStudio_workspace3\simple_world\Debug/../src/picojpeg.c:2161
         for (k = 1; k < 64; k++)
80001dd8:	0d85                	addi	s11,s11,1
80001dda:	0ffdfd93          	andi	s11,s11,255
80001dde:	fdbc7be3          	bgeu	s8,s11,80001db4 <pjpeg_decode_mcu+0x16c>
transformBlockReduce():
C:\NucleiStudio_workspace3\simple_world\Debug/../src/picojpeg.c:1910
   uint8 c = clamp(PJPG_DESCALE(gCoeffBuf[0]) + 128);
80001de2:	00041783          	lh	a5,0(s0)
clamp():
C:\NucleiStudio_workspace3\simple_world\Debug/../src/picojpeg.c:1288
   if ((uint16)s > 255U)
80001de6:	0ff00713          	li	a4,255
transformBlockReduce():
C:\NucleiStudio_workspace3\simple_world\Debug/../src/picojpeg.c:1910
   uint8 c = clamp(PJPG_DESCALE(gCoeffBuf[0]) + 128);
80001dea:	04078793          	addi	a5,a5,64
80001dee:	879d                	srai	a5,a5,0x7
80001df0:	08078793          	addi	a5,a5,128
80001df4:	07c2                	slli	a5,a5,0x10
80001df6:	83c1                	srli	a5,a5,0x10
clamp():
C:\NucleiStudio_workspace3\simple_world\Debug/../src/picojpeg.c:1296
   return (uint8)s;
80001df8:	0ff7f693          	andi	a3,a5,255
C:\NucleiStudio_workspace3\simple_world\Debug/../src/picojpeg.c:1288
   if ((uint16)s > 255U)
80001dfc:	00f77863          	bgeu	a4,a5,80001e0c <pjpeg_decode_mcu+0x1c4>
C:\NucleiStudio_workspace3\simple_world\Debug/../src/picojpeg.c:1290
      if (s < 0) 
80001e00:	fff7c793          	not	a5,a5
80001e04:	07c2                	slli	a5,a5,0x10
80001e06:	87fd                	srai	a5,a5,0x1f
80001e08:	0ff7f693          	andi	a3,a5,255
transformBlockReduce():
C:\NucleiStudio_workspace3\simple_world\Debug/../src/picojpeg.c:1913
   switch (gScanType)
80001e0c:	8ac1a703          	lw	a4,-1876(gp) # 900009fc <gScanType>
80001e10:	4791                	li	a5,4
80001e12:	2ae7e863          	bltu	a5,a4,800020c2 <pjpeg_decode_mcu+0x47a>
80001e16:	900007b7          	lui	a5,0x90000
80001e1a:	08478793          	addi	a5,a5,132 # 90000084 <_sp+0xffff0084>
80001e1e:	070a                	slli	a4,a4,0x2
80001e20:	973e                	add	a4,a4,a5
80001e22:	431c                	lw	a5,0(a4)
80001e24:	8782                	jr	a5
processRestart():
C:\NucleiStudio_workspace3\simple_world\Debug/../src/picojpeg.c:1007
   if (c != (gNextRestartNum + M_RST0))
80001e26:	89e18713          	addi	a4,gp,-1890 # 900009ee <gNextRestartNum>
80001e2a:	00075783          	lhu	a5,0(a4)
80001e2e:	0d078693          	addi	a3,a5,208
80001e32:	0ed51163          	bne	a0,a3,80001f14 <pjpeg_decode_mcu+0x2cc>
C:\NucleiStudio_workspace3\simple_world\Debug/../src/picojpeg.c:1017
   gNextRestartNum = (gNextRestartNum + 1) & 7;
80001e36:	00178693          	addi	a3,a5,1
C:\NucleiStudio_workspace3\simple_world\Debug/../src/picojpeg.c:1015
   gRestartsLeft = gRestartInterval;
80001e3a:	0004d603          	lhu	a2,0(s1)
C:\NucleiStudio_workspace3\simple_world\Debug/../src/picojpeg.c:1011
   gLastDC[0] = 0;
80001e3e:	88818413          	addi	s0,gp,-1912 # 900009d8 <gLastDC>
C:\NucleiStudio_workspace3\simple_world\Debug/../src/picojpeg.c:1017
   gNextRestartNum = (gNextRestartNum + 1) & 7;
80001e42:	0076f793          	andi	a5,a3,7
80001e46:	00f71023          	sh	a5,0(a4)
getBits2():
C:\NucleiStudio_workspace3\simple_world\Debug/../src/picojpeg.c:326
   return getBits(numBits, 1);
80001e4a:	4585                	li	a1,1
processRestart():
C:\NucleiStudio_workspace3\simple_world\Debug/../src/picojpeg.c:1021
   gBitsLeft = 8;
80001e4c:	4721                	li	a4,8
getBits2():
C:\NucleiStudio_workspace3\simple_world\Debug/../src/picojpeg.c:326
   return getBits(numBits, 1);
80001e4e:	4521                	li	a0,8
processRestart():
C:\NucleiStudio_workspace3\simple_world\Debug/../src/picojpeg.c:1011
   gLastDC[0] = 0;
80001e50:	00042023          	sw	zero,0(s0)
C:\NucleiStudio_workspace3\simple_world\Debug/../src/picojpeg.c:1021
   gBitsLeft = 8;
80001e54:	86e18123          	sb	a4,-1950(gp) # 900009b2 <gBitsLeft>
C:\NucleiStudio_workspace3\simple_world\Debug/../src/picojpeg.c:1015
   gRestartsLeft = gRestartInterval;
80001e58:	00c91023          	sh	a2,0(s2)
C:\NucleiStudio_workspace3\simple_world\Debug/../src/picojpeg.c:1013
   gLastDC[2] = 0;
80001e5c:	00041223          	sh	zero,4(s0)
getBits2():
C:\NucleiStudio_workspace3\simple_world\Debug/../src/picojpeg.c:326
   return getBits(numBits, 1);
80001e60:	895ff0ef          	jal	ra,800016f4 <getBits>
80001e64:	4585                	li	a1,1
80001e66:	4521                	li	a0,8
80001e68:	88dff0ef          	jal	ra,800016f4 <getBits>
decodeNextMCU():
C:\NucleiStudio_workspace3\simple_world\Debug/../src/picojpeg.c:2128
         if (status)
80001e6c:	00095783          	lhu	a5,0(s2)
C:\NucleiStudio_workspace3\simple_world\Debug/../src/picojpeg.c:2134
   for (mcuBlock = 0; mcuBlock < gMaxBlocksPerMCU; mcuBlock++)
80001e70:	89618a93          	addi	s5,gp,-1898 # 900009e6 <gMaxBlocksPerMCU>
80001e74:	000ac703          	lbu	a4,0(s5)
C:\NucleiStudio_workspace3\simple_world\Debug/../src/picojpeg.c:2131
      gRestartsLeft--;
80001e78:	17fd                	addi	a5,a5,-1
80001e7a:	00f91023          	sh	a5,0(s2)
C:\NucleiStudio_workspace3\simple_world\Debug/../src/picojpeg.c:2134
   for (mcuBlock = 0; mcuBlock < gMaxBlocksPerMCU; mcuBlock++)
80001e7e:	e20713e3          	bnez	a4,80001ca4 <pjpeg_decode_mcu+0x5c>
pjpeg_decode_mcu():
C:\NucleiStudio_workspace3\simple_world\Debug/../src/picojpeg.c:2273
         
   status = decodeNextMCU();
   if ((status) || (gCallbackStatus))
80001e82:	0009c503          	lbu	a0,0(s3)
80001e86:	ed05                	bnez	a0,80001ebe <pjpeg_decode_mcu+0x276>
80001e88:	57a2                	lw	a5,40(sp)
80001e8a:	0007d783          	lhu	a5,0(a5)
C:\NucleiStudio_workspace3\simple_world\Debug/../src/picojpeg.c:2276
      return gCallbackStatus ? gCallbackStatus : status;
      
   gNumMCUSRemainingX--;
80001e8e:	17fd                	addi	a5,a5,-1
80001e90:	5722                	lw	a4,40(sp)
80001e92:	07c2                	slli	a5,a5,0x10
80001e94:	83c1                	srli	a5,a5,0x10
80001e96:	00f71023          	sh	a5,0(a4)
C:\NucleiStudio_workspace3\simple_world\Debug/../src/picojpeg.c:2277
   if (!gNumMCUSRemainingX)
80001e9a:	12079ae3          	bnez	a5,800027ce <pjpeg_decode_mcu+0xb86>
C:\NucleiStudio_workspace3\simple_world\Debug/../src/picojpeg.c:2279
   {
      gNumMCUSRemainingY--;
80001e9e:	5732                	lw	a4,44(sp)
80001ea0:	00075783          	lhu	a5,0(a4)
80001ea4:	17fd                	addi	a5,a5,-1
80001ea6:	07c2                	slli	a5,a5,0x10
80001ea8:	83c1                	srli	a5,a5,0x10
80001eaa:	00f71023          	sh	a5,0(a4)
C:\NucleiStudio_workspace3\simple_world\Debug/../src/picojpeg.c:2280
	  if (gNumMCUSRemainingY > 0)
80001eae:	120780e3          	beqz	a5,800027ce <pjpeg_decode_mcu+0xb86>
C:\NucleiStudio_workspace3\simple_world\Debug/../src/picojpeg.c:2281
		  gNumMCUSRemainingX = gMaxMCUSPerRow;
80001eb2:	89a1d783          	lhu	a5,-1894(gp) # 900009ea <gMaxMCUSPerRow>
80001eb6:	5722                	lw	a4,40(sp)
C:\NucleiStudio_workspace3\simple_world\Debug/../src/picojpeg.c:2284
   }
   
   return 0;
80001eb8:	4501                	li	a0,0
C:\NucleiStudio_workspace3\simple_world\Debug/../src/picojpeg.c:2281
		  gNumMCUSRemainingX = gMaxMCUSPerRow;
80001eba:	00f71023          	sh	a5,0(a4)
C:\NucleiStudio_workspace3\simple_world\Debug/../src/picojpeg.c:2285
}
80001ebe:	50b6                	lw	ra,108(sp)
80001ec0:	5426                	lw	s0,104(sp)
80001ec2:	5496                	lw	s1,100(sp)
80001ec4:	5906                	lw	s2,96(sp)
80001ec6:	49f6                	lw	s3,92(sp)
80001ec8:	4a66                	lw	s4,88(sp)
80001eca:	4ad6                	lw	s5,84(sp)
80001ecc:	4b46                	lw	s6,80(sp)
80001ece:	4bb6                	lw	s7,76(sp)
80001ed0:	4c26                	lw	s8,72(sp)
80001ed2:	4c96                	lw	s9,68(sp)
80001ed4:	4d06                	lw	s10,64(sp)
80001ed6:	5df2                	lw	s11,60(sp)
80001ed8:	6165                	addi	sp,sp,112
80001eda:	8082                	ret
decodeNextMCU():
C:\NucleiStudio_workspace3\simple_world\Debug/../src/picojpeg.c:2125
      if (gRestartsLeft == 0)
80001edc:	8a818913          	addi	s2,gp,-1880 # 900009f8 <gRestartsLeft>
80001ee0:	00095783          	lhu	a5,0(s2)
80001ee4:	f7d1                	bnez	a5,80001e70 <pjpeg_decode_mcu+0x228>
processRestart():
C:\NucleiStudio_workspace3\simple_world\Debug/../src/picojpeg.c:992
   for (i = 1536; i > 0; i--)
80001ee6:	60000413          	li	s0,1536
C:\NucleiStudio_workspace3\simple_world\Debug/../src/picojpeg.c:993
      if (getChar() == 0xFF)
80001eea:	0ff00a13          	li	s4,255
80001eee:	a029                	j	80001ef8 <pjpeg_decode_mcu+0x2b0>
C:\NucleiStudio_workspace3\simple_world\Debug/../src/picojpeg.c:992
   for (i = 1536; i > 0; i--)
80001ef0:	147d                	addi	s0,s0,-1
80001ef2:	0442                	slli	s0,s0,0x10
80001ef4:	8041                	srli	s0,s0,0x10
80001ef6:	cc19                	beqz	s0,80001f14 <pjpeg_decode_mcu+0x2cc>
C:\NucleiStudio_workspace3\simple_world\Debug/../src/picojpeg.c:993
      if (getChar() == 0xFF)
80001ef8:	f06ff0ef          	jal	ra,800015fe <getChar>
80001efc:	ff451ae3          	bne	a0,s4,80001ef0 <pjpeg_decode_mcu+0x2a8>
C:\NucleiStudio_workspace3\simple_world\Debug/../src/picojpeg.c:1000
      if ((c = getChar()) != 0xFF)
80001f00:	0ff00a13          	li	s4,255
80001f04:	efaff0ef          	jal	ra,800015fe <getChar>
80001f08:	f1451fe3          	bne	a0,s4,80001e26 <pjpeg_decode_mcu+0x1de>
C:\NucleiStudio_workspace3\simple_world\Debug/../src/picojpeg.c:999
   for ( ; i > 0; i--)
80001f0c:	147d                	addi	s0,s0,-1
80001f0e:	0442                	slli	s0,s0,0x10
80001f10:	8041                	srli	s0,s0,0x10
80001f12:	f86d                	bnez	s0,80001f04 <pjpeg_decode_mcu+0x2bc>
C:\NucleiStudio_workspace3\simple_world\Debug/../src/picojpeg.c:997
      return PJPG_BAD_RESTART_MARKER;
80001f14:	4575                	li	a0,29
80001f16:	aae1                	j	800020ee <pjpeg_decode_mcu+0x4a6>
transformBlockReduce():
C:\NucleiStudio_workspace3\simple_world\Debug/../src/picojpeg.c:2082
               cbG = ((c * 88U) >> 8U) - 44U;
80001f18:	05800793          	li	a5,88
80001f1c:	02f687b3          	mul	a5,a3,a5
C:\NucleiStudio_workspace3\simple_world\Debug/../src/picojpeg.c:2083
               gMCUBufG[0] = subAndClamp(gMCUBufG[0], cbG);
80001f20:	9000b737          	lui	a4,0x9000b
80001f24:	cfc70713          	addi	a4,a4,-772 # 9000acfc <_sp+0xffffacfc>
subAndClamp():
C:\NucleiStudio_workspace3\simple_world\Debug/../src/picojpeg.c:1469
   b = a - b;
80001f28:	00074603          	lbu	a2,0(a4)
C:\NucleiStudio_workspace3\simple_world\Debug/../src/picojpeg.c:1471
   if ((uint16)b > 255U)
80001f2c:	0ff00593          	li	a1,255
transformBlockReduce():
C:\NucleiStudio_workspace3\simple_world\Debug/../src/picojpeg.c:2082
               cbG = ((c * 88U) >> 8U) - 44U;
80001f30:	83a1                	srli	a5,a5,0x8
80001f32:	fd478793          	addi	a5,a5,-44
80001f36:	07c2                	slli	a5,a5,0x10
80001f38:	83c1                	srli	a5,a5,0x10
subAndClamp():
C:\NucleiStudio_workspace3\simple_world\Debug/../src/picojpeg.c:1469
   b = a - b;
80001f3a:	8e1d                	sub	a2,a2,a5
80001f3c:	0642                	slli	a2,a2,0x10
80001f3e:	8241                	srli	a2,a2,0x10
C:\NucleiStudio_workspace3\simple_world\Debug/../src/picojpeg.c:1471
   if ((uint16)b > 255U)
80001f40:	00c5fc63          	bgeu	a1,a2,80001f58 <pjpeg_decode_mcu+0x310>
C:\NucleiStudio_workspace3\simple_world\Debug/../src/picojpeg.c:1469
   b = a - b;
80001f44:	01061513          	slli	a0,a2,0x10
80001f48:	8541                	srai	a0,a0,0x10
C:\NucleiStudio_workspace3\simple_world\Debug/../src/picojpeg.c:1474
         return 0;
80001f4a:	4581                	li	a1,0
C:\NucleiStudio_workspace3\simple_world\Debug/../src/picojpeg.c:1473
      if (b < 0)
80001f4c:	00054863          	bltz	a0,80001f5c <pjpeg_decode_mcu+0x314>
C:\NucleiStudio_workspace3\simple_world\Debug/../src/picojpeg.c:1476
         return 255;
80001f50:	0ff00593          	li	a1,255
C:\NucleiStudio_workspace3\simple_world\Debug/../src/picojpeg.c:1475
      else if (b > 255)
80001f54:	00a5c463          	blt	a1,a0,80001f5c <pjpeg_decode_mcu+0x314>
C:\NucleiStudio_workspace3\simple_world\Debug/../src/picojpeg.c:1479
   return (uint8)b;
80001f58:	0ff67593          	andi	a1,a2,255
C:\NucleiStudio_workspace3\simple_world\Debug/../src/picojpeg.c:1469
   b = a - b;
80001f5c:	04074603          	lbu	a2,64(a4)
transformBlockReduce():
C:\NucleiStudio_workspace3\simple_world\Debug/../src/picojpeg.c:2083
               gMCUBufG[0] = subAndClamp(gMCUBufG[0], cbG);
80001f60:	00b70023          	sb	a1,0(a4)
subAndClamp():
C:\NucleiStudio_workspace3\simple_world\Debug/../src/picojpeg.c:1471
   if ((uint16)b > 255U)
80001f64:	0ff00593          	li	a1,255
C:\NucleiStudio_workspace3\simple_world\Debug/../src/picojpeg.c:1469
   b = a - b;
80001f68:	8e1d                	sub	a2,a2,a5
80001f6a:	0642                	slli	a2,a2,0x10
80001f6c:	8241                	srli	a2,a2,0x10
C:\NucleiStudio_workspace3\simple_world\Debug/../src/picojpeg.c:1471
   if ((uint16)b > 255U)
80001f6e:	00c5fc63          	bgeu	a1,a2,80001f86 <pjpeg_decode_mcu+0x33e>
C:\NucleiStudio_workspace3\simple_world\Debug/../src/picojpeg.c:1469
   b = a - b;
80001f72:	01061513          	slli	a0,a2,0x10
80001f76:	8541                	srai	a0,a0,0x10
C:\NucleiStudio_workspace3\simple_world\Debug/../src/picojpeg.c:1474
         return 0;
80001f78:	4581                	li	a1,0
C:\NucleiStudio_workspace3\simple_world\Debug/../src/picojpeg.c:1473
      if (b < 0)
80001f7a:	00054863          	bltz	a0,80001f8a <pjpeg_decode_mcu+0x342>
C:\NucleiStudio_workspace3\simple_world\Debug/../src/picojpeg.c:1476
         return 255;
80001f7e:	0ff00593          	li	a1,255
C:\NucleiStudio_workspace3\simple_world\Debug/../src/picojpeg.c:1475
      else if (b > 255)
80001f82:	00a5c463          	blt	a1,a0,80001f8a <pjpeg_decode_mcu+0x342>
C:\NucleiStudio_workspace3\simple_world\Debug/../src/picojpeg.c:1479
   return (uint8)b;
80001f86:	0ff67593          	andi	a1,a2,255
C:\NucleiStudio_workspace3\simple_world\Debug/../src/picojpeg.c:1469
   b = a - b;
80001f8a:	08074603          	lbu	a2,128(a4)
transformBlockReduce():
C:\NucleiStudio_workspace3\simple_world\Debug/../src/picojpeg.c:2084
               gMCUBufG[64] = subAndClamp(gMCUBufG[64], cbG);
80001f8e:	04b70023          	sb	a1,64(a4)
subAndClamp():
C:\NucleiStudio_workspace3\simple_world\Debug/../src/picojpeg.c:1471
   if ((uint16)b > 255U)
80001f92:	0ff00593          	li	a1,255
C:\NucleiStudio_workspace3\simple_world\Debug/../src/picojpeg.c:1469
   b = a - b;
80001f96:	8e1d                	sub	a2,a2,a5
80001f98:	0642                	slli	a2,a2,0x10
80001f9a:	8241                	srli	a2,a2,0x10
C:\NucleiStudio_workspace3\simple_world\Debug/../src/picojpeg.c:1471
   if ((uint16)b > 255U)
80001f9c:	00c5fc63          	bgeu	a1,a2,80001fb4 <pjpeg_decode_mcu+0x36c>
C:\NucleiStudio_workspace3\simple_world\Debug/../src/picojpeg.c:1469
   b = a - b;
80001fa0:	01061513          	slli	a0,a2,0x10
80001fa4:	8541                	srai	a0,a0,0x10
C:\NucleiStudio_workspace3\simple_world\Debug/../src/picojpeg.c:1474
         return 0;
80001fa6:	4581                	li	a1,0
C:\NucleiStudio_workspace3\simple_world\Debug/../src/picojpeg.c:1473
      if (b < 0)
80001fa8:	00054863          	bltz	a0,80001fb8 <pjpeg_decode_mcu+0x370>
C:\NucleiStudio_workspace3\simple_world\Debug/../src/picojpeg.c:1476
         return 255;
80001fac:	0ff00593          	li	a1,255
C:\NucleiStudio_workspace3\simple_world\Debug/../src/picojpeg.c:1475
      else if (b > 255)
80001fb0:	00a5c463          	blt	a1,a0,80001fb8 <pjpeg_decode_mcu+0x370>
C:\NucleiStudio_workspace3\simple_world\Debug/../src/picojpeg.c:1479
   return (uint8)b;
80001fb4:	0ff67593          	andi	a1,a2,255
C:\NucleiStudio_workspace3\simple_world\Debug/../src/picojpeg.c:1469
   b = a - b;
80001fb8:	0c074603          	lbu	a2,192(a4)
transformBlockReduce():
C:\NucleiStudio_workspace3\simple_world\Debug/../src/picojpeg.c:2085
               gMCUBufG[128] = subAndClamp(gMCUBufG[128], cbG);
80001fbc:	08b70023          	sb	a1,128(a4)
subAndClamp():
C:\NucleiStudio_workspace3\simple_world\Debug/../src/picojpeg.c:1471
   if ((uint16)b > 255U)
80001fc0:	0ff00593          	li	a1,255
C:\NucleiStudio_workspace3\simple_world\Debug/../src/picojpeg.c:1469
   b = a - b;
80001fc4:	40f607b3          	sub	a5,a2,a5
80001fc8:	07c2                	slli	a5,a5,0x10
80001fca:	83c1                	srli	a5,a5,0x10
C:\NucleiStudio_workspace3\simple_world\Debug/../src/picojpeg.c:1471
   if ((uint16)b > 255U)
80001fcc:	00f5fc63          	bgeu	a1,a5,80001fe4 <pjpeg_decode_mcu+0x39c>
C:\NucleiStudio_workspace3\simple_world\Debug/../src/picojpeg.c:1469
   b = a - b;
80001fd0:	01079613          	slli	a2,a5,0x10
80001fd4:	8641                	srai	a2,a2,0x10
C:\NucleiStudio_workspace3\simple_world\Debug/../src/picojpeg.c:1474
         return 0;
80001fd6:	4501                	li	a0,0
C:\NucleiStudio_workspace3\simple_world\Debug/../src/picojpeg.c:1473
      if (b < 0)
80001fd8:	00064863          	bltz	a2,80001fe8 <pjpeg_decode_mcu+0x3a0>
C:\NucleiStudio_workspace3\simple_world\Debug/../src/picojpeg.c:1476
         return 255;
80001fdc:	0ff00513          	li	a0,255
C:\NucleiStudio_workspace3\simple_world\Debug/../src/picojpeg.c:1475
      else if (b > 255)
80001fe0:	00c54463          	blt	a0,a2,80001fe8 <pjpeg_decode_mcu+0x3a0>
C:\NucleiStudio_workspace3\simple_world\Debug/../src/picojpeg.c:1479
   return (uint8)b;
80001fe4:	0ff7f513          	andi	a0,a5,255
transformBlockReduce():
C:\NucleiStudio_workspace3\simple_world\Debug/../src/picojpeg.c:2088
               cbB = (c + ((c * 198U) >> 8U)) - 227U;
80001fe8:	0c600793          	li	a5,198
80001fec:	02f687b3          	mul	a5,a3,a5
C:\NucleiStudio_workspace3\simple_world\Debug/../src/picojpeg.c:2089
               gMCUBufB[0] = addAndClamp(gMCUBufB[0], cbB);
80001ff0:	9000b637          	lui	a2,0x9000b
80001ff4:	bfc60613          	addi	a2,a2,-1028 # 9000abfc <_sp+0xffffabfc>
C:\NucleiStudio_workspace3\simple_world\Debug/../src/picojpeg.c:2088
               cbB = (c + ((c * 198U) >> 8U)) - 227U;
80001ff8:	f1d68693          	addi	a3,a3,-227
addAndClamp():
C:\NucleiStudio_workspace3\simple_world\Debug/../src/picojpeg.c:1454
   b = a + b;
80001ffc:	00064583          	lbu	a1,0(a2)
transformBlockReduce():
C:\NucleiStudio_workspace3\simple_world\Debug/../src/picojpeg.c:2086
               gMCUBufG[192] = subAndClamp(gMCUBufG[192], cbG);
80002000:	0ca70023          	sb	a0,192(a4)
addAndClamp():
C:\NucleiStudio_workspace3\simple_world\Debug/../src/picojpeg.c:1456
   if ((uint16)b > 255U)
80002004:	0ff00513          	li	a0,255
transformBlockReduce():
C:\NucleiStudio_workspace3\simple_world\Debug/../src/picojpeg.c:2088
               cbB = (c + ((c * 198U) >> 8U)) - 227U;
80002008:	83a1                	srli	a5,a5,0x8
8000200a:	97b6                	add	a5,a5,a3
8000200c:	07c2                	slli	a5,a5,0x10
8000200e:	83c1                	srli	a5,a5,0x10
addAndClamp():
C:\NucleiStudio_workspace3\simple_world\Debug/../src/picojpeg.c:1454
   b = a + b;
80002010:	00b78733          	add	a4,a5,a1
80002014:	0742                	slli	a4,a4,0x10
80002016:	8341                	srli	a4,a4,0x10
C:\NucleiStudio_workspace3\simple_world\Debug/../src/picojpeg.c:1456
   if ((uint16)b > 255U)
80002018:	00e57c63          	bgeu	a0,a4,80002030 <pjpeg_decode_mcu+0x3e8>
C:\NucleiStudio_workspace3\simple_world\Debug/../src/picojpeg.c:1454
   b = a + b;
8000201c:	01071593          	slli	a1,a4,0x10
80002020:	85c1                	srai	a1,a1,0x10
C:\NucleiStudio_workspace3\simple_world\Debug/../src/picojpeg.c:1459
         return 0;
80002022:	4681                	li	a3,0
C:\NucleiStudio_workspace3\simple_world\Debug/../src/picojpeg.c:1458
      if (b < 0)
80002024:	0005c863          	bltz	a1,80002034 <pjpeg_decode_mcu+0x3ec>
C:\NucleiStudio_workspace3\simple_world\Debug/../src/picojpeg.c:1461
         return 255;
80002028:	0ff00693          	li	a3,255
C:\NucleiStudio_workspace3\simple_world\Debug/../src/picojpeg.c:1460
      else if (b > 255)
8000202c:	00b6c463          	blt	a3,a1,80002034 <pjpeg_decode_mcu+0x3ec>
C:\NucleiStudio_workspace3\simple_world\Debug/../src/picojpeg.c:1464
   return (uint8)b;
80002030:	0ff77693          	andi	a3,a4,255
C:\NucleiStudio_workspace3\simple_world\Debug/../src/picojpeg.c:1454
   b = a + b;
80002034:	04064703          	lbu	a4,64(a2)
transformBlockReduce():
C:\NucleiStudio_workspace3\simple_world\Debug/../src/picojpeg.c:2089
               gMCUBufB[0] = addAndClamp(gMCUBufB[0], cbB);
80002038:	00d60023          	sb	a3,0(a2)
addAndClamp():
C:\NucleiStudio_workspace3\simple_world\Debug/../src/picojpeg.c:1456
   if ((uint16)b > 255U)
8000203c:	0ff00693          	li	a3,255
C:\NucleiStudio_workspace3\simple_world\Debug/../src/picojpeg.c:1454
   b = a + b;
80002040:	973e                	add	a4,a4,a5
80002042:	0742                	slli	a4,a4,0x10
80002044:	8341                	srli	a4,a4,0x10
C:\NucleiStudio_workspace3\simple_world\Debug/../src/picojpeg.c:1456
   if ((uint16)b > 255U)
80002046:	00e6fc63          	bgeu	a3,a4,8000205e <pjpeg_decode_mcu+0x416>
C:\NucleiStudio_workspace3\simple_world\Debug/../src/picojpeg.c:1454
   b = a + b;
8000204a:	01071593          	slli	a1,a4,0x10
8000204e:	85c1                	srai	a1,a1,0x10
C:\NucleiStudio_workspace3\simple_world\Debug/../src/picojpeg.c:1459
         return 0;
80002050:	4681                	li	a3,0
C:\NucleiStudio_workspace3\simple_world\Debug/../src/picojpeg.c:1458
      if (b < 0)
80002052:	0005c863          	bltz	a1,80002062 <pjpeg_decode_mcu+0x41a>
C:\NucleiStudio_workspace3\simple_world\Debug/../src/picojpeg.c:1461
         return 255;
80002056:	0ff00693          	li	a3,255
C:\NucleiStudio_workspace3\simple_world\Debug/../src/picojpeg.c:1460
      else if (b > 255)
8000205a:	00b6c463          	blt	a3,a1,80002062 <pjpeg_decode_mcu+0x41a>
C:\NucleiStudio_workspace3\simple_world\Debug/../src/picojpeg.c:1464
   return (uint8)b;
8000205e:	0ff77693          	andi	a3,a4,255
C:\NucleiStudio_workspace3\simple_world\Debug/../src/picojpeg.c:1454
   b = a + b;
80002062:	08064703          	lbu	a4,128(a2)
transformBlockReduce():
C:\NucleiStudio_workspace3\simple_world\Debug/../src/picojpeg.c:2090
               gMCUBufB[64] = addAndClamp(gMCUBufB[64], cbB);
80002066:	04d60023          	sb	a3,64(a2)
addAndClamp():
C:\NucleiStudio_workspace3\simple_world\Debug/../src/picojpeg.c:1456
   if ((uint16)b > 255U)
8000206a:	0ff00693          	li	a3,255
C:\NucleiStudio_workspace3\simple_world\Debug/../src/picojpeg.c:1454
   b = a + b;
8000206e:	973e                	add	a4,a4,a5
80002070:	0742                	slli	a4,a4,0x10
80002072:	8341                	srli	a4,a4,0x10
C:\NucleiStudio_workspace3\simple_world\Debug/../src/picojpeg.c:1456
   if ((uint16)b > 255U)
80002074:	00e6fc63          	bgeu	a3,a4,8000208c <pjpeg_decode_mcu+0x444>
C:\NucleiStudio_workspace3\simple_world\Debug/../src/picojpeg.c:1454
   b = a + b;
80002078:	01071593          	slli	a1,a4,0x10
8000207c:	85c1                	srai	a1,a1,0x10
C:\NucleiStudio_workspace3\simple_world\Debug/../src/picojpeg.c:1459
         return 0;
8000207e:	4681                	li	a3,0
C:\NucleiStudio_workspace3\simple_world\Debug/../src/picojpeg.c:1458
      if (b < 0)
80002080:	0005c863          	bltz	a1,80002090 <pjpeg_decode_mcu+0x448>
C:\NucleiStudio_workspace3\simple_world\Debug/../src/picojpeg.c:1461
         return 255;
80002084:	0ff00693          	li	a3,255
C:\NucleiStudio_workspace3\simple_world\Debug/../src/picojpeg.c:1460
      else if (b > 255)
80002088:	00b6c463          	blt	a3,a1,80002090 <pjpeg_decode_mcu+0x448>
C:\NucleiStudio_workspace3\simple_world\Debug/../src/picojpeg.c:1464
   return (uint8)b;
8000208c:	0ff77693          	andi	a3,a4,255
C:\NucleiStudio_workspace3\simple_world\Debug/../src/picojpeg.c:1454
   b = a + b;
80002090:	0c064583          	lbu	a1,192(a2)
transformBlockReduce():
C:\NucleiStudio_workspace3\simple_world\Debug/../src/picojpeg.c:2091
               gMCUBufB[128] = addAndClamp(gMCUBufB[128], cbB);
80002094:	08d60023          	sb	a3,128(a2)
addAndClamp():
C:\NucleiStudio_workspace3\simple_world\Debug/../src/picojpeg.c:1456
   if ((uint16)b > 255U)
80002098:	0ff00713          	li	a4,255
C:\NucleiStudio_workspace3\simple_world\Debug/../src/picojpeg.c:1454
   b = a + b;
8000209c:	97ae                	add	a5,a5,a1
8000209e:	07c2                	slli	a5,a5,0x10
800020a0:	83c1                	srli	a5,a5,0x10
C:\NucleiStudio_workspace3\simple_world\Debug/../src/picojpeg.c:1456
   if ((uint16)b > 255U)
800020a2:	00f77c63          	bgeu	a4,a5,800020ba <pjpeg_decode_mcu+0x472>
C:\NucleiStudio_workspace3\simple_world\Debug/../src/picojpeg.c:1454
   b = a + b;
800020a6:	01079693          	slli	a3,a5,0x10
800020aa:	86c1                	srai	a3,a3,0x10
C:\NucleiStudio_workspace3\simple_world\Debug/../src/picojpeg.c:1459
         return 0;
800020ac:	4701                	li	a4,0
C:\NucleiStudio_workspace3\simple_world\Debug/../src/picojpeg.c:1458
      if (b < 0)
800020ae:	0006c863          	bltz	a3,800020be <pjpeg_decode_mcu+0x476>
C:\NucleiStudio_workspace3\simple_world\Debug/../src/picojpeg.c:1461
         return 255;
800020b2:	0ff00713          	li	a4,255
C:\NucleiStudio_workspace3\simple_world\Debug/../src/picojpeg.c:1460
      else if (b > 255)
800020b6:	00d74463          	blt	a4,a3,800020be <pjpeg_decode_mcu+0x476>
C:\NucleiStudio_workspace3\simple_world\Debug/../src/picojpeg.c:1464
   return (uint8)b;
800020ba:	0ff7f713          	andi	a4,a5,255
transformBlockReduce():
C:\NucleiStudio_workspace3\simple_world\Debug/../src/picojpeg.c:2092
               gMCUBufB[192] = addAndClamp(gMCUBufB[192], cbB);
800020be:	0ce60023          	sb	a4,192(a2)
decodeNextMCU():
C:\NucleiStudio_workspace3\simple_world\Debug/../src/picojpeg.c:2134
   for (mcuBlock = 0; mcuBlock < gMaxBlocksPerMCU; mcuBlock++)
800020c2:	5792                	lw	a5,36(sp)
800020c4:	0485                	addi	s1,s1,1
800020c6:	0ff4f493          	andi	s1,s1,255
800020ca:	0007c783          	lbu	a5,0(a5)
800020ce:	c2f4e0e3          	bltu	s1,a5,80001cee <pjpeg_decode_mcu+0xa6>
800020d2:	bb45                	j	80001e82 <pjpeg_decode_mcu+0x23a>
C:\NucleiStudio_workspace3\simple_world\Debug/../src/picojpeg.c:2169
            r = s >> 4;
800020d4:	004ada93          	srli	s5,s5,0x4
getBits2():
C:\NucleiStudio_workspace3\simple_world\Debug/../src/picojpeg.c:326
   return getBits(numBits, 1);
800020d8:	4585                	li	a1,1
decodeNextMCU():
C:\NucleiStudio_workspace3\simple_world\Debug/../src/picojpeg.c:2169
            r = s >> 4;
800020da:	0ffafa93          	andi	s5,s5,255
getBits2():
C:\NucleiStudio_workspace3\simple_world\Debug/../src/picojpeg.c:326
   return getBits(numBits, 1);
800020de:	e16ff0ef          	jal	ra,800016f4 <getBits>
decodeNextMCU():
C:\NucleiStudio_workspace3\simple_world\Debug/../src/picojpeg.c:2174
               if (r)
800020e2:	ce0a8be3          	beqz	s5,80001dd8 <pjpeg_decode_mcu+0x190>
C:\NucleiStudio_workspace3\simple_world\Debug/../src/picojpeg.c:2176
                  if ((k + r) > 63)
800020e6:	9dd6                	add	s11,s11,s5
800020e8:	cfbc56e3          	bge	s8,s11,80001dd4 <pjpeg_decode_mcu+0x18c>
C:\NucleiStudio_workspace3\simple_world\Debug/../src/picojpeg.c:2177
                     return PJPG_DECODE_ERROR;
800020ec:	4571                	li	a0,28
pjpeg_decode_mcu():
C:\NucleiStudio_workspace3\simple_world\Debug/../src/picojpeg.c:2274
      return gCallbackStatus ? gCallbackStatus : status;
800020ee:	0009c783          	lbu	a5,0(s3)
800020f2:	dc0786e3          	beqz	a5,80001ebe <pjpeg_decode_mcu+0x276>
800020f6:	853e                	mv	a0,a5
800020f8:	b3d9                	j	80001ebe <pjpeg_decode_mcu+0x276>
decodeNextMCU():
C:\NucleiStudio_workspace3\simple_world\Debug/../src/picojpeg.c:2143
      uint8 s = huffDecode(compDCTab ? &gHuffTab1 : &gHuffTab0, compDCTab ? gHuffVal1 : gHuffVal0);
800020fa:	9000a537          	lui	a0,0x9000a
800020fe:	9000b5b7          	lui	a1,0x9000b
80002102:	7ec50513          	addi	a0,a0,2028 # 9000a7ec <_sp+0xffffa7ec>
80002106:	8ec58593          	addi	a1,a1,-1812 # 9000a8ec <_sp+0xffffa8ec>
8000210a:	3c65                	jal	80001bc2 <huffDecode>
8000210c:	8baa                	mv	s7,a0
C:\NucleiStudio_workspace3\simple_world\Debug/../src/picojpeg.c:2146
      numExtraBits = s & 0xF;
8000210e:	893d                	andi	a0,a0,15
C:\NucleiStudio_workspace3\simple_world\Debug/../src/picojpeg.c:2145
      r = 0;
80002110:	4781                	li	a5,0
C:\NucleiStudio_workspace3\simple_world\Debug/../src/picojpeg.c:2147
      if (numExtraBits)
80002112:	c20500e3          	beqz	a0,80001d32 <pjpeg_decode_mcu+0xea>
getBits2():
C:\NucleiStudio_workspace3\simple_world\Debug/../src/picojpeg.c:326
   return getBits(numBits, 1);
80002116:	4585                	li	a1,1
80002118:	ddcff0ef          	jal	ra,800016f4 <getBits>
8000211c:	87aa                	mv	a5,a0
8000211e:	b911                	j	80001d32 <pjpeg_decode_mcu+0xea>
80002120:	68078e63          	beqz	a5,800027bc <pjpeg_decode_mcu+0xb74>
80002124:	9000bc37          	lui	s8,0x9000b
80002128:	9000bcb7          	lui	s9,0x9000b
8000212c:	9fcc0c13          	addi	s8,s8,-1540 # 9000a9fc <_sp+0xffffa9fc>
80002130:	88cc8c93          	addi	s9,s9,-1908 # 9000a88c <_sp+0xffffa88c>
huffExtend():
C:\NucleiStudio_workspace3\simple_world\Debug/../src/picojpeg.c:398
   return ((x < getExtendTest(s)) ? ((int16)x + getExtendOffset(s)) : (int16)x);
80002134:	90000bb7          	lui	s7,0x90000
decodeNextMCU():
C:\NucleiStudio_workspace3\simple_world\Debug/../src/picojpeg.c:2201
         for (k = 1; k < 64; k++)
80002138:	4a85                	li	s5,1
huffExtend():
C:\NucleiStudio_workspace3\simple_world\Debug/../src/picojpeg.c:398
   return ((x < getExtendTest(s)) ? ((int16)x + getExtendOffset(s)) : (int16)x);
8000213a:	0fcb8b93          	addi	s7,s7,252 # 900000fc <_sp+0xffff00fc>
decodeNextMCU():
C:\NucleiStudio_workspace3\simple_world\Debug/../src/picojpeg.c:2205
            s = huffDecode(compACTab ? &gHuffTab3 : &gHuffTab2, compACTab ? gHuffVal3 : gHuffVal2);
8000213e:	85e2                	mv	a1,s8
80002140:	8566                	mv	a0,s9
80002142:	3441                	jal	80001bc2 <huffDecode>
C:\NucleiStudio_workspace3\simple_world\Debug/../src/picojpeg.c:2208
            numExtraBits = s & 0xF;
80002144:	00f57d93          	andi	s11,a0,15
C:\NucleiStudio_workspace3\simple_world\Debug/../src/picojpeg.c:2205
            s = huffDecode(compACTab ? &gHuffTab3 : &gHuffTab2, compACTab ? gHuffVal3 : gHuffVal2);
80002148:	8d2a                	mv	s10,a0
C:\NucleiStudio_workspace3\simple_world\Debug/../src/picojpeg.c:2209
            if (numExtraBits)
8000214a:	580d9663          	bnez	s11,800026d6 <pjpeg_decode_mcu+0xa8e>
C:\NucleiStudio_workspace3\simple_world\Debug/../src/picojpeg.c:2212
            r = s >> 4;
8000214e:	00455d13          	srli	s10,a0,0x4
C:\NucleiStudio_workspace3\simple_world\Debug/../src/picojpeg.c:2237
               if (r == 15)
80002152:	0ffd7d13          	andi	s10,s10,255
80002156:	47bd                	li	a5,15
80002158:	60fd1b63          	bne	s10,a5,8000276e <pjpeg_decode_mcu+0xb26>
C:\NucleiStudio_workspace3\simple_world\Debug/../src/picojpeg.c:2239
                  if ((k + 16) > 64)
8000215c:	03000793          	li	a5,48
80002160:	f957e6e3          	bltu	a5,s5,800020ec <pjpeg_decode_mcu+0x4a4>
80002164:	010a8793          	addi	a5,s5,16
80002168:	0ff7f793          	andi	a5,a5,255
C:\NucleiStudio_workspace3\simple_world\Debug/../src/picojpeg.c:2243
                     gCoeffBuf[ZAG[k++]] = 0;
8000216c:	01590733          	add	a4,s2,s5
80002170:	00070703          	lb	a4,0(a4)
80002174:	0a85                	addi	s5,s5,1
80002176:	0ffafa93          	andi	s5,s5,255
8000217a:	0706                	slli	a4,a4,0x1
8000217c:	9722                	add	a4,a4,s0
8000217e:	00071023          	sh	zero,0(a4)
C:\NucleiStudio_workspace3\simple_world\Debug/../src/picojpeg.c:2242
                  for (r = 16; r > 0; r--)
80002182:	fefa95e3          	bne	s5,a5,8000216c <pjpeg_decode_mcu+0x524>
80002186:	8abe                	mv	s5,a5
C:\NucleiStudio_workspace3\simple_world\Debug/../src/picojpeg.c:2201
         for (k = 1; k < 64; k++)
80002188:	03f00793          	li	a5,63
8000218c:	fb57f9e3          	bgeu	a5,s5,8000213e <pjpeg_decode_mcu+0x4f6>
80002190:	9000af37          	lui	t5,0x9000a
idctRows():
C:\NucleiStudio_workspace3\simple_world\Debug/../src/picojpeg.c:1302
   int16* pSrc = gCoeffBuf;
80002194:	87a2                	mv	a5,s0
80002196:	79cf0f13          	addi	t5,t5,1948 # 9000a79c <_sp+0xffffa79c>
imul_b5():
C:\NucleiStudio_workspace3\simple_world\Debug/../src/picojpeg.c:1281
   long x = (w * 196L);
8000219a:	0c400313          	li	t1,196
imul_b4():
C:\NucleiStudio_workspace3\simple_world\Debug/../src/picojpeg.c:1272
   long x = (w * 277L);
8000219e:	11500893          	li	a7,277
imul_b2():
C:\NucleiStudio_workspace3\simple_world\Debug/../src/picojpeg.c:1263
   long x = (w * 669L);
800021a2:	29d00813          	li	a6,669
imul_b1_b3():
C:\NucleiStudio_workspace3\simple_world\Debug/../src/picojpeg.c:1254
   long x = (w * 362L);
800021a6:	16a00513          	li	a0,362
800021aa:	a015                	j	800021ce <pjpeg_decode_mcu+0x586>
idctRows():
C:\NucleiStudio_workspace3\simple_world\Debug/../src/picojpeg.c:1311
         *(pSrc+1) = src0;
800021ac:	00e79123          	sh	a4,2(a5)
C:\NucleiStudio_workspace3\simple_world\Debug/../src/picojpeg.c:1312
         *(pSrc+2) = src0;
800021b0:	00e79223          	sh	a4,4(a5)
C:\NucleiStudio_workspace3\simple_world\Debug/../src/picojpeg.c:1313
         *(pSrc+3) = src0;
800021b4:	00e79323          	sh	a4,6(a5)
C:\NucleiStudio_workspace3\simple_world\Debug/../src/picojpeg.c:1314
         *(pSrc+4) = src0;
800021b8:	00e79423          	sh	a4,8(a5)
C:\NucleiStudio_workspace3\simple_world\Debug/../src/picojpeg.c:1315
         *(pSrc+5) = src0;
800021bc:	00e79523          	sh	a4,10(a5)
C:\NucleiStudio_workspace3\simple_world\Debug/../src/picojpeg.c:1316
         *(pSrc+6) = src0;
800021c0:	00e79623          	sh	a4,12(a5)
C:\NucleiStudio_workspace3\simple_world\Debug/../src/picojpeg.c:1317
         *(pSrc+7) = src0;
800021c4:	00e79723          	sh	a4,14(a5)
C:\NucleiStudio_workspace3\simple_world\Debug/../src/picojpeg.c:1370
      pSrc += 8;
800021c8:	07c1                	addi	a5,a5,16
C:\NucleiStudio_workspace3\simple_world\Debug/../src/picojpeg.c:1304
   for (i = 0; i < 8; i++)
800021ca:	1be78163          	beq	a5,t5,8000236c <pjpeg_decode_mcu+0x724>
C:\NucleiStudio_workspace3\simple_world\Debug/../src/picojpeg.c:1306
      if ((pSrc[1] | pSrc[2] | pSrc[3] | pSrc[4] | pSrc[5] | pSrc[6] | pSrc[7]) == 0)
800021ce:	00279e03          	lh	t3,2(a5)
800021d2:	00479e83          	lh	t4,4(a5)
800021d6:	00679b03          	lh	s6,6(a5)
800021da:	00879f83          	lh	t6,8(a5)
800021de:	00a79683          	lh	a3,10(a5)
800021e2:	01de6633          	or	a2,t3,t4
800021e6:	00c79a83          	lh	s5,12(a5)
800021ea:	00cb6633          	or	a2,s6,a2
800021ee:	00e79583          	lh	a1,14(a5)
800021f2:	00cfe633          	or	a2,t6,a2
800021f6:	8e55                	or	a2,a2,a3
800021f8:	00cae633          	or	a2,s5,a2
800021fc:	8e4d                	or	a2,a2,a1
800021fe:	00079703          	lh	a4,0(a5)
80002202:	d64d                	beqz	a2,800021ac <pjpeg_decode_mcu+0x564>
C:\NucleiStudio_workspace3\simple_world\Debug/../src/picojpeg.c:1323
         int16 x4  = src4 - src7;
80002204:	06c2                	slli	a3,a3,0x10
80002206:	0b42                	slli	s6,s6,0x10
80002208:	010b5b13          	srli	s6,s6,0x10
8000220c:	82c1                	srli	a3,a3,0x10
8000220e:	41668bb3          	sub	s7,a3,s6
C:\NucleiStudio_workspace3\simple_world\Debug/../src/picojpeg.c:1328
         int16 x5  = src5 + src6;
80002212:	010e1613          	slli	a2,t3,0x10
80002216:	05c2                	slli	a1,a1,0x10
C:\NucleiStudio_workspace3\simple_world\Debug/../src/picojpeg.c:1323
         int16 x4  = src4 - src7;
80002218:	0bc2                	slli	s7,s7,0x10
C:\NucleiStudio_workspace3\simple_world\Debug/../src/picojpeg.c:1328
         int16 x5  = src5 + src6;
8000221a:	81c1                	srli	a1,a1,0x10
8000221c:	8241                	srli	a2,a2,0x10
C:\NucleiStudio_workspace3\simple_world\Debug/../src/picojpeg.c:1323
         int16 x4  = src4 - src7;
8000221e:	010bdb93          	srli	s7,s7,0x10
C:\NucleiStudio_workspace3\simple_world\Debug/../src/picojpeg.c:1331
         int16 tmp1 = imul_b5(x4 - x6);
80002222:	40cb82b3          	sub	t0,s7,a2
C:\NucleiStudio_workspace3\simple_world\Debug/../src/picojpeg.c:1329
         int16 x6  = src5 - src6;
80002226:	40b603b3          	sub	t2,a2,a1
C:\NucleiStudio_workspace3\simple_world\Debug/../src/picojpeg.c:1331
         int16 tmp1 = imul_b5(x4 - x6);
8000222a:	92ae                	add	t0,t0,a1
imul_b4():
C:\NucleiStudio_workspace3\simple_world\Debug/../src/picojpeg.c:1272
   long x = (w * 277L);
8000222c:	03c2                	slli	t2,t2,0x10
8000222e:	4103d393          	srai	t2,t2,0x10
imul_b5():
C:\NucleiStudio_workspace3\simple_world\Debug/../src/picojpeg.c:1281
   long x = (w * 196L);
80002232:	02c2                	slli	t0,t0,0x10
idctRows():
C:\NucleiStudio_workspace3\simple_world\Debug/../src/picojpeg.c:1324
         int16 x7  = src4 + src7;
80002234:	96da                	add	a3,a3,s6
C:\NucleiStudio_workspace3\simple_world\Debug/../src/picojpeg.c:1328
         int16 x5  = src5 + src6;
80002236:	962e                	add	a2,a2,a1
imul_b5():
C:\NucleiStudio_workspace3\simple_world\Debug/../src/picojpeg.c:1281
   long x = (w * 196L);
80002238:	4102d293          	srai	t0,t0,0x10
imul_b4():
C:\NucleiStudio_workspace3\simple_world\Debug/../src/picojpeg.c:1272
   long x = (w * 277L);
8000223c:	031383b3          	mul	t2,t2,a7
idctRows():
C:\NucleiStudio_workspace3\simple_world\Debug/../src/picojpeg.c:1328
         int16 x5  = src5 + src6;
80002240:	01061593          	slli	a1,a2,0x10
C:\NucleiStudio_workspace3\simple_world\Debug/../src/picojpeg.c:1350
         int16 x12 = src2 - src3;
80002244:	010e9c13          	slli	s8,t4,0x10
C:\NucleiStudio_workspace3\simple_world\Debug/../src/picojpeg.c:1324
         int16 x7  = src4 + src7;
80002248:	06c2                	slli	a3,a3,0x10
C:\NucleiStudio_workspace3\simple_world\Debug/../src/picojpeg.c:1350
         int16 x12 = src2 - src3;
8000224a:	0ac2                	slli	s5,s5,0x10
C:\NucleiStudio_workspace3\simple_world\Debug/../src/picojpeg.c:1328
         int16 x5  = src5 + src6;
8000224c:	81c1                	srli	a1,a1,0x10
C:\NucleiStudio_workspace3\simple_world\Debug/../src/picojpeg.c:1350
         int16 x12 = src2 - src3;
8000224e:	010ada93          	srli	s5,s5,0x10
C:\NucleiStudio_workspace3\simple_world\Debug/../src/picojpeg.c:1324
         int16 x7  = src4 + src7;
80002252:	82c1                	srli	a3,a3,0x10
C:\NucleiStudio_workspace3\simple_world\Debug/../src/picojpeg.c:1350
         int16 x12 = src2 - src3;
80002254:	010c5c13          	srli	s8,s8,0x10
C:\NucleiStudio_workspace3\simple_world\Debug/../src/picojpeg.c:1336
         int16 x15 = x5 - x7;
80002258:	40d58eb3          	sub	t4,a1,a3
imul_b5():
C:\NucleiStudio_workspace3\simple_world\Debug/../src/picojpeg.c:1281
   long x = (w * 196L);
8000225c:	026282b3          	mul	t0,t0,t1
idctRows():
C:\NucleiStudio_workspace3\simple_world\Debug/../src/picojpeg.c:1350
         int16 x12 = src2 - src3;
80002260:	415c0633          	sub	a2,s8,s5
imul_b1_b3():
C:\NucleiStudio_workspace3\simple_world\Debug/../src/picojpeg.c:1254
   long x = (w * 362L);
80002264:	0ec2                	slli	t4,t4,0x10
80002266:	0642                	slli	a2,a2,0x10
80002268:	410ede93          	srai	t4,t4,0x10
8000226c:	8641                	srai	a2,a2,0x10
idctRows():
C:\NucleiStudio_workspace3\simple_world\Debug/../src/picojpeg.c:1345
         int16 x30 = src0 + src1;
8000226e:	010f9e13          	slli	t3,t6,0x10
imul_b2():
C:\NucleiStudio_workspace3\simple_world\Debug/../src/picojpeg.c:1263
   long x = (w * 669L);
80002272:	0bc2                	slli	s7,s7,0x10
idctRows():
C:\NucleiStudio_workspace3\simple_world\Debug/../src/picojpeg.c:1345
         int16 x30 = src0 + src1;
80002274:	0742                	slli	a4,a4,0x10
80002276:	8341                	srli	a4,a4,0x10
imul_b1_b3():
C:\NucleiStudio_workspace3\simple_world\Debug/../src/picojpeg.c:1254
   long x = (w * 362L);
80002278:	02ae8eb3          	mul	t4,t4,a0
imul_b2():
C:\NucleiStudio_workspace3\simple_world\Debug/../src/picojpeg.c:1263
   long x = (w * 669L);
8000227c:	410bdb93          	srai	s7,s7,0x10
idctRows():
C:\NucleiStudio_workspace3\simple_world\Debug/../src/picojpeg.c:1345
         int16 x30 = src0 + src1;
80002280:	010e5e13          	srli	t3,t3,0x10
C:\NucleiStudio_workspace3\simple_world\Debug/../src/picojpeg.c:1346
         int16 x31 = src0 - src1;
80002284:	41c70b33          	sub	s6,a4,t3
C:\NucleiStudio_workspace3\simple_world\Debug/../src/picojpeg.c:1345
         int16 x30 = src0 + src1;
80002288:	9e3a                	add	t3,t3,a4
imul_b4():
C:\NucleiStudio_workspace3\simple_world\Debug/../src/picojpeg.c:1273
   x += 128L;
8000228a:	08038393          	addi	t2,t2,128
idctRows():
C:\NucleiStudio_workspace3\simple_world\Debug/../src/picojpeg.c:1337
         int16 x17 = x5 + x7;
8000228e:	96ae                	add	a3,a3,a1
imul_b4():
C:\NucleiStudio_workspace3\simple_world\Debug/../src/picojpeg.c:1274
   return (int16)(PJPG_ARITH_SHIFT_RIGHT_8_L(x));
80002290:	4083d393          	srai	t2,t2,0x8
imul_b5():
C:\NucleiStudio_workspace3\simple_world\Debug/../src/picojpeg.c:1282
   x += 128L;
80002294:	08028293          	addi	t0,t0,128
idctRows():
C:\NucleiStudio_workspace3\simple_world\Debug/../src/picojpeg.c:1337
         int16 x17 = x5 + x7;
80002298:	06c2                	slli	a3,a3,0x10
imul_b1_b3():
C:\NucleiStudio_workspace3\simple_world\Debug/../src/picojpeg.c:1254
   long x = (w * 362L);
8000229a:	02a60633          	mul	a2,a2,a0
idctRows():
C:\NucleiStudio_workspace3\simple_world\Debug/../src/picojpeg.c:1332
         int16 stg26 = imul_b4(x6) - tmp1;
8000229e:	03c2                	slli	t2,t2,0x10
imul_b5():
C:\NucleiStudio_workspace3\simple_world\Debug/../src/picojpeg.c:1283
   return (int16)(PJPG_ARITH_SHIFT_RIGHT_8_L(x));
800022a0:	4082d293          	srai	t0,t0,0x8
idctRows():
C:\NucleiStudio_workspace3\simple_world\Debug/../src/picojpeg.c:1337
         int16 x17 = x5 + x7;
800022a4:	82c1                	srli	a3,a3,0x10
C:\NucleiStudio_workspace3\simple_world\Debug/../src/picojpeg.c:1332
         int16 stg26 = imul_b4(x6) - tmp1;
800022a6:	0103d393          	srli	t2,t2,0x10
800022aa:	02c2                	slli	t0,t0,0x10
800022ac:	0102d293          	srli	t0,t0,0x10
imul_b2():
C:\NucleiStudio_workspace3\simple_world\Debug/../src/picojpeg.c:1263
   long x = (w * 669L);
800022b0:	40768fb3          	sub	t6,a3,t2
800022b4:	9f96                	add	t6,t6,t0
idctRows():
C:\NucleiStudio_workspace3\simple_world\Debug/../src/picojpeg.c:1351
         int16 x13 = src2 + src3;
800022b6:	9c56                	add	s8,s8,s5
imul_b2():
C:\NucleiStudio_workspace3\simple_world\Debug/../src/picojpeg.c:1263
   long x = (w * 669L);
800022b8:	030b8733          	mul	a4,s7,a6
800022bc:	0fc2                	slli	t6,t6,0x10
imul_b1_b3():
C:\NucleiStudio_workspace3\simple_world\Debug/../src/picojpeg.c:1255
   x += 128L;
800022be:	080e8e93          	addi	t4,t4,128
800022c2:	08060613          	addi	a2,a2,128
800022c6:	010fdf93          	srli	t6,t6,0x10
idctRows():
C:\NucleiStudio_workspace3\simple_world\Debug/../src/picojpeg.c:1351
         int16 x13 = src2 + src3;
800022ca:	0c42                	slli	s8,s8,0x10
C:\NucleiStudio_workspace3\simple_world\Debug/../src/picojpeg.c:1346
         int16 x31 = src0 - src1;
800022cc:	0b42                	slli	s6,s6,0x10
imul_b1_b3():
C:\NucleiStudio_workspace3\simple_world\Debug/../src/picojpeg.c:1256
   return (int16)(PJPG_ARITH_SHIFT_RIGHT_8_L(x));
800022ce:	408ede93          	srai	t4,t4,0x8
800022d2:	8621                	srai	a2,a2,0x8
idctRows():
C:\NucleiStudio_workspace3\simple_world\Debug/../src/picojpeg.c:1351
         int16 x13 = src2 + src3;
800022d4:	010c5c13          	srli	s8,s8,0x10
C:\NucleiStudio_workspace3\simple_world\Debug/../src/picojpeg.c:1346
         int16 x31 = src0 - src1;
800022d8:	010b5b13          	srli	s6,s6,0x10
C:\NucleiStudio_workspace3\simple_world\Debug/../src/picojpeg.c:1340
         int16 tmp3 = imul_b1_b3(x15) - tmp2;
800022dc:	9efe                	add	t4,t4,t6
C:\NucleiStudio_workspace3\simple_world\Debug/../src/picojpeg.c:1353
         int16 x32 = imul_b1_b3(x12) - x13;
800022de:	0642                	slli	a2,a2,0x10
imul_b2():
C:\NucleiStudio_workspace3\simple_world\Debug/../src/picojpeg.c:1264
   x += 128L;
800022e0:	08070713          	addi	a4,a4,128
idctRows():
C:\NucleiStudio_workspace3\simple_world\Debug/../src/picojpeg.c:1357
         int16 x41 = x31 + x32;
800022e4:	418b0ab3          	sub	s5,s6,s8
C:\NucleiStudio_workspace3\simple_world\Debug/../src/picojpeg.c:1353
         int16 x32 = imul_b1_b3(x12) - x13;
800022e8:	8241                	srli	a2,a2,0x10
C:\NucleiStudio_workspace3\simple_world\Debug/../src/picojpeg.c:1340
         int16 tmp3 = imul_b1_b3(x15) - tmp2;
800022ea:	0ec2                	slli	t4,t4,0x10
C:\NucleiStudio_workspace3\simple_world\Debug/../src/picojpeg.c:1345
         int16 x30 = src0 + src1;
800022ec:	0e42                	slli	t3,t3,0x10
imul_b2():
C:\NucleiStudio_workspace3\simple_world\Debug/../src/picojpeg.c:1265
   return (int16)(PJPG_ARITH_SHIFT_RIGHT_8_L(x));
800022ee:	8721                	srai	a4,a4,0x8
idctRows():
C:\NucleiStudio_workspace3\simple_world\Debug/../src/picojpeg.c:1340
         int16 tmp3 = imul_b1_b3(x15) - tmp2;
800022f0:	010ede93          	srli	t4,t4,0x10
C:\NucleiStudio_workspace3\simple_world\Debug/../src/picojpeg.c:1345
         int16 x30 = src0 + src1;
800022f4:	010e5e13          	srli	t3,t3,0x10
C:\NucleiStudio_workspace3\simple_world\Debug/../src/picojpeg.c:1358
         int16 x42 = x31 - x32;
800022f8:	9b62                	add	s6,s6,s8
C:\NucleiStudio_workspace3\simple_world\Debug/../src/picojpeg.c:1357
         int16 x41 = x31 + x32;
800022fa:	9ab2                	add	s5,s5,a2
C:\NucleiStudio_workspace3\simple_world\Debug/../src/picojpeg.c:1334
         int16 x24 = tmp1 - imul_b2(x4);
800022fc:	40e28733          	sub	a4,t0,a4
C:\NucleiStudio_workspace3\simple_world\Debug/../src/picojpeg.c:1355
         int16 x40 = x30 + x13;
80002300:	018e05b3          	add	a1,t3,s8
C:\NucleiStudio_workspace3\simple_world\Debug/../src/picojpeg.c:1358
         int16 x42 = x31 - x32;
80002304:	40cb0633          	sub	a2,s6,a2
C:\NucleiStudio_workspace3\simple_world\Debug/../src/picojpeg.c:1356
         int16 x43 = x30 - x13;
80002308:	418e0e33          	sub	t3,t3,s8
C:\NucleiStudio_workspace3\simple_world\Debug/../src/picojpeg.c:1357
         int16 x41 = x31 + x32;
8000230c:	0ac2                	slli	s5,s5,0x10
C:\NucleiStudio_workspace3\simple_world\Debug/../src/picojpeg.c:1341
         int16 x44 = tmp3 + x24;
8000230e:	9776                	add	a4,a4,t4
C:\NucleiStudio_workspace3\simple_world\Debug/../src/picojpeg.c:1357
         int16 x41 = x31 + x32;
80002310:	010ada93          	srli	s5,s5,0x10
C:\NucleiStudio_workspace3\simple_world\Debug/../src/picojpeg.c:1361
         *(pSrc+1) = x41 + tmp2;
80002314:	40d383b3          	sub	t2,t2,a3
C:\NucleiStudio_workspace3\simple_world\Debug/../src/picojpeg.c:1355
         int16 x40 = x30 + x13;
80002318:	05c2                	slli	a1,a1,0x10
C:\NucleiStudio_workspace3\simple_world\Debug/../src/picojpeg.c:1356
         int16 x43 = x30 - x13;
8000231a:	0e42                	slli	t3,t3,0x10
C:\NucleiStudio_workspace3\simple_world\Debug/../src/picojpeg.c:1341
         int16 x44 = tmp3 + x24;
8000231c:	0742                	slli	a4,a4,0x10
C:\NucleiStudio_workspace3\simple_world\Debug/../src/picojpeg.c:1358
         int16 x42 = x31 - x32;
8000231e:	0642                	slli	a2,a2,0x10
C:\NucleiStudio_workspace3\simple_world\Debug/../src/picojpeg.c:1355
         int16 x40 = x30 + x13;
80002320:	81c1                	srli	a1,a1,0x10
C:\NucleiStudio_workspace3\simple_world\Debug/../src/picojpeg.c:1356
         int16 x43 = x30 - x13;
80002322:	010e5e13          	srli	t3,t3,0x10
C:\NucleiStudio_workspace3\simple_world\Debug/../src/picojpeg.c:1341
         int16 x44 = tmp3 + x24;
80002326:	8341                	srli	a4,a4,0x10
C:\NucleiStudio_workspace3\simple_world\Debug/../src/picojpeg.c:1358
         int16 x42 = x31 - x32;
80002328:	8241                	srli	a2,a2,0x10
C:\NucleiStudio_workspace3\simple_world\Debug/../src/picojpeg.c:1361
         *(pSrc+1) = x41 + tmp2;
8000232a:	93d6                	add	t2,t2,s5
C:\NucleiStudio_workspace3\simple_world\Debug/../src/picojpeg.c:1360
         *(pSrc+0) = x40 + x17;
8000232c:	00b68b33          	add	s6,a3,a1
C:\NucleiStudio_workspace3\simple_world\Debug/../src/picojpeg.c:1361
         *(pSrc+1) = x41 + tmp2;
80002330:	405382b3          	sub	t0,t2,t0
C:\NucleiStudio_workspace3\simple_world\Debug/../src/picojpeg.c:1362
         *(pSrc+2) = x42 + tmp3;
80002334:	00ce8bb3          	add	s7,t4,a2
C:\NucleiStudio_workspace3\simple_world\Debug/../src/picojpeg.c:1363
         *(pSrc+3) = x43 - x44;
80002338:	40ee03b3          	sub	t2,t3,a4
C:\NucleiStudio_workspace3\simple_world\Debug/../src/picojpeg.c:1365
         *(pSrc+5) = x42 - tmp3;
8000233c:	41d60633          	sub	a2,a2,t4
C:\NucleiStudio_workspace3\simple_world\Debug/../src/picojpeg.c:1364
         *(pSrc+4) = x43 + x44;
80002340:	9772                	add	a4,a4,t3
C:\NucleiStudio_workspace3\simple_world\Debug/../src/picojpeg.c:1366
         *(pSrc+6) = x41 - tmp2;
80002342:	9fd6                	add	t6,t6,s5
C:\NucleiStudio_workspace3\simple_world\Debug/../src/picojpeg.c:1367
         *(pSrc+7) = x40 - x17;
80002344:	8d95                	sub	a1,a1,a3
C:\NucleiStudio_workspace3\simple_world\Debug/../src/picojpeg.c:1360
         *(pSrc+0) = x40 + x17;
80002346:	01679023          	sh	s6,0(a5)
C:\NucleiStudio_workspace3\simple_world\Debug/../src/picojpeg.c:1361
         *(pSrc+1) = x41 + tmp2;
8000234a:	00579123          	sh	t0,2(a5)
C:\NucleiStudio_workspace3\simple_world\Debug/../src/picojpeg.c:1362
         *(pSrc+2) = x42 + tmp3;
8000234e:	01779223          	sh	s7,4(a5)
C:\NucleiStudio_workspace3\simple_world\Debug/../src/picojpeg.c:1363
         *(pSrc+3) = x43 - x44;
80002352:	00779323          	sh	t2,6(a5)
C:\NucleiStudio_workspace3\simple_world\Debug/../src/picojpeg.c:1364
         *(pSrc+4) = x43 + x44;
80002356:	00e79423          	sh	a4,8(a5)
C:\NucleiStudio_workspace3\simple_world\Debug/../src/picojpeg.c:1365
         *(pSrc+5) = x42 - tmp3;
8000235a:	00c79523          	sh	a2,10(a5)
C:\NucleiStudio_workspace3\simple_world\Debug/../src/picojpeg.c:1366
         *(pSrc+6) = x41 - tmp2;
8000235e:	01f79623          	sh	t6,12(a5)
C:\NucleiStudio_workspace3\simple_world\Debug/../src/picojpeg.c:1367
         *(pSrc+7) = x40 - x17;
80002362:	00b79723          	sh	a1,14(a5)
C:\NucleiStudio_workspace3\simple_world\Debug/../src/picojpeg.c:1370
      pSrc += 8;
80002366:	07c1                	addi	a5,a5,16
C:\NucleiStudio_workspace3\simple_world\Debug/../src/picojpeg.c:1304
   for (i = 0; i < 8; i++)
80002368:	e7e793e3          	bne	a5,t5,800021ce <pjpeg_decode_mcu+0x586>
8000236c:	9000abb7          	lui	s7,0x9000a
idctCols():
C:\NucleiStudio_workspace3\simple_world\Debug/../src/picojpeg.c:1378
   int16* pSrc = gCoeffBuf;
80002370:	86a2                	mv	a3,s0
80002372:	72cb8b93          	addi	s7,s7,1836 # 9000a72c <_sp+0xffffa72c>
imul_b5():
C:\NucleiStudio_workspace3\simple_world\Debug/../src/picojpeg.c:1281
   long x = (w * 196L);
80002376:	0c400d93          	li	s11,196
imul_b4():
C:\NucleiStudio_workspace3\simple_world\Debug/../src/picojpeg.c:1272
   long x = (w * 277L);
8000237a:	11500d13          	li	s10,277
imul_b2():
C:\NucleiStudio_workspace3\simple_world\Debug/../src/picojpeg.c:1263
   long x = (w * 669L);
8000237e:	29d00c93          	li	s9,669
imul_b1_b3():
C:\NucleiStudio_workspace3\simple_world\Debug/../src/picojpeg.c:1254
   long x = (w * 362L);
80002382:	16a00c13          	li	s8,362
clamp():
C:\NucleiStudio_workspace3\simple_world\Debug/../src/picojpeg.c:1288
   if ((uint16)s > 255U)
80002386:	0ff00393          	li	t2,255
8000238a:	a881                	j	800023da <pjpeg_decode_mcu+0x792>
idctCols():
C:\NucleiStudio_workspace3\simple_world\Debug/../src/picojpeg.c:1385
         uint8 c = clamp(PJPG_DESCALE(*pSrc) + 128);
8000238c:	04030793          	addi	a5,t1,64
80002390:	879d                	srai	a5,a5,0x7
80002392:	08078793          	addi	a5,a5,128
80002396:	07c2                	slli	a5,a5,0x10
80002398:	83c1                	srli	a5,a5,0x10
clamp():
C:\NucleiStudio_workspace3\simple_world\Debug/../src/picojpeg.c:1296
   return (uint8)s;
8000239a:	0ff7f713          	andi	a4,a5,255
C:\NucleiStudio_workspace3\simple_world\Debug/../src/picojpeg.c:1288
   if ((uint16)s > 255U)
8000239e:	00f3f863          	bgeu	t2,a5,800023ae <pjpeg_decode_mcu+0x766>
C:\NucleiStudio_workspace3\simple_world\Debug/../src/picojpeg.c:1290
      if (s < 0) 
800023a2:	fff7c793          	not	a5,a5
800023a6:	07c2                	slli	a5,a5,0x10
800023a8:	87fd                	srai	a5,a5,0x1f
800023aa:	0ff7f713          	andi	a4,a5,255
idctCols():
C:\NucleiStudio_workspace3\simple_world\Debug/../src/picojpeg.c:1386
         *(pSrc+0*8) = c;
800023ae:	01071793          	slli	a5,a4,0x10
800023b2:	87c1                	srai	a5,a5,0x10
800023b4:	00f69023          	sh	a5,0(a3)
C:\NucleiStudio_workspace3\simple_world\Debug/../src/picojpeg.c:1387
         *(pSrc+1*8) = c;
800023b8:	00f69823          	sh	a5,16(a3)
C:\NucleiStudio_workspace3\simple_world\Debug/../src/picojpeg.c:1388
         *(pSrc+2*8) = c;
800023bc:	02f69023          	sh	a5,32(a3)
C:\NucleiStudio_workspace3\simple_world\Debug/../src/picojpeg.c:1389
         *(pSrc+3*8) = c;
800023c0:	02f69823          	sh	a5,48(a3)
C:\NucleiStudio_workspace3\simple_world\Debug/../src/picojpeg.c:1390
         *(pSrc+4*8) = c;
800023c4:	04f69023          	sh	a5,64(a3)
C:\NucleiStudio_workspace3\simple_world\Debug/../src/picojpeg.c:1391
         *(pSrc+5*8) = c;
800023c8:	04f69823          	sh	a5,80(a3)
C:\NucleiStudio_workspace3\simple_world\Debug/../src/picojpeg.c:1392
         *(pSrc+6*8) = c;
800023cc:	06f69023          	sh	a5,96(a3)
C:\NucleiStudio_workspace3\simple_world\Debug/../src/picojpeg.c:1393
         *(pSrc+7*8) = c;
800023d0:	06f69823          	sh	a5,112(a3)
C:\NucleiStudio_workspace3\simple_world\Debug/../src/picojpeg.c:1447
      pSrc++;      
800023d4:	0689                	addi	a3,a3,2
C:\NucleiStudio_workspace3\simple_world\Debug/../src/picojpeg.c:1380
   for (i = 0; i < 8; i++)
800023d6:	2f768363          	beq	a3,s7,800026bc <pjpeg_decode_mcu+0xa74>
C:\NucleiStudio_workspace3\simple_world\Debug/../src/picojpeg.c:1382
      if ((pSrc[1*8] | pSrc[2*8] | pSrc[3*8] | pSrc[4*8] | pSrc[5*8] | pSrc[6*8] | pSrc[7*8]) == 0)
800023da:	01069583          	lh	a1,16(a3)
800023de:	02069e03          	lh	t3,32(a3)
800023e2:	03069703          	lh	a4,48(a3)
800023e6:	04069603          	lh	a2,64(a3)
800023ea:	05069e83          	lh	t4,80(a3)
800023ee:	01c5e7b3          	or	a5,a1,t3
800023f2:	06069f83          	lh	t6,96(a3)
800023f6:	8fd9                	or	a5,a5,a4
800023f8:	07069803          	lh	a6,112(a3)
800023fc:	8fd1                	or	a5,a5,a2
800023fe:	00fee7b3          	or	a5,t4,a5
80002402:	00ffe7b3          	or	a5,t6,a5
80002406:	00f867b3          	or	a5,a6,a5
8000240a:	00069303          	lh	t1,0(a3)
8000240e:	dfbd                	beqz	a5,8000238c <pjpeg_decode_mcu+0x744>
C:\NucleiStudio_workspace3\simple_world\Debug/../src/picojpeg.c:1399
         int16 x4  = src4 - src7;
80002410:	01071513          	slli	a0,a4,0x10
80002414:	0ec2                	slli	t4,t4,0x10
80002416:	8141                	srli	a0,a0,0x10
C:\NucleiStudio_workspace3\simple_world\Debug/../src/picojpeg.c:1404
         int16 x5  = src5 + src6;
80002418:	01081793          	slli	a5,a6,0x10
C:\NucleiStudio_workspace3\simple_world\Debug/../src/picojpeg.c:1399
         int16 x4  = src4 - src7;
8000241c:	010ede93          	srli	t4,t4,0x10
C:\NucleiStudio_workspace3\simple_world\Debug/../src/picojpeg.c:1404
         int16 x5  = src5 + src6;
80002420:	05c2                	slli	a1,a1,0x10
80002422:	83c1                	srli	a5,a5,0x10
80002424:	81c1                	srli	a1,a1,0x10
C:\NucleiStudio_workspace3\simple_world\Debug/../src/picojpeg.c:1399
         int16 x4  = src4 - src7;
80002426:	40ae8733          	sub	a4,t4,a0
C:\NucleiStudio_workspace3\simple_world\Debug/../src/picojpeg.c:1404
         int16 x5  = src5 + src6;
8000242a:	00f582b3          	add	t0,a1,a5
C:\NucleiStudio_workspace3\simple_world\Debug/../src/picojpeg.c:1400
         int16 x7  = src4 + src7;
8000242e:	9eaa                	add	t4,t4,a0
C:\NucleiStudio_workspace3\simple_world\Debug/../src/picojpeg.c:1399
         int16 x4  = src4 - src7;
80002430:	0742                	slli	a4,a4,0x10
C:\NucleiStudio_workspace3\simple_world\Debug/../src/picojpeg.c:1405
         int16 x6  = src5 - src6;
80002432:	40f58833          	sub	a6,a1,a5
C:\NucleiStudio_workspace3\simple_world\Debug/../src/picojpeg.c:1399
         int16 x4  = src4 - src7;
80002436:	8341                	srli	a4,a4,0x10
C:\NucleiStudio_workspace3\simple_world\Debug/../src/picojpeg.c:1400
         int16 x7  = src4 + src7;
80002438:	0ec2                	slli	t4,t4,0x10
C:\NucleiStudio_workspace3\simple_world\Debug/../src/picojpeg.c:1404
         int16 x5  = src5 + src6;
8000243a:	02c2                	slli	t0,t0,0x10
8000243c:	0102d293          	srli	t0,t0,0x10
C:\NucleiStudio_workspace3\simple_world\Debug/../src/picojpeg.c:1400
         int16 x7  = src4 + src7;
80002440:	010ede93          	srli	t4,t4,0x10
C:\NucleiStudio_workspace3\simple_world\Debug/../src/picojpeg.c:1407
         int16 tmp1 = imul_b5(x4 - x6);
80002444:	40b705b3          	sub	a1,a4,a1
imul_b4():
C:\NucleiStudio_workspace3\simple_world\Debug/../src/picojpeg.c:1272
   long x = (w * 277L);
80002448:	0842                	slli	a6,a6,0x10
idctCols():
C:\NucleiStudio_workspace3\simple_world\Debug/../src/picojpeg.c:1412
         int16 x15 = x5 - x7;
8000244a:	41d288b3          	sub	a7,t0,t4
C:\NucleiStudio_workspace3\simple_world\Debug/../src/picojpeg.c:1407
         int16 tmp1 = imul_b5(x4 - x6);
8000244e:	95be                	add	a1,a1,a5
imul_b4():
C:\NucleiStudio_workspace3\simple_world\Debug/../src/picojpeg.c:1272
   long x = (w * 277L);
80002450:	41085813          	srai	a6,a6,0x10
idctCols():
C:\NucleiStudio_workspace3\simple_world\Debug/../src/picojpeg.c:1426
         int16 x12 = src2 - src3;
80002454:	010f9a93          	slli	s5,t6,0x10
imul_b4():
C:\NucleiStudio_workspace3\simple_world\Debug/../src/picojpeg.c:1272
   long x = (w * 277L);
80002458:	03a80833          	mul	a6,a6,s10
imul_b1_b3():
C:\NucleiStudio_workspace3\simple_world\Debug/../src/picojpeg.c:1254
   long x = (w * 362L);
8000245c:	08c2                	slli	a7,a7,0x10
idctCols():
C:\NucleiStudio_workspace3\simple_world\Debug/../src/picojpeg.c:1426
         int16 x12 = src2 - src3;
8000245e:	0e42                	slli	t3,t3,0x10
imul_b5():
C:\NucleiStudio_workspace3\simple_world\Debug/../src/picojpeg.c:1281
   long x = (w * 196L);
80002460:	05c2                	slli	a1,a1,0x10
idctCols():
C:\NucleiStudio_workspace3\simple_world\Debug/../src/picojpeg.c:1426
         int16 x12 = src2 - src3;
80002462:	010ada93          	srli	s5,s5,0x10
80002466:	010e5e13          	srli	t3,t3,0x10
imul_b5():
C:\NucleiStudio_workspace3\simple_world\Debug/../src/picojpeg.c:1281
   long x = (w * 196L);
8000246a:	85c1                	srai	a1,a1,0x10
imul_b1_b3():
C:\NucleiStudio_workspace3\simple_world\Debug/../src/picojpeg.c:1254
   long x = (w * 362L);
8000246c:	4108d893          	srai	a7,a7,0x10
idctCols():
C:\NucleiStudio_workspace3\simple_world\Debug/../src/picojpeg.c:1426
         int16 x12 = src2 - src3;
80002470:	415e0fb3          	sub	t6,t3,s5
imul_b1_b3():
C:\NucleiStudio_workspace3\simple_world\Debug/../src/picojpeg.c:1254
   long x = (w * 362L);
80002474:	0fc2                	slli	t6,t6,0x10
imul_b5():
C:\NucleiStudio_workspace3\simple_world\Debug/../src/picojpeg.c:1281
   long x = (w * 196L);
80002476:	03b58533          	mul	a0,a1,s11
imul_b2():
C:\NucleiStudio_workspace3\simple_world\Debug/../src/picojpeg.c:1263
   long x = (w * 669L);
8000247a:	0742                	slli	a4,a4,0x10
imul_b1_b3():
C:\NucleiStudio_workspace3\simple_world\Debug/../src/picojpeg.c:1254
   long x = (w * 362L);
8000247c:	410fdf93          	srai	t6,t6,0x10
imul_b2():
C:\NucleiStudio_workspace3\simple_world\Debug/../src/picojpeg.c:1263
   long x = (w * 669L);
80002480:	8741                	srai	a4,a4,0x10
idctCols():
C:\NucleiStudio_workspace3\simple_world\Debug/../src/picojpeg.c:1421
         int16 x30 = src0 + src1;
80002482:	0342                	slli	t1,t1,0x10
80002484:	0642                	slli	a2,a2,0x10
80002486:	01035313          	srli	t1,t1,0x10
8000248a:	8241                	srli	a2,a2,0x10
8000248c:	00c30b33          	add	s6,t1,a2
C:\NucleiStudio_workspace3\simple_world\Debug/../src/picojpeg.c:1427
         int16 x13 = src2 + src3;
80002490:	9e56                	add	t3,t3,s5
imul_b1_b3():
C:\NucleiStudio_workspace3\simple_world\Debug/../src/picojpeg.c:1254
   long x = (w * 362L);
80002492:	038888b3          	mul	a7,a7,s8
idctCols():
C:\NucleiStudio_workspace3\simple_world\Debug/../src/picojpeg.c:1427
         int16 x13 = src2 + src3;
80002496:	010e1a93          	slli	s5,t3,0x10
C:\NucleiStudio_workspace3\simple_world\Debug/../src/picojpeg.c:1413
         int16 x17 = x5 + x7;
8000249a:	9e96                	add	t4,t4,t0
C:\NucleiStudio_workspace3\simple_world\Debug/../src/picojpeg.c:1421
         int16 x30 = src0 + src1;
8000249c:	0b42                	slli	s6,s6,0x10
imul_b4():
C:\NucleiStudio_workspace3\simple_world\Debug/../src/picojpeg.c:1273
   x += 128L;
8000249e:	08080813          	addi	a6,a6,128
idctCols():
C:\NucleiStudio_workspace3\simple_world\Debug/../src/picojpeg.c:1427
         int16 x13 = src2 + src3;
800024a2:	010ada93          	srli	s5,s5,0x10
C:\NucleiStudio_workspace3\simple_world\Debug/../src/picojpeg.c:1421
         int16 x30 = src0 + src1;
800024a6:	010b5b13          	srli	s6,s6,0x10
C:\NucleiStudio_workspace3\simple_world\Debug/../src/picojpeg.c:1413
         int16 x17 = x5 + x7;
800024aa:	0ec2                	slli	t4,t4,0x10
imul_b4():
C:\NucleiStudio_workspace3\simple_world\Debug/../src/picojpeg.c:1274
   return (int16)(PJPG_ARITH_SHIFT_RIGHT_8_L(x));
800024ac:	40885813          	srai	a6,a6,0x8
idctCols():
C:\NucleiStudio_workspace3\simple_world\Debug/../src/picojpeg.c:1413
         int16 x17 = x5 + x7;
800024b0:	010ede93          	srli	t4,t4,0x10
imul_b1_b3():
C:\NucleiStudio_workspace3\simple_world\Debug/../src/picojpeg.c:1254
   long x = (w * 362L);
800024b4:	038f8fb3          	mul	t6,t6,s8
imul_b5():
C:\NucleiStudio_workspace3\simple_world\Debug/../src/picojpeg.c:1282
   x += 128L;
800024b8:	08050e13          	addi	t3,a0,128
idctCols():
C:\NucleiStudio_workspace3\simple_world\Debug/../src/picojpeg.c:1431
         int16 x40 = x30 + x13;
800024bc:	015b07b3          	add	a5,s6,s5
imul_b1_b3():
C:\NucleiStudio_workspace3\simple_world\Debug/../src/picojpeg.c:1255
   x += 128L;
800024c0:	08088893          	addi	a7,a7,128
idctCols():
C:\NucleiStudio_workspace3\simple_world\Debug/../src/picojpeg.c:1408
         int16 stg26 = imul_b4(x6) - tmp1;
800024c4:	0842                	slli	a6,a6,0x10
800024c6:	01085813          	srli	a6,a6,0x10
C:\NucleiStudio_workspace3\simple_world\Debug/../src/picojpeg.c:1437
         *(pSrc+0*8) = clamp(PJPG_DESCALE(x40 + x17)  + 128);
800024ca:	010e9593          	slli	a1,t4,0x10
imul_b1_b3():
C:\NucleiStudio_workspace3\simple_world\Debug/../src/picojpeg.c:1256
   return (int16)(PJPG_ARITH_SHIFT_RIGHT_8_L(x));
800024ce:	4088d893          	srai	a7,a7,0x8
idctCols():
C:\NucleiStudio_workspace3\simple_world\Debug/../src/picojpeg.c:1437
         *(pSrc+0*8) = clamp(PJPG_DESCALE(x40 + x17)  + 128);
800024d2:	07c2                	slli	a5,a5,0x10
imul_b5():
C:\NucleiStudio_workspace3\simple_world\Debug/../src/picojpeg.c:1283
   return (int16)(PJPG_ARITH_SHIFT_RIGHT_8_L(x));
800024d4:	408e5e13          	srai	t3,t3,0x8
imul_b2():
C:\NucleiStudio_workspace3\simple_world\Debug/../src/picojpeg.c:1263
   long x = (w * 669L);
800024d8:	03970733          	mul	a4,a4,s9
idctCols():
C:\NucleiStudio_workspace3\simple_world\Debug/../src/picojpeg.c:1416
         int16 tmp3 = imul_b1_b3(x15) - tmp2;
800024dc:	410888b3          	sub	a7,a7,a6
C:\NucleiStudio_workspace3\simple_world\Debug/../src/picojpeg.c:1437
         *(pSrc+0*8) = clamp(PJPG_DESCALE(x40 + x17)  + 128);
800024e0:	87c1                	srai	a5,a5,0x10
800024e2:	85c1                	srai	a1,a1,0x10
C:\NucleiStudio_workspace3\simple_world\Debug/../src/picojpeg.c:1408
         int16 stg26 = imul_b4(x6) - tmp1;
800024e4:	0e42                	slli	t3,t3,0x10
800024e6:	010e5e13          	srli	t3,t3,0x10
C:\NucleiStudio_workspace3\simple_world\Debug/../src/picojpeg.c:1416
         int16 tmp3 = imul_b1_b3(x15) - tmp2;
800024ea:	98f6                	add	a7,a7,t4
C:\NucleiStudio_workspace3\simple_world\Debug/../src/picojpeg.c:1422
         int16 x31 = src0 - src1;
800024ec:	40c30633          	sub	a2,t1,a2
C:\NucleiStudio_workspace3\simple_world\Debug/../src/picojpeg.c:1437
         *(pSrc+0*8) = clamp(PJPG_DESCALE(x40 + x17)  + 128);
800024f0:	00b782b3          	add	t0,a5,a1
imul_b1_b3():
C:\NucleiStudio_workspace3\simple_world\Debug/../src/picojpeg.c:1255
   x += 128L;
800024f4:	080f8f93          	addi	t6,t6,128
idctCols():
C:\NucleiStudio_workspace3\simple_world\Debug/../src/picojpeg.c:1416
         int16 tmp3 = imul_b1_b3(x15) - tmp2;
800024f8:	98f2                	add	a7,a7,t3
imul_b2():
C:\NucleiStudio_workspace3\simple_world\Debug/../src/picojpeg.c:1264
   x += 128L;
800024fa:	08070513          	addi	a0,a4,128
idctCols():
C:\NucleiStudio_workspace3\simple_world\Debug/../src/picojpeg.c:1437
         *(pSrc+0*8) = clamp(PJPG_DESCALE(x40 + x17)  + 128);
800024fe:	04028293          	addi	t0,t0,64
C:\NucleiStudio_workspace3\simple_world\Debug/../src/picojpeg.c:1422
         int16 x31 = src0 - src1;
80002502:	0642                	slli	a2,a2,0x10
imul_b1_b3():
C:\NucleiStudio_workspace3\simple_world\Debug/../src/picojpeg.c:1256
   return (int16)(PJPG_ARITH_SHIFT_RIGHT_8_L(x));
80002504:	408fdf93          	srai	t6,t6,0x8
idctCols():
C:\NucleiStudio_workspace3\simple_world\Debug/../src/picojpeg.c:1422
         int16 x31 = src0 - src1;
80002508:	8241                	srli	a2,a2,0x10
C:\NucleiStudio_workspace3\simple_world\Debug/../src/picojpeg.c:1437
         *(pSrc+0*8) = clamp(PJPG_DESCALE(x40 + x17)  + 128);
8000250a:	4072d293          	srai	t0,t0,0x7
C:\NucleiStudio_workspace3\simple_world\Debug/../src/picojpeg.c:1416
         int16 tmp3 = imul_b1_b3(x15) - tmp2;
8000250e:	08c2                	slli	a7,a7,0x10
imul_b2():
C:\NucleiStudio_workspace3\simple_world\Debug/../src/picojpeg.c:1265
   return (int16)(PJPG_ARITH_SHIFT_RIGHT_8_L(x));
80002510:	8521                	srai	a0,a0,0x8
idctCols():
C:\NucleiStudio_workspace3\simple_world\Debug/../src/picojpeg.c:1429
         int16 x32 = imul_b1_b3(x12) - x13;
80002512:	0fc2                	slli	t6,t6,0x10
80002514:	010fdf93          	srli	t6,t6,0x10
C:\NucleiStudio_workspace3\simple_world\Debug/../src/picojpeg.c:1416
         int16 tmp3 = imul_b1_b3(x15) - tmp2;
80002518:	0108d893          	srli	a7,a7,0x10
C:\NucleiStudio_workspace3\simple_world\Debug/../src/picojpeg.c:1415
         int16 tmp2 = stg26 - x17;
8000251c:	41d80833          	sub	a6,a6,t4
C:\NucleiStudio_workspace3\simple_world\Debug/../src/picojpeg.c:1410
         int16 x24 = tmp1 - imul_b2(x4);
80002520:	40ae0533          	sub	a0,t3,a0
C:\NucleiStudio_workspace3\simple_world\Debug/../src/picojpeg.c:1433
         int16 x41 = x31 + x32;
80002524:	41560733          	sub	a4,a2,s5
C:\NucleiStudio_workspace3\simple_world\Debug/../src/picojpeg.c:1437
         *(pSrc+0*8) = clamp(PJPG_DESCALE(x40 + x17)  + 128);
80002528:	08028293          	addi	t0,t0,128
C:\NucleiStudio_workspace3\simple_world\Debug/../src/picojpeg.c:1434
         int16 x42 = x31 - x32;
8000252c:	9656                	add	a2,a2,s5
C:\NucleiStudio_workspace3\simple_world\Debug/../src/picojpeg.c:1417
         int16 x44 = tmp3 + x24;
8000252e:	9546                	add	a0,a0,a7
C:\NucleiStudio_workspace3\simple_world\Debug/../src/picojpeg.c:1415
         int16 tmp2 = stg26 - x17;
80002530:	41c80833          	sub	a6,a6,t3
C:\NucleiStudio_workspace3\simple_world\Debug/../src/picojpeg.c:1433
         int16 x41 = x31 + x32;
80002534:	977e                	add	a4,a4,t6
C:\NucleiStudio_workspace3\simple_world\Debug/../src/picojpeg.c:1434
         int16 x42 = x31 - x32;
80002536:	41f60633          	sub	a2,a2,t6
C:\NucleiStudio_workspace3\simple_world\Debug/../src/picojpeg.c:1432
         int16 x43 = x30 - x13;
8000253a:	415b0eb3          	sub	t4,s6,s5
C:\NucleiStudio_workspace3\simple_world\Debug/../src/picojpeg.c:1437
         *(pSrc+0*8) = clamp(PJPG_DESCALE(x40 + x17)  + 128);
8000253e:	01029e13          	slli	t3,t0,0x10
C:\NucleiStudio_workspace3\simple_world\Debug/../src/picojpeg.c:1417
         int16 x44 = tmp3 + x24;
80002542:	01051313          	slli	t1,a0,0x10
C:\NucleiStudio_workspace3\simple_world\Debug/../src/picojpeg.c:1437
         *(pSrc+0*8) = clamp(PJPG_DESCALE(x40 + x17)  + 128);
80002546:	010e5e13          	srli	t3,t3,0x10
C:\NucleiStudio_workspace3\simple_world\Debug/../src/picojpeg.c:1415
         int16 tmp2 = stg26 - x17;
8000254a:	0842                	slli	a6,a6,0x10
C:\NucleiStudio_workspace3\simple_world\Debug/../src/picojpeg.c:1416
         int16 tmp3 = imul_b1_b3(x15) - tmp2;
8000254c:	08c2                	slli	a7,a7,0x10
C:\NucleiStudio_workspace3\simple_world\Debug/../src/picojpeg.c:1432
         int16 x43 = x30 - x13;
8000254e:	010e9513          	slli	a0,t4,0x10
C:\NucleiStudio_workspace3\simple_world\Debug/../src/picojpeg.c:1433
         int16 x41 = x31 + x32;
80002552:	0742                	slli	a4,a4,0x10
C:\NucleiStudio_workspace3\simple_world\Debug/../src/picojpeg.c:1434
         int16 x42 = x31 - x32;
80002554:	0642                	slli	a2,a2,0x10
C:\NucleiStudio_workspace3\simple_world\Debug/../src/picojpeg.c:1415
         int16 tmp2 = stg26 - x17;
80002556:	41085813          	srai	a6,a6,0x10
C:\NucleiStudio_workspace3\simple_world\Debug/../src/picojpeg.c:1416
         int16 tmp3 = imul_b1_b3(x15) - tmp2;
8000255a:	4108d893          	srai	a7,a7,0x10
C:\NucleiStudio_workspace3\simple_world\Debug/../src/picojpeg.c:1417
         int16 x44 = tmp3 + x24;
8000255e:	41035313          	srai	t1,t1,0x10
C:\NucleiStudio_workspace3\simple_world\Debug/../src/picojpeg.c:1432
         int16 x43 = x30 - x13;
80002562:	8541                	srai	a0,a0,0x10
C:\NucleiStudio_workspace3\simple_world\Debug/../src/picojpeg.c:1433
         int16 x41 = x31 + x32;
80002564:	8741                	srai	a4,a4,0x10
C:\NucleiStudio_workspace3\simple_world\Debug/../src/picojpeg.c:1434
         int16 x42 = x31 - x32;
80002566:	8641                	srai	a2,a2,0x10
clamp():
C:\NucleiStudio_workspace3\simple_world\Debug/../src/picojpeg.c:1296
   return (uint8)s;
80002568:	0ffe7f93          	andi	t6,t3,255
C:\NucleiStudio_workspace3\simple_world\Debug/../src/picojpeg.c:1288
   if ((uint16)s > 255U)
8000256c:	01c3f963          	bgeu	t2,t3,8000257e <pjpeg_decode_mcu+0x936>
C:\NucleiStudio_workspace3\simple_world\Debug/../src/picojpeg.c:1290
      if (s < 0) 
80002570:	fffe4e13          	not	t3,t3
80002574:	0e42                	slli	t3,t3,0x10
80002576:	41fe5e13          	srai	t3,t3,0x1f
8000257a:	0ffe7f93          	andi	t6,t3,255
idctCols():
C:\NucleiStudio_workspace3\simple_world\Debug/../src/picojpeg.c:1438
         *(pSrc+1*8) = clamp(PJPG_DESCALE(x41 + tmp2) + 128);
8000257e:	01070eb3          	add	t4,a4,a6
80002582:	040e8e93          	addi	t4,t4,64
80002586:	407ede93          	srai	t4,t4,0x7
8000258a:	080e8e93          	addi	t4,t4,128
8000258e:	0ec2                	slli	t4,t4,0x10
80002590:	010ede93          	srli	t4,t4,0x10
C:\NucleiStudio_workspace3\simple_world\Debug/../src/picojpeg.c:1437
         *(pSrc+0*8) = clamp(PJPG_DESCALE(x40 + x17)  + 128);
80002594:	01f69023          	sh	t6,0(a3)
clamp():
C:\NucleiStudio_workspace3\simple_world\Debug/../src/picojpeg.c:1296
   return (uint8)s;
80002598:	0ffefe13          	andi	t3,t4,255
C:\NucleiStudio_workspace3\simple_world\Debug/../src/picojpeg.c:1288
   if ((uint16)s > 255U)
8000259c:	01d3f963          	bgeu	t2,t4,800025ae <pjpeg_decode_mcu+0x966>
C:\NucleiStudio_workspace3\simple_world\Debug/../src/picojpeg.c:1290
      if (s < 0) 
800025a0:	fffece13          	not	t3,t4
800025a4:	0e42                	slli	t3,t3,0x10
800025a6:	41fe5e13          	srai	t3,t3,0x1f
800025aa:	0ffe7e13          	andi	t3,t3,255
idctCols():
C:\NucleiStudio_workspace3\simple_world\Debug/../src/picojpeg.c:1439
         *(pSrc+2*8) = clamp(PJPG_DESCALE(x42 + tmp3) + 128);
800025ae:	01160eb3          	add	t4,a2,a7
800025b2:	040e8e93          	addi	t4,t4,64
800025b6:	407ede93          	srai	t4,t4,0x7
800025ba:	080e8e93          	addi	t4,t4,128
800025be:	0ec2                	slli	t4,t4,0x10
800025c0:	010ede93          	srli	t4,t4,0x10
C:\NucleiStudio_workspace3\simple_world\Debug/../src/picojpeg.c:1438
         *(pSrc+1*8) = clamp(PJPG_DESCALE(x41 + tmp2) + 128);
800025c4:	01c69823          	sh	t3,16(a3)
clamp():
C:\NucleiStudio_workspace3\simple_world\Debug/../src/picojpeg.c:1296
   return (uint8)s;
800025c8:	0ffefe13          	andi	t3,t4,255
C:\NucleiStudio_workspace3\simple_world\Debug/../src/picojpeg.c:1288
   if ((uint16)s > 255U)
800025cc:	01d3f963          	bgeu	t2,t4,800025de <pjpeg_decode_mcu+0x996>
C:\NucleiStudio_workspace3\simple_world\Debug/../src/picojpeg.c:1290
      if (s < 0) 
800025d0:	fffece13          	not	t3,t4
800025d4:	0e42                	slli	t3,t3,0x10
800025d6:	41fe5e13          	srai	t3,t3,0x1f
800025da:	0ffe7e13          	andi	t3,t3,255
idctCols():
C:\NucleiStudio_workspace3\simple_world\Debug/../src/picojpeg.c:1440
         *(pSrc+3*8) = clamp(PJPG_DESCALE(x43 - x44)  + 128);
800025de:	40650eb3          	sub	t4,a0,t1
800025e2:	040e8e93          	addi	t4,t4,64
800025e6:	407ede93          	srai	t4,t4,0x7
800025ea:	080e8e93          	addi	t4,t4,128
800025ee:	0ec2                	slli	t4,t4,0x10
800025f0:	010ede93          	srli	t4,t4,0x10
C:\NucleiStudio_workspace3\simple_world\Debug/../src/picojpeg.c:1439
         *(pSrc+2*8) = clamp(PJPG_DESCALE(x42 + tmp3) + 128);
800025f4:	03c69023          	sh	t3,32(a3)
clamp():
C:\NucleiStudio_workspace3\simple_world\Debug/../src/picojpeg.c:1296
   return (uint8)s;
800025f8:	0ffefe13          	andi	t3,t4,255
C:\NucleiStudio_workspace3\simple_world\Debug/../src/picojpeg.c:1288
   if ((uint16)s > 255U)
800025fc:	01d3f963          	bgeu	t2,t4,8000260e <pjpeg_decode_mcu+0x9c6>
C:\NucleiStudio_workspace3\simple_world\Debug/../src/picojpeg.c:1290
      if (s < 0) 
80002600:	fffece13          	not	t3,t4
80002604:	0e42                	slli	t3,t3,0x10
80002606:	41fe5e13          	srai	t3,t3,0x1f
8000260a:	0ffe7e13          	andi	t3,t3,255
idctCols():
C:\NucleiStudio_workspace3\simple_world\Debug/../src/picojpeg.c:1441
         *(pSrc+4*8) = clamp(PJPG_DESCALE(x43 + x44)  + 128);
8000260e:	951a                	add	a0,a0,t1
80002610:	04050513          	addi	a0,a0,64
80002614:	851d                	srai	a0,a0,0x7
80002616:	08050513          	addi	a0,a0,128
8000261a:	0542                	slli	a0,a0,0x10
8000261c:	8141                	srli	a0,a0,0x10
C:\NucleiStudio_workspace3\simple_world\Debug/../src/picojpeg.c:1440
         *(pSrc+3*8) = clamp(PJPG_DESCALE(x43 - x44)  + 128);
8000261e:	03c69823          	sh	t3,48(a3)
clamp():
C:\NucleiStudio_workspace3\simple_world\Debug/../src/picojpeg.c:1296
   return (uint8)s;
80002622:	0ff57313          	andi	t1,a0,255
C:\NucleiStudio_workspace3\simple_world\Debug/../src/picojpeg.c:1288
   if ((uint16)s > 255U)
80002626:	00a3f863          	bgeu	t2,a0,80002636 <pjpeg_decode_mcu+0x9ee>
C:\NucleiStudio_workspace3\simple_world\Debug/../src/picojpeg.c:1290
      if (s < 0) 
8000262a:	fff54513          	not	a0,a0
8000262e:	0542                	slli	a0,a0,0x10
80002630:	857d                	srai	a0,a0,0x1f
80002632:	0ff57313          	andi	t1,a0,255
idctCols():
C:\NucleiStudio_workspace3\simple_world\Debug/../src/picojpeg.c:1442
         *(pSrc+5*8) = clamp(PJPG_DESCALE(x42 - tmp3) + 128);
80002636:	41160633          	sub	a2,a2,a7
8000263a:	04060613          	addi	a2,a2,64
8000263e:	861d                	srai	a2,a2,0x7
80002640:	08060613          	addi	a2,a2,128
80002644:	0642                	slli	a2,a2,0x10
80002646:	8241                	srli	a2,a2,0x10
C:\NucleiStudio_workspace3\simple_world\Debug/../src/picojpeg.c:1441
         *(pSrc+4*8) = clamp(PJPG_DESCALE(x43 + x44)  + 128);
80002648:	04669023          	sh	t1,64(a3)
clamp():
C:\NucleiStudio_workspace3\simple_world\Debug/../src/picojpeg.c:1296
   return (uint8)s;
8000264c:	0ff67513          	andi	a0,a2,255
C:\NucleiStudio_workspace3\simple_world\Debug/../src/picojpeg.c:1288
   if ((uint16)s > 255U)
80002650:	00c3f863          	bgeu	t2,a2,80002660 <pjpeg_decode_mcu+0xa18>
C:\NucleiStudio_workspace3\simple_world\Debug/../src/picojpeg.c:1290
      if (s < 0) 
80002654:	fff64613          	not	a2,a2
80002658:	0642                	slli	a2,a2,0x10
8000265a:	867d                	srai	a2,a2,0x1f
8000265c:	0ff67513          	andi	a0,a2,255
idctCols():
C:\NucleiStudio_workspace3\simple_world\Debug/../src/picojpeg.c:1443
         *(pSrc+6*8) = clamp(PJPG_DESCALE(x41 - tmp2) + 128);
80002660:	41070733          	sub	a4,a4,a6
80002664:	04070713          	addi	a4,a4,64
80002668:	871d                	srai	a4,a4,0x7
8000266a:	08070713          	addi	a4,a4,128
8000266e:	0742                	slli	a4,a4,0x10
80002670:	8341                	srli	a4,a4,0x10
C:\NucleiStudio_workspace3\simple_world\Debug/../src/picojpeg.c:1442
         *(pSrc+5*8) = clamp(PJPG_DESCALE(x42 - tmp3) + 128);
80002672:	04a69823          	sh	a0,80(a3)
clamp():
C:\NucleiStudio_workspace3\simple_world\Debug/../src/picojpeg.c:1296
   return (uint8)s;
80002676:	0ff77613          	andi	a2,a4,255
C:\NucleiStudio_workspace3\simple_world\Debug/../src/picojpeg.c:1288
   if ((uint16)s > 255U)
8000267a:	00e3f863          	bgeu	t2,a4,8000268a <pjpeg_decode_mcu+0xa42>
C:\NucleiStudio_workspace3\simple_world\Debug/../src/picojpeg.c:1290
      if (s < 0) 
8000267e:	fff74713          	not	a4,a4
80002682:	0742                	slli	a4,a4,0x10
80002684:	877d                	srai	a4,a4,0x1f
80002686:	0ff77613          	andi	a2,a4,255
idctCols():
C:\NucleiStudio_workspace3\simple_world\Debug/../src/picojpeg.c:1444
         *(pSrc+7*8) = clamp(PJPG_DESCALE(x40 - x17)  + 128);
8000268a:	8f8d                	sub	a5,a5,a1
8000268c:	04078793          	addi	a5,a5,64
80002690:	879d                	srai	a5,a5,0x7
80002692:	08078793          	addi	a5,a5,128
80002696:	07c2                	slli	a5,a5,0x10
80002698:	83c1                	srli	a5,a5,0x10
C:\NucleiStudio_workspace3\simple_world\Debug/../src/picojpeg.c:1443
         *(pSrc+6*8) = clamp(PJPG_DESCALE(x41 - tmp2) + 128);
8000269a:	06c69023          	sh	a2,96(a3)
clamp():
C:\NucleiStudio_workspace3\simple_world\Debug/../src/picojpeg.c:1296
   return (uint8)s;
8000269e:	0ff7f713          	andi	a4,a5,255
C:\NucleiStudio_workspace3\simple_world\Debug/../src/picojpeg.c:1288
   if ((uint16)s > 255U)
800026a2:	00f3f863          	bgeu	t2,a5,800026b2 <pjpeg_decode_mcu+0xa6a>
C:\NucleiStudio_workspace3\simple_world\Debug/../src/picojpeg.c:1290
      if (s < 0) 
800026a6:	fff7c793          	not	a5,a5
800026aa:	07c2                	slli	a5,a5,0x10
800026ac:	87fd                	srai	a5,a5,0x1f
800026ae:	0ff7f713          	andi	a4,a5,255
idctCols():
C:\NucleiStudio_workspace3\simple_world\Debug/../src/picojpeg.c:1444
         *(pSrc+7*8) = clamp(PJPG_DESCALE(x40 - x17)  + 128);
800026b2:	06e69823          	sh	a4,112(a3)
C:\NucleiStudio_workspace3\simple_world\Debug/../src/picojpeg.c:1447
      pSrc++;      
800026b6:	0689                	addi	a3,a3,2
C:\NucleiStudio_workspace3\simple_world\Debug/../src/picojpeg.c:1380
   for (i = 0; i < 8; i++)
800026b8:	d37691e3          	bne	a3,s7,800023da <pjpeg_decode_mcu+0x792>
transformBlock():
C:\NucleiStudio_workspace3\simple_world\Debug/../src/picojpeg.c:1766
   switch (gScanType)
800026bc:	8ac1a783          	lw	a5,-1876(gp) # 900009fc <gScanType>
800026c0:	4711                	li	a4,4
800026c2:	a0f760e3          	bltu	a4,a5,800020c2 <pjpeg_decode_mcu+0x47a>
800026c6:	90000737          	lui	a4,0x90000
800026ca:	078a                	slli	a5,a5,0x2
800026cc:	09870713          	addi	a4,a4,152 # 90000098 <_sp+0xffff0098>
800026d0:	97ba                	add	a5,a5,a4
800026d2:	439c                	lw	a5,0(a5)
800026d4:	8782                	jr	a5
getBits2():
C:\NucleiStudio_workspace3\simple_world\Debug/../src/picojpeg.c:326
   return getBits(numBits, 1);
800026d6:	4585                	li	a1,1
800026d8:	856e                	mv	a0,s11
800026da:	81aff0ef          	jal	ra,800016f4 <getBits>
decodeNextMCU():
C:\NucleiStudio_workspace3\simple_world\Debug/../src/picojpeg.c:2212
            r = s >> 4;
800026de:	004d5793          	srli	a5,s10,0x4
800026e2:	0ff7f793          	andi	a5,a5,255
C:\NucleiStudio_workspace3\simple_world\Debug/../src/picojpeg.c:2219
               if (r)
800026e6:	8756                	mv	a4,s5
800026e8:	eba9                	bnez	a5,8000273a <pjpeg_decode_mcu+0xaf2>
pjpeg_decode_mcu():
C:\NucleiStudio_workspace3\simple_world\Debug/../src/picojpeg.c:350
   switch (i)
800026ea:	1dfd                	addi	s11,s11,-1
800026ec:	0ffdfd93          	andi	s11,s11,255
huffExtend():
C:\NucleiStudio_workspace3\simple_world\Debug/../src/picojpeg.c:398
   return ((x < getExtendTest(s)) ? ((int16)x + getExtendOffset(s)) : (int16)x);
800026f0:	0d86                	slli	s11,s11,0x1
800026f2:	01ba07b3          	add	a5,s4,s11
800026f6:	0007d783          	lhu	a5,0(a5)
800026fa:	00f57863          	bgeu	a0,a5,8000270a <pjpeg_decode_mcu+0xac2>
800026fe:	9dde                	add	s11,s11,s7
80002700:	000dd783          	lhu	a5,0(s11)
80002704:	953e                	add	a0,a0,a5
80002706:	0542                	slli	a0,a0,0x10
80002708:	8141                	srli	a0,a0,0x10
decodeNextMCU():
C:\NucleiStudio_workspace3\simple_world\Debug/../src/picojpeg.c:2233
               gCoeffBuf[ZAG[k]] = ac * pQ[k]; 
8000270a:	001a9793          	slli	a5,s5,0x1
8000270e:	97da                	add	a5,a5,s6
80002710:	0007d683          	lhu	a3,0(a5)
80002714:	974a                	add	a4,a4,s2
80002716:	00070783          	lb	a5,0(a4)
8000271a:	02d50533          	mul	a0,a0,a3
8000271e:	0a85                	addi	s5,s5,1
80002720:	0786                	slli	a5,a5,0x1
80002722:	00f40733          	add	a4,s0,a5
80002726:	0ffaf793          	andi	a5,s5,255
8000272a:	8abe                	mv	s5,a5
C:\NucleiStudio_workspace3\simple_world\Debug/../src/picojpeg.c:2201
         for (k = 1; k < 64; k++)
8000272c:	03f00793          	li	a5,63
C:\NucleiStudio_workspace3\simple_world\Debug/../src/picojpeg.c:2233
               gCoeffBuf[ZAG[k]] = ac * pQ[k]; 
80002730:	00a71023          	sh	a0,0(a4)
C:\NucleiStudio_workspace3\simple_world\Debug/../src/picojpeg.c:2201
         for (k = 1; k < 64; k++)
80002734:	a157f5e3          	bgeu	a5,s5,8000213e <pjpeg_decode_mcu+0x4f6>
80002738:	bca1                	j	80002190 <pjpeg_decode_mcu+0x548>
C:\NucleiStudio_workspace3\simple_world\Debug/../src/picojpeg.c:2221
                  if ((k + r) > 63)
8000273a:	9abe                	add	s5,s5,a5
8000273c:	03f00713          	li	a4,63
80002740:	9b5746e3          	blt	a4,s5,800020ec <pjpeg_decode_mcu+0x4a4>
C:\NucleiStudio_workspace3\simple_world\Debug/../src/picojpeg.c:2212
            r = s >> 4;
80002744:	07c2                	slli	a5,a5,0x10
80002746:	83c1                	srli	a5,a5,0x10
80002748:	0ffafa93          	andi	s5,s5,255
C:\NucleiStudio_workspace3\simple_world\Debug/../src/picojpeg.c:2226
                     gCoeffBuf[ZAG[k++]] = 0;
8000274c:	40fa8733          	sub	a4,s5,a5
80002750:	0ff77713          	andi	a4,a4,255
80002754:	974a                	add	a4,a4,s2
80002756:	00070703          	lb	a4,0(a4)
C:\NucleiStudio_workspace3\simple_world\Debug/../src/picojpeg.c:2227
                     r--;
8000275a:	17fd                	addi	a5,a5,-1
8000275c:	07c2                	slli	a5,a5,0x10
C:\NucleiStudio_workspace3\simple_world\Debug/../src/picojpeg.c:2226
                     gCoeffBuf[ZAG[k++]] = 0;
8000275e:	0706                	slli	a4,a4,0x1
80002760:	9722                	add	a4,a4,s0
C:\NucleiStudio_workspace3\simple_world\Debug/../src/picojpeg.c:2227
                     r--;
80002762:	83c1                	srli	a5,a5,0x10
C:\NucleiStudio_workspace3\simple_world\Debug/../src/picojpeg.c:2226
                     gCoeffBuf[ZAG[k++]] = 0;
80002764:	00071023          	sh	zero,0(a4)
C:\NucleiStudio_workspace3\simple_world\Debug/../src/picojpeg.c:2224
                  while (r)
80002768:	f3f5                	bnez	a5,8000274c <pjpeg_decode_mcu+0xb04>
8000276a:	8756                	mv	a4,s5
8000276c:	bfbd                	j	800026ea <pjpeg_decode_mcu+0xaa2>
C:\NucleiStudio_workspace3\simple_world\Debug/../src/picojpeg.c:2252
         while (k < 64)
8000276e:	03f00713          	li	a4,63
80002772:	a1576fe3          	bltu	a4,s5,80002190 <pjpeg_decode_mcu+0x548>
80002776:	03f00713          	li	a4,63
8000277a:	900007b7          	lui	a5,0x90000
8000277e:	13d78793          	addi	a5,a5,317 # 9000013d <_sp+0xffff013d>
80002782:	41570733          	sub	a4,a4,s5
80002786:	015786b3          	add	a3,a5,s5
8000278a:	0ff77713          	andi	a4,a4,255
8000278e:	015907b3          	add	a5,s2,s5
80002792:	96ba                	add	a3,a3,a4
C:\NucleiStudio_workspace3\simple_world\Debug/../src/picojpeg.c:2253
            gCoeffBuf[ZAG[k++]] = 0;
80002794:	00078703          	lb	a4,0(a5)
80002798:	0785                	addi	a5,a5,1
8000279a:	0706                	slli	a4,a4,0x1
8000279c:	9722                	add	a4,a4,s0
8000279e:	00071023          	sh	zero,0(a4)
C:\NucleiStudio_workspace3\simple_world\Debug/../src/picojpeg.c:2252
         while (k < 64)
800027a2:	fef699e3          	bne	a3,a5,80002794 <pjpeg_decode_mcu+0xb4c>
800027a6:	b2ed                	j	80002190 <pjpeg_decode_mcu+0x548>
800027a8:	9000bb37          	lui	s6,0x9000b
800027ac:	9000bbb7          	lui	s7,0x9000b
800027b0:	8fcb0b13          	addi	s6,s6,-1796 # 9000a8fc <_sp+0xffffa8fc>
800027b4:	83cb8b93          	addi	s7,s7,-1988 # 9000a83c <_sp+0xffffa83c>
800027b8:	df0ff06f          	j	80001da8 <pjpeg_decode_mcu+0x160>
800027bc:	9000bc37          	lui	s8,0x9000b
800027c0:	9000bcb7          	lui	s9,0x9000b
800027c4:	8fcc0c13          	addi	s8,s8,-1796 # 9000a8fc <_sp+0xffffa8fc>
800027c8:	83cc8c93          	addi	s9,s9,-1988 # 9000a83c <_sp+0xffffa83c>
800027cc:	b2a5                	j	80002134 <pjpeg_decode_mcu+0x4ec>
pjpeg_decode_mcu():
C:\NucleiStudio_workspace3\simple_world\Debug/../src/picojpeg.c:2284
   return 0;
800027ce:	4501                	li	a0,0
800027d0:	eeeff06f          	j	80001ebe <pjpeg_decode_mcu+0x276>
copyY():
C:\NucleiStudio_workspace3\simple_world\Debug/../src/picojpeg.c:1706
   uint8* pBDst = gMCUBufB + dstOfs;
800027d4:	9000b5b7          	lui	a1,0x9000b
C:\NucleiStudio_workspace3\simple_world\Debug/../src/picojpeg.c:1705
   uint8* pGDst = gMCUBufG + dstOfs;
800027d8:	9000b637          	lui	a2,0x9000b
C:\NucleiStudio_workspace3\simple_world\Debug/../src/picojpeg.c:1704
   uint8* pRDst = gMCUBufR + dstOfs;
800027dc:	9000b6b7          	lui	a3,0x9000b
C:\NucleiStudio_workspace3\simple_world\Debug/../src/picojpeg.c:1706
   uint8* pBDst = gMCUBufB + dstOfs;
800027e0:	bfc58593          	addi	a1,a1,-1028 # 9000abfc <_sp+0xffffabfc>
C:\NucleiStudio_workspace3\simple_world\Debug/../src/picojpeg.c:1705
   uint8* pGDst = gMCUBufG + dstOfs;
800027e4:	cfc60613          	addi	a2,a2,-772 # 9000acfc <_sp+0xffffacfc>
C:\NucleiStudio_workspace3\simple_world\Debug/../src/picojpeg.c:1704
   uint8* pRDst = gMCUBufR + dstOfs;
800027e8:	dfc68693          	addi	a3,a3,-516 # 9000adfc <_sp+0xffffadfc>
C:\NucleiStudio_workspace3\simple_world\Debug/../src/picojpeg.c:1707
   int16* pSrc = gCoeffBuf;
800027ec:	87a2                	mv	a5,s0
C:\NucleiStudio_workspace3\simple_world\Debug/../src/picojpeg.c:1711
      uint8 c = (uint8)*pSrc++;
800027ee:	0789                	addi	a5,a5,2
800027f0:	ffe7c703          	lbu	a4,-2(a5)
C:\NucleiStudio_workspace3\simple_world\Debug/../src/picojpeg.c:1713
      *pRDst++ = c;
800027f4:	0685                	addi	a3,a3,1
C:\NucleiStudio_workspace3\simple_world\Debug/../src/picojpeg.c:1714
      *pGDst++ = c;
800027f6:	0605                	addi	a2,a2,1
C:\NucleiStudio_workspace3\simple_world\Debug/../src/picojpeg.c:1715
      *pBDst++ = c;
800027f8:	0585                	addi	a1,a1,1
C:\NucleiStudio_workspace3\simple_world\Debug/../src/picojpeg.c:1713
      *pRDst++ = c;
800027fa:	fee68fa3          	sb	a4,-1(a3)
C:\NucleiStudio_workspace3\simple_world\Debug/../src/picojpeg.c:1714
      *pGDst++ = c;
800027fe:	fee60fa3          	sb	a4,-1(a2)
C:\NucleiStudio_workspace3\simple_world\Debug/../src/picojpeg.c:1715
      *pBDst++ = c;
80002802:	fee58fa3          	sb	a4,-1(a1)
C:\NucleiStudio_workspace3\simple_world\Debug/../src/picojpeg.c:1709
   for (i = 64; i > 0; i--)
80002806:	ffe794e3          	bne	a5,t5,800027ee <pjpeg_decode_mcu+0xba6>
8000280a:	b865                	j	800020c2 <pjpeg_decode_mcu+0x47a>
transformBlock():
C:\NucleiStudio_workspace3\simple_world\Debug/../src/picojpeg.c:1777
         switch (mcuBlock)
8000280c:	4785                	li	a5,1
8000280e:	7cf48b63          	beq	s1,a5,80002fe4 <pjpeg_decode_mcu+0x139c>
80002812:	74048f63          	beqz	s1,80002f70 <pjpeg_decode_mcu+0x1328>
80002816:	4789                	li	a5,2
80002818:	8af495e3          	bne	s1,a5,800020c2 <pjpeg_decode_mcu+0x47a>
convertCr():
C:\NucleiStudio_workspace3\simple_world\Debug/../src/picojpeg.c:1745
   uint8* pDstG = gMCUBufG + dstOfs;
8000281c:	9000b5b7          	lui	a1,0x9000b
C:\NucleiStudio_workspace3\simple_world\Debug/../src/picojpeg.c:1744
   uint8* pDstR = gMCUBufR + dstOfs;
80002820:	9000b637          	lui	a2,0x9000b
C:\NucleiStudio_workspace3\simple_world\Debug/../src/picojpeg.c:1745
   uint8* pDstG = gMCUBufG + dstOfs;
80002824:	cfc58593          	addi	a1,a1,-772 # 9000acfc <_sp+0xffffacfc>
C:\NucleiStudio_workspace3\simple_world\Debug/../src/picojpeg.c:1744
   uint8* pDstR = gMCUBufR + dstOfs;
80002828:	dfc60613          	addi	a2,a2,-516 # 9000adfc <_sp+0xffffadfc>
C:\NucleiStudio_workspace3\simple_world\Debug/../src/picojpeg.c:1746
   int16* pSrc = gCoeffBuf;
8000282c:	8522                	mv	a0,s0
C:\NucleiStudio_workspace3\simple_world\Debug/../src/picojpeg.c:1753
      crR = (cr + ((cr * 103U) >> 8U)) - 179;
8000282e:	06700e13          	li	t3,103
addAndClamp():
C:\NucleiStudio_workspace3\simple_world\Debug/../src/picojpeg.c:1456
   if ((uint16)b > 255U)
80002832:	0ff00813          	li	a6,255
convertCr():
C:\NucleiStudio_workspace3\simple_world\Debug/../src/picojpeg.c:1756
      crG = ((cr * 183U) >> 8U) - 91;
80002836:	0b700313          	li	t1,183
subAndClamp():
C:\NucleiStudio_workspace3\simple_world\Debug/../src/picojpeg.c:1469
   b = a - b;
8000283a:	05b00893          	li	a7,91
convertCr():
C:\NucleiStudio_workspace3\simple_world\Debug/../src/picojpeg.c:1750
      uint8 cr = (uint8)*pSrc++;
8000283e:	0509                	addi	a0,a0,2
80002840:	ffe51683          	lh	a3,-2(a0)
C:\NucleiStudio_workspace3\simple_world\Debug/../src/picojpeg.c:1754
      *pDstR++ = addAndClamp(pDstR[0], crR);
80002844:	00064e83          	lbu	t4,0(a2)
80002848:	0605                	addi	a2,a2,1
C:\NucleiStudio_workspace3\simple_world\Debug/../src/picojpeg.c:1753
      crR = (cr + ((cr * 103U) >> 8U)) - 179;
8000284a:	0ff6f793          	andi	a5,a3,255
8000284e:	03c78733          	mul	a4,a5,t3
80002852:	0ff6f693          	andi	a3,a3,255
addAndClamp():
C:\NucleiStudio_workspace3\simple_world\Debug/../src/picojpeg.c:1454
   b = a + b;
80002856:	f4d68693          	addi	a3,a3,-179
convertCr():
C:\NucleiStudio_workspace3\simple_world\Debug/../src/picojpeg.c:1753
      crR = (cr + ((cr * 103U) >> 8U)) - 179;
8000285a:	8321                	srli	a4,a4,0x8
addAndClamp():
C:\NucleiStudio_workspace3\simple_world\Debug/../src/picojpeg.c:1454
   b = a + b;
8000285c:	9736                	add	a4,a4,a3
8000285e:	9776                	add	a4,a4,t4
80002860:	0742                	slli	a4,a4,0x10
80002862:	8341                	srli	a4,a4,0x10
C:\NucleiStudio_workspace3\simple_world\Debug/../src/picojpeg.c:1456
   if ((uint16)b > 255U)
80002864:	00e87d63          	bgeu	a6,a4,8000287e <pjpeg_decode_mcu+0xc36>
C:\NucleiStudio_workspace3\simple_world\Debug/../src/picojpeg.c:1454
   b = a + b;
80002868:	01071e93          	slli	t4,a4,0x10
8000286c:	410ede93          	srai	t4,t4,0x10
C:\NucleiStudio_workspace3\simple_world\Debug/../src/picojpeg.c:1459
         return 0;
80002870:	4681                	li	a3,0
C:\NucleiStudio_workspace3\simple_world\Debug/../src/picojpeg.c:1458
      if (b < 0)
80002872:	000ec863          	bltz	t4,80002882 <pjpeg_decode_mcu+0xc3a>
C:\NucleiStudio_workspace3\simple_world\Debug/../src/picojpeg.c:1461
         return 255;
80002876:	0ff00693          	li	a3,255
C:\NucleiStudio_workspace3\simple_world\Debug/../src/picojpeg.c:1460
      else if (b > 255)
8000287a:	01d84463          	blt	a6,t4,80002882 <pjpeg_decode_mcu+0xc3a>
C:\NucleiStudio_workspace3\simple_world\Debug/../src/picojpeg.c:1464
   return (uint8)b;
8000287e:	0ff77693          	andi	a3,a4,255
convertCr():
C:\NucleiStudio_workspace3\simple_world\Debug/../src/picojpeg.c:1756
      crG = ((cr * 183U) >> 8U) - 91;
80002882:	026787b3          	mul	a5,a5,t1
C:\NucleiStudio_workspace3\simple_world\Debug/../src/picojpeg.c:1757
      *pDstG++ = subAndClamp(pDstG[0], crG);
80002886:	0005c703          	lbu	a4,0(a1)
C:\NucleiStudio_workspace3\simple_world\Debug/../src/picojpeg.c:1754
      *pDstR++ = addAndClamp(pDstR[0], crR);
8000288a:	fed60fa3          	sb	a3,-1(a2)
C:\NucleiStudio_workspace3\simple_world\Debug/../src/picojpeg.c:1757
      *pDstG++ = subAndClamp(pDstG[0], crG);
8000288e:	0585                	addi	a1,a1,1
C:\NucleiStudio_workspace3\simple_world\Debug/../src/picojpeg.c:1756
      crG = ((cr * 183U) >> 8U) - 91;
80002890:	83a1                	srli	a5,a5,0x8
subAndClamp():
C:\NucleiStudio_workspace3\simple_world\Debug/../src/picojpeg.c:1469
   b = a - b;
80002892:	40f887b3          	sub	a5,a7,a5
80002896:	97ba                	add	a5,a5,a4
80002898:	07c2                	slli	a5,a5,0x10
8000289a:	83c1                	srli	a5,a5,0x10
C:\NucleiStudio_workspace3\simple_world\Debug/../src/picojpeg.c:1471
   if ((uint16)b > 255U)
8000289c:	00f87c63          	bgeu	a6,a5,800028b4 <pjpeg_decode_mcu+0xc6c>
C:\NucleiStudio_workspace3\simple_world\Debug/../src/picojpeg.c:1469
   b = a - b;
800028a0:	01079693          	slli	a3,a5,0x10
800028a4:	86c1                	srai	a3,a3,0x10
C:\NucleiStudio_workspace3\simple_world\Debug/../src/picojpeg.c:1474
         return 0;
800028a6:	4701                	li	a4,0
C:\NucleiStudio_workspace3\simple_world\Debug/../src/picojpeg.c:1473
      if (b < 0)
800028a8:	0006c863          	bltz	a3,800028b8 <pjpeg_decode_mcu+0xc70>
C:\NucleiStudio_workspace3\simple_world\Debug/../src/picojpeg.c:1476
         return 255;
800028ac:	0ff00713          	li	a4,255
C:\NucleiStudio_workspace3\simple_world\Debug/../src/picojpeg.c:1475
      else if (b > 255)
800028b0:	00d84463          	blt	a6,a3,800028b8 <pjpeg_decode_mcu+0xc70>
C:\NucleiStudio_workspace3\simple_world\Debug/../src/picojpeg.c:1479
   return (uint8)b;
800028b4:	0ff7f713          	andi	a4,a5,255
convertCr():
C:\NucleiStudio_workspace3\simple_world\Debug/../src/picojpeg.c:1757
      *pDstG++ = subAndClamp(pDstG[0], crG);
800028b8:	fee58fa3          	sb	a4,-1(a1)
C:\NucleiStudio_workspace3\simple_world\Debug/../src/picojpeg.c:1748
   for (i = 64; i > 0; i--)
800028bc:	f9e511e3          	bne	a0,t5,8000283e <pjpeg_decode_mcu+0xbf6>
800028c0:	803ff06f          	j	800020c2 <pjpeg_decode_mcu+0x47a>
transformBlock():
C:\NucleiStudio_workspace3\simple_world\Debug/../src/picojpeg.c:1863
         switch (mcuBlock)
800028c4:	4795                	li	a5,5
800028c6:	fe97ee63          	bltu	a5,s1,800020c2 <pjpeg_decode_mcu+0x47a>
800028ca:	90000737          	lui	a4,0x90000
800028ce:	00249793          	slli	a5,s1,0x2
800028d2:	0ac70713          	addi	a4,a4,172 # 900000ac <_sp+0xffff00ac>
800028d6:	97ba                	add	a5,a5,a4
800028d8:	439c                	lw	a5,0(a5)
800028da:	8782                	jr	a5
C:\NucleiStudio_workspace3\simple_world\Debug/../src/picojpeg.c:1801
         switch (mcuBlock)
800028dc:	4785                	li	a5,1
800028de:	0af48ae3          	beq	s1,a5,80003192 <pjpeg_decode_mcu+0x154a>
800028e2:	6c048463          	beqz	s1,80002faa <pjpeg_decode_mcu+0x1362>
800028e6:	4789                	li	a5,2
800028e8:	0ef482e3          	beq	s1,a5,800031cc <pjpeg_decode_mcu+0x1584>
800028ec:	478d                	li	a5,3
800028ee:	fcf49a63          	bne	s1,a5,800020c2 <pjpeg_decode_mcu+0x47a>
C:\NucleiStudio_workspace3\simple_world\Debug/../src/picojpeg.c:1821
               upsampleCrV(0, 0);
800028f2:	4581                	li	a1,0
800028f4:	4501                	li	a0,0
800028f6:	bdbfe0ef          	jal	ra,800014d0 <upsampleCrV>
C:\NucleiStudio_workspace3\simple_world\Debug/../src/picojpeg.c:1822
               upsampleCrV(4*8, 128);
800028fa:	08000593          	li	a1,128
800028fe:	02000513          	li	a0,32
80002902:	bcffe0ef          	jal	ra,800014d0 <upsampleCrV>
C:\NucleiStudio_workspace3\simple_world\Debug/../src/picojpeg.c:1823
               break;
80002906:	fbcff06f          	j	800020c2 <pjpeg_decode_mcu+0x47a>
C:\NucleiStudio_workspace3\simple_world\Debug/../src/picojpeg.c:1832
         switch (mcuBlock)
8000290a:	4785                	li	a5,1
8000290c:	04f486e3          	beq	s1,a5,80003158 <pjpeg_decode_mcu+0x1510>
80002910:	76048f63          	beqz	s1,8000308e <pjpeg_decode_mcu+0x1446>
80002914:	4789                	li	a5,2
80002916:	0cf487e3          	beq	s1,a5,800031e4 <pjpeg_decode_mcu+0x159c>
8000291a:	478d                	li	a5,3
8000291c:	faf49363          	bne	s1,a5,800020c2 <pjpeg_decode_mcu+0x47a>
C:\NucleiStudio_workspace3\simple_world\Debug/../src/picojpeg.c:1852
               upsampleCrH(0, 0);
80002920:	4581                	li	a1,0
80002922:	4501                	li	a0,0
80002924:	a7dfe0ef          	jal	ra,800013a0 <upsampleCrH>
C:\NucleiStudio_workspace3\simple_world\Debug/../src/picojpeg.c:1853
               upsampleCrH(4, 64);
80002928:	04000593          	li	a1,64
8000292c:	4511                	li	a0,4
8000292e:	a73fe0ef          	jal	ra,800013a0 <upsampleCrH>
C:\NucleiStudio_workspace3\simple_world\Debug/../src/picojpeg.c:1854
               break;
80002932:	f90ff06f          	j	800020c2 <pjpeg_decode_mcu+0x47a>
transformBlockReduce():
C:\NucleiStudio_workspace3\simple_world\Debug/../src/picojpeg.c:1918
         gMCUBufR[0] = c;
80002936:	9000b7b7          	lui	a5,0x9000b
8000293a:	ded78e23          	sb	a3,-516(a5) # 9000adfc <_sp+0xffffadfc>
C:\NucleiStudio_workspace3\simple_world\Debug/../src/picojpeg.c:1919
         break;
8000293e:	f84ff06f          	j	800020c2 <pjpeg_decode_mcu+0x47a>
C:\NucleiStudio_workspace3\simple_world\Debug/../src/picojpeg.c:2050
         switch (mcuBlock)
80002942:	4795                	li	a5,5
80002944:	f697ef63          	bltu	a5,s1,800020c2 <pjpeg_decode_mcu+0x47a>
80002948:	90000737          	lui	a4,0x90000
8000294c:	00249793          	slli	a5,s1,0x2
80002950:	0c470713          	addi	a4,a4,196 # 900000c4 <_sp+0xffff00c4>
80002954:	97ba                	add	a5,a5,a4
80002956:	439c                	lw	a5,0(a5)
80002958:	8782                	jr	a5
C:\NucleiStudio_workspace3\simple_world\Debug/../src/picojpeg.c:1958
         switch (mcuBlock)
8000295a:	4785                	li	a5,1
8000295c:	40f48963          	beq	s1,a5,80002d6e <pjpeg_decode_mcu+0x1126>
80002960:	2a048763          	beqz	s1,80002c0e <pjpeg_decode_mcu+0xfc6>
80002964:	4789                	li	a5,2
80002966:	18f485e3          	beq	s1,a5,800032f0 <pjpeg_decode_mcu+0x16a8>
8000296a:	478d                	li	a5,3
8000296c:	f4f49b63          	bne	s1,a5,800020c2 <pjpeg_decode_mcu+0x47a>
C:\NucleiStudio_workspace3\simple_world\Debug/../src/picojpeg.c:1988
               crR = (c + ((c * 103U) >> 8U)) - 179;
80002970:	06700713          	li	a4,103
80002974:	02e68733          	mul	a4,a3,a4
C:\NucleiStudio_workspace3\simple_world\Debug/../src/picojpeg.c:1989
               gMCUBufR[0] = addAndClamp(gMCUBufR[0], crR);
80002978:	9000b637          	lui	a2,0x9000b
8000297c:	dfc60613          	addi	a2,a2,-516 # 9000adfc <_sp+0xffffadfc>
C:\NucleiStudio_workspace3\simple_world\Debug/../src/picojpeg.c:1988
               crR = (c + ((c * 103U) >> 8U)) - 179;
80002980:	f4d68793          	addi	a5,a3,-179
addAndClamp():
C:\NucleiStudio_workspace3\simple_world\Debug/../src/picojpeg.c:1454
   b = a + b;
80002984:	00064583          	lbu	a1,0(a2)
C:\NucleiStudio_workspace3\simple_world\Debug/../src/picojpeg.c:1456
   if ((uint16)b > 255U)
80002988:	0ff00513          	li	a0,255
transformBlockReduce():
C:\NucleiStudio_workspace3\simple_world\Debug/../src/picojpeg.c:1988
               crR = (c + ((c * 103U) >> 8U)) - 179;
8000298c:	8321                	srli	a4,a4,0x8
8000298e:	97ba                	add	a5,a5,a4
80002990:	07c2                	slli	a5,a5,0x10
80002992:	83c1                	srli	a5,a5,0x10
addAndClamp():
C:\NucleiStudio_workspace3\simple_world\Debug/../src/picojpeg.c:1454
   b = a + b;
80002994:	00b78733          	add	a4,a5,a1
80002998:	0742                	slli	a4,a4,0x10
8000299a:	8341                	srli	a4,a4,0x10
C:\NucleiStudio_workspace3\simple_world\Debug/../src/picojpeg.c:1456
   if ((uint16)b > 255U)
8000299c:	00e57c63          	bgeu	a0,a4,800029b4 <pjpeg_decode_mcu+0xd6c>
C:\NucleiStudio_workspace3\simple_world\Debug/../src/picojpeg.c:1454
   b = a + b;
800029a0:	01071513          	slli	a0,a4,0x10
800029a4:	8541                	srai	a0,a0,0x10
C:\NucleiStudio_workspace3\simple_world\Debug/../src/picojpeg.c:1459
         return 0;
800029a6:	4581                	li	a1,0
C:\NucleiStudio_workspace3\simple_world\Debug/../src/picojpeg.c:1458
      if (b < 0)
800029a8:	00054863          	bltz	a0,800029b8 <pjpeg_decode_mcu+0xd70>
C:\NucleiStudio_workspace3\simple_world\Debug/../src/picojpeg.c:1461
         return 255;
800029ac:	0ff00593          	li	a1,255
C:\NucleiStudio_workspace3\simple_world\Debug/../src/picojpeg.c:1460
      else if (b > 255)
800029b0:	00a5c463          	blt	a1,a0,800029b8 <pjpeg_decode_mcu+0xd70>
C:\NucleiStudio_workspace3\simple_world\Debug/../src/picojpeg.c:1464
   return (uint8)b;
800029b4:	0ff77593          	andi	a1,a4,255
C:\NucleiStudio_workspace3\simple_world\Debug/../src/picojpeg.c:1454
   b = a + b;
800029b8:	08064503          	lbu	a0,128(a2)
transformBlockReduce():
C:\NucleiStudio_workspace3\simple_world\Debug/../src/picojpeg.c:1989
               gMCUBufR[0] = addAndClamp(gMCUBufR[0], crR);
800029bc:	00b60023          	sb	a1,0(a2)
addAndClamp():
C:\NucleiStudio_workspace3\simple_world\Debug/../src/picojpeg.c:1456
   if ((uint16)b > 255U)
800029c0:	0ff00713          	li	a4,255
C:\NucleiStudio_workspace3\simple_world\Debug/../src/picojpeg.c:1454
   b = a + b;
800029c4:	97aa                	add	a5,a5,a0
800029c6:	07c2                	slli	a5,a5,0x10
800029c8:	83c1                	srli	a5,a5,0x10
C:\NucleiStudio_workspace3\simple_world\Debug/../src/picojpeg.c:1456
   if ((uint16)b > 255U)
800029ca:	00f77c63          	bgeu	a4,a5,800029e2 <pjpeg_decode_mcu+0xd9a>
C:\NucleiStudio_workspace3\simple_world\Debug/../src/picojpeg.c:1454
   b = a + b;
800029ce:	01079713          	slli	a4,a5,0x10
800029d2:	8741                	srai	a4,a4,0x10
C:\NucleiStudio_workspace3\simple_world\Debug/../src/picojpeg.c:1459
         return 0;
800029d4:	4581                	li	a1,0
C:\NucleiStudio_workspace3\simple_world\Debug/../src/picojpeg.c:1458
      if (b < 0)
800029d6:	00074863          	bltz	a4,800029e6 <pjpeg_decode_mcu+0xd9e>
C:\NucleiStudio_workspace3\simple_world\Debug/../src/picojpeg.c:1461
         return 255;
800029da:	0ff00593          	li	a1,255
C:\NucleiStudio_workspace3\simple_world\Debug/../src/picojpeg.c:1460
      else if (b > 255)
800029de:	00e5c463          	blt	a1,a4,800029e6 <pjpeg_decode_mcu+0xd9e>
C:\NucleiStudio_workspace3\simple_world\Debug/../src/picojpeg.c:1464
   return (uint8)b;
800029e2:	0ff7f593          	andi	a1,a5,255
transformBlockReduce():
C:\NucleiStudio_workspace3\simple_world\Debug/../src/picojpeg.c:1992
               crG = ((c * 183U) >> 8U) - 91;
800029e6:	0b700793          	li	a5,183
800029ea:	02f687b3          	mul	a5,a3,a5
C:\NucleiStudio_workspace3\simple_world\Debug/../src/picojpeg.c:1993
               gMCUBufG[0] = subAndClamp(gMCUBufG[0], crG);
800029ee:	9000b737          	lui	a4,0x9000b
800029f2:	cfc70713          	addi	a4,a4,-772 # 9000acfc <_sp+0xffffacfc>
subAndClamp():
C:\NucleiStudio_workspace3\simple_world\Debug/../src/picojpeg.c:1469
   b = a - b;
800029f6:	00074683          	lbu	a3,0(a4)
transformBlockReduce():
C:\NucleiStudio_workspace3\simple_world\Debug/../src/picojpeg.c:1990
               gMCUBufR[128] = addAndClamp(gMCUBufR[128], crR);
800029fa:	08b60023          	sb	a1,128(a2)
subAndClamp():
C:\NucleiStudio_workspace3\simple_world\Debug/../src/picojpeg.c:1471
   if ((uint16)b > 255U)
800029fe:	0ff00613          	li	a2,255
transformBlockReduce():
C:\NucleiStudio_workspace3\simple_world\Debug/../src/picojpeg.c:1992
               crG = ((c * 183U) >> 8U) - 91;
80002a02:	83a1                	srli	a5,a5,0x8
80002a04:	fa578793          	addi	a5,a5,-91
80002a08:	07c2                	slli	a5,a5,0x10
80002a0a:	83c1                	srli	a5,a5,0x10
subAndClamp():
C:\NucleiStudio_workspace3\simple_world\Debug/../src/picojpeg.c:1469
   b = a - b;
80002a0c:	8e9d                	sub	a3,a3,a5
80002a0e:	06c2                	slli	a3,a3,0x10
80002a10:	82c1                	srli	a3,a3,0x10
C:\NucleiStudio_workspace3\simple_world\Debug/../src/picojpeg.c:1471
   if ((uint16)b > 255U)
80002a12:	00d67c63          	bgeu	a2,a3,80002a2a <pjpeg_decode_mcu+0xde2>
C:\NucleiStudio_workspace3\simple_world\Debug/../src/picojpeg.c:1469
   b = a - b;
80002a16:	01069593          	slli	a1,a3,0x10
80002a1a:	85c1                	srai	a1,a1,0x10
C:\NucleiStudio_workspace3\simple_world\Debug/../src/picojpeg.c:1474
         return 0;
80002a1c:	4601                	li	a2,0
C:\NucleiStudio_workspace3\simple_world\Debug/../src/picojpeg.c:1473
      if (b < 0)
80002a1e:	0005c863          	bltz	a1,80002a2e <pjpeg_decode_mcu+0xde6>
C:\NucleiStudio_workspace3\simple_world\Debug/../src/picojpeg.c:1476
         return 255;
80002a22:	0ff00613          	li	a2,255
C:\NucleiStudio_workspace3\simple_world\Debug/../src/picojpeg.c:1475
      else if (b > 255)
80002a26:	00b64463          	blt	a2,a1,80002a2e <pjpeg_decode_mcu+0xde6>
C:\NucleiStudio_workspace3\simple_world\Debug/../src/picojpeg.c:1479
   return (uint8)b;
80002a2a:	0ff6f613          	andi	a2,a3,255
C:\NucleiStudio_workspace3\simple_world\Debug/../src/picojpeg.c:1469
   b = a - b;
80002a2e:	08074683          	lbu	a3,128(a4)
transformBlockReduce():
C:\NucleiStudio_workspace3\simple_world\Debug/../src/picojpeg.c:1993
               gMCUBufG[0] = subAndClamp(gMCUBufG[0], crG);
80002a32:	00c70023          	sb	a2,0(a4)
subAndClamp():
C:\NucleiStudio_workspace3\simple_world\Debug/../src/picojpeg.c:1471
   if ((uint16)b > 255U)
80002a36:	0ff00613          	li	a2,255
C:\NucleiStudio_workspace3\simple_world\Debug/../src/picojpeg.c:1469
   b = a - b;
80002a3a:	40f687b3          	sub	a5,a3,a5
80002a3e:	07c2                	slli	a5,a5,0x10
80002a40:	83c1                	srli	a5,a5,0x10
C:\NucleiStudio_workspace3\simple_world\Debug/../src/picojpeg.c:1471
   if ((uint16)b > 255U)
80002a42:	00f67c63          	bgeu	a2,a5,80002a5a <pjpeg_decode_mcu+0xe12>
C:\NucleiStudio_workspace3\simple_world\Debug/../src/picojpeg.c:1469
   b = a - b;
80002a46:	01079613          	slli	a2,a5,0x10
80002a4a:	8641                	srai	a2,a2,0x10
C:\NucleiStudio_workspace3\simple_world\Debug/../src/picojpeg.c:1474
         return 0;
80002a4c:	4681                	li	a3,0
C:\NucleiStudio_workspace3\simple_world\Debug/../src/picojpeg.c:1473
      if (b < 0)
80002a4e:	00064863          	bltz	a2,80002a5e <pjpeg_decode_mcu+0xe16>
C:\NucleiStudio_workspace3\simple_world\Debug/../src/picojpeg.c:1476
         return 255;
80002a52:	0ff00693          	li	a3,255
C:\NucleiStudio_workspace3\simple_world\Debug/../src/picojpeg.c:1475
      else if (b > 255)
80002a56:	00c6c463          	blt	a3,a2,80002a5e <pjpeg_decode_mcu+0xe16>
C:\NucleiStudio_workspace3\simple_world\Debug/../src/picojpeg.c:1479
   return (uint8)b;
80002a5a:	0ff7f693          	andi	a3,a5,255
transformBlockReduce():
C:\NucleiStudio_workspace3\simple_world\Debug/../src/picojpeg.c:1994
               gMCUBufG[128] = subAndClamp(gMCUBufG[128], crG);
80002a5e:	08d70023          	sb	a3,128(a4)
C:\NucleiStudio_workspace3\simple_world\Debug/../src/picojpeg.c:1996
               break;
80002a62:	e60ff06f          	j	800020c2 <pjpeg_decode_mcu+0x47a>
C:\NucleiStudio_workspace3\simple_world\Debug/../src/picojpeg.c:2004
         switch (mcuBlock)
80002a66:	4785                	li	a5,1
80002a68:	32f48163          	beq	s1,a5,80002d8a <pjpeg_decode_mcu+0x1142>
80002a6c:	1a048163          	beqz	s1,80002c0e <pjpeg_decode_mcu+0xfc6>
80002a70:	4789                	li	a5,2
80002a72:	78f48463          	beq	s1,a5,800031fa <pjpeg_decode_mcu+0x15b2>
80002a76:	478d                	li	a5,3
80002a78:	e4f49563          	bne	s1,a5,800020c2 <pjpeg_decode_mcu+0x47a>
C:\NucleiStudio_workspace3\simple_world\Debug/../src/picojpeg.c:2034
               crR = (c + ((c * 103U) >> 8U)) - 179;
80002a7c:	06700713          	li	a4,103
80002a80:	02e68733          	mul	a4,a3,a4
C:\NucleiStudio_workspace3\simple_world\Debug/../src/picojpeg.c:2035
               gMCUBufR[0] = addAndClamp(gMCUBufR[0], crR);
80002a84:	9000b637          	lui	a2,0x9000b
80002a88:	dfc60613          	addi	a2,a2,-516 # 9000adfc <_sp+0xffffadfc>
C:\NucleiStudio_workspace3\simple_world\Debug/../src/picojpeg.c:2034
               crR = (c + ((c * 103U) >> 8U)) - 179;
80002a8c:	f4d68793          	addi	a5,a3,-179
addAndClamp():
C:\NucleiStudio_workspace3\simple_world\Debug/../src/picojpeg.c:1454
   b = a + b;
80002a90:	00064583          	lbu	a1,0(a2)
C:\NucleiStudio_workspace3\simple_world\Debug/../src/picojpeg.c:1456
   if ((uint16)b > 255U)
80002a94:	0ff00513          	li	a0,255
transformBlockReduce():
C:\NucleiStudio_workspace3\simple_world\Debug/../src/picojpeg.c:2034
               crR = (c + ((c * 103U) >> 8U)) - 179;
80002a98:	8321                	srli	a4,a4,0x8
80002a9a:	97ba                	add	a5,a5,a4
80002a9c:	07c2                	slli	a5,a5,0x10
80002a9e:	83c1                	srli	a5,a5,0x10
addAndClamp():
C:\NucleiStudio_workspace3\simple_world\Debug/../src/picojpeg.c:1454
   b = a + b;
80002aa0:	00b78733          	add	a4,a5,a1
80002aa4:	0742                	slli	a4,a4,0x10
80002aa6:	8341                	srli	a4,a4,0x10
C:\NucleiStudio_workspace3\simple_world\Debug/../src/picojpeg.c:1456
   if ((uint16)b > 255U)
80002aa8:	00e57c63          	bgeu	a0,a4,80002ac0 <pjpeg_decode_mcu+0xe78>
C:\NucleiStudio_workspace3\simple_world\Debug/../src/picojpeg.c:1454
   b = a + b;
80002aac:	01071513          	slli	a0,a4,0x10
80002ab0:	8541                	srai	a0,a0,0x10
C:\NucleiStudio_workspace3\simple_world\Debug/../src/picojpeg.c:1459
         return 0;
80002ab2:	4581                	li	a1,0
C:\NucleiStudio_workspace3\simple_world\Debug/../src/picojpeg.c:1458
      if (b < 0)
80002ab4:	00054863          	bltz	a0,80002ac4 <pjpeg_decode_mcu+0xe7c>
C:\NucleiStudio_workspace3\simple_world\Debug/../src/picojpeg.c:1461
         return 255;
80002ab8:	0ff00593          	li	a1,255
C:\NucleiStudio_workspace3\simple_world\Debug/../src/picojpeg.c:1460
      else if (b > 255)
80002abc:	00a5c463          	blt	a1,a0,80002ac4 <pjpeg_decode_mcu+0xe7c>
C:\NucleiStudio_workspace3\simple_world\Debug/../src/picojpeg.c:1464
   return (uint8)b;
80002ac0:	0ff77593          	andi	a1,a4,255
C:\NucleiStudio_workspace3\simple_world\Debug/../src/picojpeg.c:1454
   b = a + b;
80002ac4:	04064503          	lbu	a0,64(a2)
transformBlockReduce():
C:\NucleiStudio_workspace3\simple_world\Debug/../src/picojpeg.c:2035
               gMCUBufR[0] = addAndClamp(gMCUBufR[0], crR);
80002ac8:	00b60023          	sb	a1,0(a2)
addAndClamp():
C:\NucleiStudio_workspace3\simple_world\Debug/../src/picojpeg.c:1456
   if ((uint16)b > 255U)
80002acc:	0ff00713          	li	a4,255
C:\NucleiStudio_workspace3\simple_world\Debug/../src/picojpeg.c:1454
   b = a + b;
80002ad0:	97aa                	add	a5,a5,a0
80002ad2:	07c2                	slli	a5,a5,0x10
80002ad4:	83c1                	srli	a5,a5,0x10
C:\NucleiStudio_workspace3\simple_world\Debug/../src/picojpeg.c:1456
   if ((uint16)b > 255U)
80002ad6:	00f77c63          	bgeu	a4,a5,80002aee <pjpeg_decode_mcu+0xea6>
C:\NucleiStudio_workspace3\simple_world\Debug/../src/picojpeg.c:1454
   b = a + b;
80002ada:	01079713          	slli	a4,a5,0x10
80002ade:	8741                	srai	a4,a4,0x10
C:\NucleiStudio_workspace3\simple_world\Debug/../src/picojpeg.c:1459
         return 0;
80002ae0:	4581                	li	a1,0
C:\NucleiStudio_workspace3\simple_world\Debug/../src/picojpeg.c:1458
      if (b < 0)
80002ae2:	00074863          	bltz	a4,80002af2 <pjpeg_decode_mcu+0xeaa>
C:\NucleiStudio_workspace3\simple_world\Debug/../src/picojpeg.c:1461
         return 255;
80002ae6:	0ff00593          	li	a1,255
C:\NucleiStudio_workspace3\simple_world\Debug/../src/picojpeg.c:1460
      else if (b > 255)
80002aea:	00e5c463          	blt	a1,a4,80002af2 <pjpeg_decode_mcu+0xeaa>
C:\NucleiStudio_workspace3\simple_world\Debug/../src/picojpeg.c:1464
   return (uint8)b;
80002aee:	0ff7f593          	andi	a1,a5,255
transformBlockReduce():
C:\NucleiStudio_workspace3\simple_world\Debug/../src/picojpeg.c:2038
               crG = ((c * 183U) >> 8U) - 91;
80002af2:	0b700793          	li	a5,183
80002af6:	02f687b3          	mul	a5,a3,a5
C:\NucleiStudio_workspace3\simple_world\Debug/../src/picojpeg.c:2039
               gMCUBufG[0] = subAndClamp(gMCUBufG[0], crG);
80002afa:	9000b737          	lui	a4,0x9000b
80002afe:	cfc70713          	addi	a4,a4,-772 # 9000acfc <_sp+0xffffacfc>
subAndClamp():
C:\NucleiStudio_workspace3\simple_world\Debug/../src/picojpeg.c:1469
   b = a - b;
80002b02:	00074683          	lbu	a3,0(a4)
transformBlockReduce():
C:\NucleiStudio_workspace3\simple_world\Debug/../src/picojpeg.c:2036
               gMCUBufR[64] = addAndClamp(gMCUBufR[64], crR);
80002b06:	04b60023          	sb	a1,64(a2)
subAndClamp():
C:\NucleiStudio_workspace3\simple_world\Debug/../src/picojpeg.c:1471
   if ((uint16)b > 255U)
80002b0a:	0ff00613          	li	a2,255
transformBlockReduce():
C:\NucleiStudio_workspace3\simple_world\Debug/../src/picojpeg.c:2038
               crG = ((c * 183U) >> 8U) - 91;
80002b0e:	83a1                	srli	a5,a5,0x8
80002b10:	fa578793          	addi	a5,a5,-91
80002b14:	07c2                	slli	a5,a5,0x10
80002b16:	83c1                	srli	a5,a5,0x10
subAndClamp():
C:\NucleiStudio_workspace3\simple_world\Debug/../src/picojpeg.c:1469
   b = a - b;
80002b18:	8e9d                	sub	a3,a3,a5
80002b1a:	06c2                	slli	a3,a3,0x10
80002b1c:	82c1                	srli	a3,a3,0x10
C:\NucleiStudio_workspace3\simple_world\Debug/../src/picojpeg.c:1471
   if ((uint16)b > 255U)
80002b1e:	00d67c63          	bgeu	a2,a3,80002b36 <pjpeg_decode_mcu+0xeee>
C:\NucleiStudio_workspace3\simple_world\Debug/../src/picojpeg.c:1469
   b = a - b;
80002b22:	01069593          	slli	a1,a3,0x10
80002b26:	85c1                	srai	a1,a1,0x10
C:\NucleiStudio_workspace3\simple_world\Debug/../src/picojpeg.c:1474
         return 0;
80002b28:	4601                	li	a2,0
C:\NucleiStudio_workspace3\simple_world\Debug/../src/picojpeg.c:1473
      if (b < 0)
80002b2a:	0005c863          	bltz	a1,80002b3a <pjpeg_decode_mcu+0xef2>
C:\NucleiStudio_workspace3\simple_world\Debug/../src/picojpeg.c:1476
         return 255;
80002b2e:	0ff00613          	li	a2,255
C:\NucleiStudio_workspace3\simple_world\Debug/../src/picojpeg.c:1475
      else if (b > 255)
80002b32:	00b64463          	blt	a2,a1,80002b3a <pjpeg_decode_mcu+0xef2>
C:\NucleiStudio_workspace3\simple_world\Debug/../src/picojpeg.c:1479
   return (uint8)b;
80002b36:	0ff6f613          	andi	a2,a3,255
C:\NucleiStudio_workspace3\simple_world\Debug/../src/picojpeg.c:1469
   b = a - b;
80002b3a:	04074683          	lbu	a3,64(a4)
transformBlockReduce():
C:\NucleiStudio_workspace3\simple_world\Debug/../src/picojpeg.c:2039
               gMCUBufG[0] = subAndClamp(gMCUBufG[0], crG);
80002b3e:	00c70023          	sb	a2,0(a4)
subAndClamp():
C:\NucleiStudio_workspace3\simple_world\Debug/../src/picojpeg.c:1471
   if ((uint16)b > 255U)
80002b42:	0ff00613          	li	a2,255
C:\NucleiStudio_workspace3\simple_world\Debug/../src/picojpeg.c:1469
   b = a - b;
80002b46:	40f687b3          	sub	a5,a3,a5
80002b4a:	07c2                	slli	a5,a5,0x10
80002b4c:	83c1                	srli	a5,a5,0x10
C:\NucleiStudio_workspace3\simple_world\Debug/../src/picojpeg.c:1471
   if ((uint16)b > 255U)
80002b4e:	00f67c63          	bgeu	a2,a5,80002b66 <pjpeg_decode_mcu+0xf1e>
C:\NucleiStudio_workspace3\simple_world\Debug/../src/picojpeg.c:1469
   b = a - b;
80002b52:	01079613          	slli	a2,a5,0x10
80002b56:	8641                	srai	a2,a2,0x10
C:\NucleiStudio_workspace3\simple_world\Debug/../src/picojpeg.c:1474
         return 0;
80002b58:	4681                	li	a3,0
C:\NucleiStudio_workspace3\simple_world\Debug/../src/picojpeg.c:1473
      if (b < 0)
80002b5a:	00064863          	bltz	a2,80002b6a <pjpeg_decode_mcu+0xf22>
C:\NucleiStudio_workspace3\simple_world\Debug/../src/picojpeg.c:1476
         return 255;
80002b5e:	0ff00693          	li	a3,255
C:\NucleiStudio_workspace3\simple_world\Debug/../src/picojpeg.c:1475
      else if (b > 255)
80002b62:	00c6c463          	blt	a3,a2,80002b6a <pjpeg_decode_mcu+0xf22>
C:\NucleiStudio_workspace3\simple_world\Debug/../src/picojpeg.c:1479
   return (uint8)b;
80002b66:	0ff7f693          	andi	a3,a5,255
transformBlockReduce():
C:\NucleiStudio_workspace3\simple_world\Debug/../src/picojpeg.c:2040
               gMCUBufG[64] = subAndClamp(gMCUBufG[64], crG);
80002b6a:	04d70023          	sb	a3,64(a4)
C:\NucleiStudio_workspace3\simple_world\Debug/../src/picojpeg.c:2042
               break;
80002b6e:	d54ff06f          	j	800020c2 <pjpeg_decode_mcu+0x47a>
C:\NucleiStudio_workspace3\simple_world\Debug/../src/picojpeg.c:1924
         switch (mcuBlock)
80002b72:	4785                	li	a5,1
80002b74:	54f48a63          	beq	s1,a5,800030c8 <pjpeg_decode_mcu+0x1480>
80002b78:	c8d9                	beqz	s1,80002c0e <pjpeg_decode_mcu+0xfc6>
80002b7a:	4789                	li	a5,2
80002b7c:	d4f49363          	bne	s1,a5,800020c2 <pjpeg_decode_mcu+0x47a>
C:\NucleiStudio_workspace3\simple_world\Debug/../src/picojpeg.c:1944
               crR = (c + ((c * 103U) >> 8U)) - 179;
80002b80:	06700713          	li	a4,103
80002b84:	02e68733          	mul	a4,a3,a4
C:\NucleiStudio_workspace3\simple_world\Debug/../src/picojpeg.c:1945
               gMCUBufR[0] = addAndClamp(gMCUBufR[0], crR);
80002b88:	9000b637          	lui	a2,0x9000b
80002b8c:	dfc60613          	addi	a2,a2,-516 # 9000adfc <_sp+0xffffadfc>
addAndClamp():
C:\NucleiStudio_workspace3\simple_world\Debug/../src/picojpeg.c:1454
   b = a + b;
80002b90:	00064783          	lbu	a5,0(a2)
C:\NucleiStudio_workspace3\simple_world\Debug/../src/picojpeg.c:1456
   if ((uint16)b > 255U)
80002b94:	0ff00593          	li	a1,255
C:\NucleiStudio_workspace3\simple_world\Debug/../src/picojpeg.c:1454
   b = a + b;
80002b98:	f4d78793          	addi	a5,a5,-179
80002b9c:	97b6                	add	a5,a5,a3
transformBlockReduce():
C:\NucleiStudio_workspace3\simple_world\Debug/../src/picojpeg.c:1944
               crR = (c + ((c * 103U) >> 8U)) - 179;
80002b9e:	8321                	srli	a4,a4,0x8
addAndClamp():
C:\NucleiStudio_workspace3\simple_world\Debug/../src/picojpeg.c:1454
   b = a + b;
80002ba0:	97ba                	add	a5,a5,a4
80002ba2:	07c2                	slli	a5,a5,0x10
80002ba4:	83c1                	srli	a5,a5,0x10
C:\NucleiStudio_workspace3\simple_world\Debug/../src/picojpeg.c:1456
   if ((uint16)b > 255U)
80002ba6:	00f5fc63          	bgeu	a1,a5,80002bbe <pjpeg_decode_mcu+0xf76>
C:\NucleiStudio_workspace3\simple_world\Debug/../src/picojpeg.c:1454
   b = a + b;
80002baa:	01079713          	slli	a4,a5,0x10
80002bae:	8741                	srai	a4,a4,0x10
C:\NucleiStudio_workspace3\simple_world\Debug/../src/picojpeg.c:1459
         return 0;
80002bb0:	4581                	li	a1,0
C:\NucleiStudio_workspace3\simple_world\Debug/../src/picojpeg.c:1458
      if (b < 0)
80002bb2:	00074863          	bltz	a4,80002bc2 <pjpeg_decode_mcu+0xf7a>
C:\NucleiStudio_workspace3\simple_world\Debug/../src/picojpeg.c:1461
         return 255;
80002bb6:	0ff00593          	li	a1,255
C:\NucleiStudio_workspace3\simple_world\Debug/../src/picojpeg.c:1460
      else if (b > 255)
80002bba:	00e5c463          	blt	a1,a4,80002bc2 <pjpeg_decode_mcu+0xf7a>
C:\NucleiStudio_workspace3\simple_world\Debug/../src/picojpeg.c:1464
   return (uint8)b;
80002bbe:	0ff7f593          	andi	a1,a5,255
transformBlockReduce():
C:\NucleiStudio_workspace3\simple_world\Debug/../src/picojpeg.c:1947
               crG = ((c * 183U) >> 8U) - 91;
80002bc2:	0b700793          	li	a5,183
80002bc6:	02f686b3          	mul	a3,a3,a5
C:\NucleiStudio_workspace3\simple_world\Debug/../src/picojpeg.c:1948
               gMCUBufG[0] = subAndClamp(gMCUBufG[0], crG);
80002bca:	9000b737          	lui	a4,0x9000b
80002bce:	cfc70713          	addi	a4,a4,-772 # 9000acfc <_sp+0xffffacfc>
subAndClamp():
C:\NucleiStudio_workspace3\simple_world\Debug/../src/picojpeg.c:1469
   b = a - b;
80002bd2:	00074783          	lbu	a5,0(a4)
transformBlockReduce():
C:\NucleiStudio_workspace3\simple_world\Debug/../src/picojpeg.c:1945
               gMCUBufR[0] = addAndClamp(gMCUBufR[0], crR);
80002bd6:	00b60023          	sb	a1,0(a2)
subAndClamp():
C:\NucleiStudio_workspace3\simple_world\Debug/../src/picojpeg.c:1471
   if ((uint16)b > 255U)
80002bda:	0ff00613          	li	a2,255
C:\NucleiStudio_workspace3\simple_world\Debug/../src/picojpeg.c:1469
   b = a - b;
80002bde:	05b78793          	addi	a5,a5,91
transformBlockReduce():
C:\NucleiStudio_workspace3\simple_world\Debug/../src/picojpeg.c:1947
               crG = ((c * 183U) >> 8U) - 91;
80002be2:	82a1                	srli	a3,a3,0x8
subAndClamp():
C:\NucleiStudio_workspace3\simple_world\Debug/../src/picojpeg.c:1469
   b = a - b;
80002be4:	8f95                	sub	a5,a5,a3
80002be6:	07c2                	slli	a5,a5,0x10
80002be8:	83c1                	srli	a5,a5,0x10
C:\NucleiStudio_workspace3\simple_world\Debug/../src/picojpeg.c:1471
   if ((uint16)b > 255U)
80002bea:	00f67c63          	bgeu	a2,a5,80002c02 <pjpeg_decode_mcu+0xfba>
C:\NucleiStudio_workspace3\simple_world\Debug/../src/picojpeg.c:1469
   b = a - b;
80002bee:	01079613          	slli	a2,a5,0x10
80002bf2:	8641                	srai	a2,a2,0x10
C:\NucleiStudio_workspace3\simple_world\Debug/../src/picojpeg.c:1474
         return 0;
80002bf4:	4681                	li	a3,0
C:\NucleiStudio_workspace3\simple_world\Debug/../src/picojpeg.c:1473
      if (b < 0)
80002bf6:	00064863          	bltz	a2,80002c06 <pjpeg_decode_mcu+0xfbe>
C:\NucleiStudio_workspace3\simple_world\Debug/../src/picojpeg.c:1476
         return 255;
80002bfa:	0ff00693          	li	a3,255
C:\NucleiStudio_workspace3\simple_world\Debug/../src/picojpeg.c:1475
      else if (b > 255)
80002bfe:	00c6c463          	blt	a3,a2,80002c06 <pjpeg_decode_mcu+0xfbe>
C:\NucleiStudio_workspace3\simple_world\Debug/../src/picojpeg.c:1479
   return (uint8)b;
80002c02:	0ff7f693          	andi	a3,a5,255
transformBlockReduce():
C:\NucleiStudio_workspace3\simple_world\Debug/../src/picojpeg.c:1948
               gMCUBufG[0] = subAndClamp(gMCUBufG[0], crG);
80002c06:	00d70023          	sb	a3,0(a4)
C:\NucleiStudio_workspace3\simple_world\Debug/../src/picojpeg.c:1949
               break;
80002c0a:	cb8ff06f          	j	800020c2 <pjpeg_decode_mcu+0x47a>
C:\NucleiStudio_workspace3\simple_world\Debug/../src/picojpeg.c:2054
               gMCUBufR[0] = c;
80002c0e:	9000b7b7          	lui	a5,0x9000b
80002c12:	ded78e23          	sb	a3,-516(a5) # 9000adfc <_sp+0xffffadfc>
C:\NucleiStudio_workspace3\simple_world\Debug/../src/picojpeg.c:2055
               gMCUBufG[0] = c;
80002c16:	9000b7b7          	lui	a5,0x9000b
80002c1a:	ced78e23          	sb	a3,-772(a5) # 9000acfc <_sp+0xffffacfc>
C:\NucleiStudio_workspace3\simple_world\Debug/../src/picojpeg.c:2056
               gMCUBufB[0] = c;
80002c1e:	9000b7b7          	lui	a5,0x9000b
80002c22:	bed78e23          	sb	a3,-1028(a5) # 9000abfc <_sp+0xffffabfc>
C:\NucleiStudio_workspace3\simple_world\Debug/../src/picojpeg.c:2057
               break;
80002c26:	c9cff06f          	j	800020c2 <pjpeg_decode_mcu+0x47a>
copyY():
C:\NucleiStudio_workspace3\simple_world\Debug/../src/picojpeg.c:1706
   uint8* pBDst = gMCUBufB + dstOfs;
80002c2a:	9000b5b7          	lui	a1,0x9000b
C:\NucleiStudio_workspace3\simple_world\Debug/../src/picojpeg.c:1705
   uint8* pGDst = gMCUBufG + dstOfs;
80002c2e:	9000b637          	lui	a2,0x9000b
C:\NucleiStudio_workspace3\simple_world\Debug/../src/picojpeg.c:1704
   uint8* pRDst = gMCUBufR + dstOfs;
80002c32:	9000b6b7          	lui	a3,0x9000b
C:\NucleiStudio_workspace3\simple_world\Debug/../src/picojpeg.c:1706
   uint8* pBDst = gMCUBufB + dstOfs;
80002c36:	cbc58593          	addi	a1,a1,-836 # 9000acbc <_sp+0xffffacbc>
C:\NucleiStudio_workspace3\simple_world\Debug/../src/picojpeg.c:1705
   uint8* pGDst = gMCUBufG + dstOfs;
80002c3a:	dbc60613          	addi	a2,a2,-580 # 9000adbc <_sp+0xffffadbc>
C:\NucleiStudio_workspace3\simple_world\Debug/../src/picojpeg.c:1704
   uint8* pRDst = gMCUBufR + dstOfs;
80002c3e:	ebc68693          	addi	a3,a3,-324 # 9000aebc <_sp+0xffffaebc>
C:\NucleiStudio_workspace3\simple_world\Debug/../src/picojpeg.c:1707
   int16* pSrc = gCoeffBuf;
80002c42:	87a2                	mv	a5,s0
C:\NucleiStudio_workspace3\simple_world\Debug/../src/picojpeg.c:1711
      uint8 c = (uint8)*pSrc++;
80002c44:	0789                	addi	a5,a5,2
80002c46:	ffe7c703          	lbu	a4,-2(a5)
C:\NucleiStudio_workspace3\simple_world\Debug/../src/picojpeg.c:1713
      *pRDst++ = c;
80002c4a:	0685                	addi	a3,a3,1
C:\NucleiStudio_workspace3\simple_world\Debug/../src/picojpeg.c:1714
      *pGDst++ = c;
80002c4c:	0605                	addi	a2,a2,1
C:\NucleiStudio_workspace3\simple_world\Debug/../src/picojpeg.c:1715
      *pBDst++ = c;
80002c4e:	0585                	addi	a1,a1,1
C:\NucleiStudio_workspace3\simple_world\Debug/../src/picojpeg.c:1713
      *pRDst++ = c;
80002c50:	fee68fa3          	sb	a4,-1(a3)
C:\NucleiStudio_workspace3\simple_world\Debug/../src/picojpeg.c:1714
      *pGDst++ = c;
80002c54:	fee60fa3          	sb	a4,-1(a2)
C:\NucleiStudio_workspace3\simple_world\Debug/../src/picojpeg.c:1715
      *pBDst++ = c;
80002c58:	fee58fa3          	sb	a4,-1(a1)
C:\NucleiStudio_workspace3\simple_world\Debug/../src/picojpeg.c:1709
   for (i = 64; i > 0; i--)
80002c5c:	ffe794e3          	bne	a5,t5,80002c44 <pjpeg_decode_mcu+0xffc>
80002c60:	c62ff06f          	j	800020c2 <pjpeg_decode_mcu+0x47a>
C:\NucleiStudio_workspace3\simple_world\Debug/../src/picojpeg.c:1706
   uint8* pBDst = gMCUBufB + dstOfs;
80002c64:	9000b5b7          	lui	a1,0x9000b
C:\NucleiStudio_workspace3\simple_world\Debug/../src/picojpeg.c:1705
   uint8* pGDst = gMCUBufG + dstOfs;
80002c68:	9000b637          	lui	a2,0x9000b
C:\NucleiStudio_workspace3\simple_world\Debug/../src/picojpeg.c:1704
   uint8* pRDst = gMCUBufR + dstOfs;
80002c6c:	9000b6b7          	lui	a3,0x9000b
C:\NucleiStudio_workspace3\simple_world\Debug/../src/picojpeg.c:1706
   uint8* pBDst = gMCUBufB + dstOfs;
80002c70:	c7c58593          	addi	a1,a1,-900 # 9000ac7c <_sp+0xffffac7c>
C:\NucleiStudio_workspace3\simple_world\Debug/../src/picojpeg.c:1705
   uint8* pGDst = gMCUBufG + dstOfs;
80002c74:	d7c60613          	addi	a2,a2,-644 # 9000ad7c <_sp+0xffffad7c>
C:\NucleiStudio_workspace3\simple_world\Debug/../src/picojpeg.c:1704
   uint8* pRDst = gMCUBufR + dstOfs;
80002c78:	e7c68693          	addi	a3,a3,-388 # 9000ae7c <_sp+0xffffae7c>
C:\NucleiStudio_workspace3\simple_world\Debug/../src/picojpeg.c:1707
   int16* pSrc = gCoeffBuf;
80002c7c:	87a2                	mv	a5,s0
C:\NucleiStudio_workspace3\simple_world\Debug/../src/picojpeg.c:1711
      uint8 c = (uint8)*pSrc++;
80002c7e:	0789                	addi	a5,a5,2
80002c80:	ffe7c703          	lbu	a4,-2(a5)
C:\NucleiStudio_workspace3\simple_world\Debug/../src/picojpeg.c:1713
      *pRDst++ = c;
80002c84:	0685                	addi	a3,a3,1
C:\NucleiStudio_workspace3\simple_world\Debug/../src/picojpeg.c:1714
      *pGDst++ = c;
80002c86:	0605                	addi	a2,a2,1
C:\NucleiStudio_workspace3\simple_world\Debug/../src/picojpeg.c:1715
      *pBDst++ = c;
80002c88:	0585                	addi	a1,a1,1
C:\NucleiStudio_workspace3\simple_world\Debug/../src/picojpeg.c:1713
      *pRDst++ = c;
80002c8a:	fee68fa3          	sb	a4,-1(a3)
C:\NucleiStudio_workspace3\simple_world\Debug/../src/picojpeg.c:1714
      *pGDst++ = c;
80002c8e:	fee60fa3          	sb	a4,-1(a2)
C:\NucleiStudio_workspace3\simple_world\Debug/../src/picojpeg.c:1715
      *pBDst++ = c;
80002c92:	fee58fa3          	sb	a4,-1(a1)
C:\NucleiStudio_workspace3\simple_world\Debug/../src/picojpeg.c:1709
   for (i = 64; i > 0; i--)
80002c96:	ffe794e3          	bne	a5,t5,80002c7e <pjpeg_decode_mcu+0x1036>
80002c9a:	c28ff06f          	j	800020c2 <pjpeg_decode_mcu+0x47a>
C:\NucleiStudio_workspace3\simple_world\Debug/../src/picojpeg.c:1706
   uint8* pBDst = gMCUBufB + dstOfs;
80002c9e:	9000b5b7          	lui	a1,0x9000b
C:\NucleiStudio_workspace3\simple_world\Debug/../src/picojpeg.c:1705
   uint8* pGDst = gMCUBufG + dstOfs;
80002ca2:	9000b637          	lui	a2,0x9000b
C:\NucleiStudio_workspace3\simple_world\Debug/../src/picojpeg.c:1704
   uint8* pRDst = gMCUBufR + dstOfs;
80002ca6:	9000b6b7          	lui	a3,0x9000b
C:\NucleiStudio_workspace3\simple_world\Debug/../src/picojpeg.c:1706
   uint8* pBDst = gMCUBufB + dstOfs;
80002caa:	c3c58593          	addi	a1,a1,-964 # 9000ac3c <_sp+0xffffac3c>
C:\NucleiStudio_workspace3\simple_world\Debug/../src/picojpeg.c:1705
   uint8* pGDst = gMCUBufG + dstOfs;
80002cae:	d3c60613          	addi	a2,a2,-708 # 9000ad3c <_sp+0xffffad3c>
C:\NucleiStudio_workspace3\simple_world\Debug/../src/picojpeg.c:1704
   uint8* pRDst = gMCUBufR + dstOfs;
80002cb2:	e3c68693          	addi	a3,a3,-452 # 9000ae3c <_sp+0xffffae3c>
C:\NucleiStudio_workspace3\simple_world\Debug/../src/picojpeg.c:1707
   int16* pSrc = gCoeffBuf;
80002cb6:	87a2                	mv	a5,s0
C:\NucleiStudio_workspace3\simple_world\Debug/../src/picojpeg.c:1711
      uint8 c = (uint8)*pSrc++;
80002cb8:	0789                	addi	a5,a5,2
80002cba:	ffe7c703          	lbu	a4,-2(a5)
C:\NucleiStudio_workspace3\simple_world\Debug/../src/picojpeg.c:1713
      *pRDst++ = c;
80002cbe:	0685                	addi	a3,a3,1
C:\NucleiStudio_workspace3\simple_world\Debug/../src/picojpeg.c:1714
      *pGDst++ = c;
80002cc0:	0605                	addi	a2,a2,1
C:\NucleiStudio_workspace3\simple_world\Debug/../src/picojpeg.c:1715
      *pBDst++ = c;
80002cc2:	0585                	addi	a1,a1,1
C:\NucleiStudio_workspace3\simple_world\Debug/../src/picojpeg.c:1713
      *pRDst++ = c;
80002cc4:	fee68fa3          	sb	a4,-1(a3)
C:\NucleiStudio_workspace3\simple_world\Debug/../src/picojpeg.c:1714
      *pGDst++ = c;
80002cc8:	fee60fa3          	sb	a4,-1(a2)
C:\NucleiStudio_workspace3\simple_world\Debug/../src/picojpeg.c:1715
      *pBDst++ = c;
80002ccc:	fee58fa3          	sb	a4,-1(a1)
C:\NucleiStudio_workspace3\simple_world\Debug/../src/picojpeg.c:1709
   for (i = 64; i > 0; i--)
80002cd0:	ffe794e3          	bne	a5,t5,80002cb8 <pjpeg_decode_mcu+0x1070>
80002cd4:	beeff06f          	j	800020c2 <pjpeg_decode_mcu+0x47a>
C:\NucleiStudio_workspace3\simple_world\Debug/../src/picojpeg.c:1706
   uint8* pBDst = gMCUBufB + dstOfs;
80002cd8:	9000b5b7          	lui	a1,0x9000b
C:\NucleiStudio_workspace3\simple_world\Debug/../src/picojpeg.c:1705
   uint8* pGDst = gMCUBufG + dstOfs;
80002cdc:	9000b637          	lui	a2,0x9000b
C:\NucleiStudio_workspace3\simple_world\Debug/../src/picojpeg.c:1704
   uint8* pRDst = gMCUBufR + dstOfs;
80002ce0:	9000b6b7          	lui	a3,0x9000b
C:\NucleiStudio_workspace3\simple_world\Debug/../src/picojpeg.c:1706
   uint8* pBDst = gMCUBufB + dstOfs;
80002ce4:	bfc58593          	addi	a1,a1,-1028 # 9000abfc <_sp+0xffffabfc>
C:\NucleiStudio_workspace3\simple_world\Debug/../src/picojpeg.c:1705
   uint8* pGDst = gMCUBufG + dstOfs;
80002ce8:	cfc60613          	addi	a2,a2,-772 # 9000acfc <_sp+0xffffacfc>
C:\NucleiStudio_workspace3\simple_world\Debug/../src/picojpeg.c:1704
   uint8* pRDst = gMCUBufR + dstOfs;
80002cec:	dfc68693          	addi	a3,a3,-516 # 9000adfc <_sp+0xffffadfc>
C:\NucleiStudio_workspace3\simple_world\Debug/../src/picojpeg.c:1707
   int16* pSrc = gCoeffBuf;
80002cf0:	87a2                	mv	a5,s0
C:\NucleiStudio_workspace3\simple_world\Debug/../src/picojpeg.c:1711
      uint8 c = (uint8)*pSrc++;
80002cf2:	0789                	addi	a5,a5,2
80002cf4:	ffe7c703          	lbu	a4,-2(a5)
C:\NucleiStudio_workspace3\simple_world\Debug/../src/picojpeg.c:1713
      *pRDst++ = c;
80002cf8:	0685                	addi	a3,a3,1
C:\NucleiStudio_workspace3\simple_world\Debug/../src/picojpeg.c:1714
      *pGDst++ = c;
80002cfa:	0605                	addi	a2,a2,1
C:\NucleiStudio_workspace3\simple_world\Debug/../src/picojpeg.c:1715
      *pBDst++ = c;
80002cfc:	0585                	addi	a1,a1,1
C:\NucleiStudio_workspace3\simple_world\Debug/../src/picojpeg.c:1713
      *pRDst++ = c;
80002cfe:	fee68fa3          	sb	a4,-1(a3)
C:\NucleiStudio_workspace3\simple_world\Debug/../src/picojpeg.c:1714
      *pGDst++ = c;
80002d02:	fee60fa3          	sb	a4,-1(a2)
C:\NucleiStudio_workspace3\simple_world\Debug/../src/picojpeg.c:1715
      *pBDst++ = c;
80002d06:	fee58fa3          	sb	a4,-1(a1)
C:\NucleiStudio_workspace3\simple_world\Debug/../src/picojpeg.c:1709
   for (i = 64; i > 0; i--)
80002d0a:	ffe794e3          	bne	a5,t5,80002cf2 <pjpeg_decode_mcu+0x10aa>
80002d0e:	bb4ff06f          	j	800020c2 <pjpeg_decode_mcu+0x47a>
transformBlock():
C:\NucleiStudio_workspace3\simple_world\Debug/../src/picojpeg.c:1887
               upsampleCb(0, 0);
80002d12:	4581                	li	a1,0
80002d14:	4501                	li	a0,0
80002d16:	858fe0ef          	jal	ra,80000d6e <upsampleCb>
C:\NucleiStudio_workspace3\simple_world\Debug/../src/picojpeg.c:1888
               upsampleCb(4, 64);
80002d1a:	04000593          	li	a1,64
80002d1e:	4511                	li	a0,4
80002d20:	84efe0ef          	jal	ra,80000d6e <upsampleCb>
C:\NucleiStudio_workspace3\simple_world\Debug/../src/picojpeg.c:1889
               upsampleCb(4*8, 128);
80002d24:	08000593          	li	a1,128
80002d28:	02000513          	li	a0,32
80002d2c:	842fe0ef          	jal	ra,80000d6e <upsampleCb>
C:\NucleiStudio_workspace3\simple_world\Debug/../src/picojpeg.c:1890
               upsampleCb(4+4*8, 192);
80002d30:	0c000593          	li	a1,192
80002d34:	02400513          	li	a0,36
80002d38:	836fe0ef          	jal	ra,80000d6e <upsampleCb>
C:\NucleiStudio_workspace3\simple_world\Debug/../src/picojpeg.c:1891
               break;
80002d3c:	b86ff06f          	j	800020c2 <pjpeg_decode_mcu+0x47a>
C:\NucleiStudio_workspace3\simple_world\Debug/../src/picojpeg.c:1895
               upsampleCr(0, 0);
80002d40:	4581                	li	a1,0
80002d42:	4501                	li	a0,0
80002d44:	c7cfe0ef          	jal	ra,800011c0 <upsampleCr>
C:\NucleiStudio_workspace3\simple_world\Debug/../src/picojpeg.c:1896
               upsampleCr(4, 64);
80002d48:	04000593          	li	a1,64
80002d4c:	4511                	li	a0,4
80002d4e:	c72fe0ef          	jal	ra,800011c0 <upsampleCr>
C:\NucleiStudio_workspace3\simple_world\Debug/../src/picojpeg.c:1897
               upsampleCr(4*8, 128);
80002d52:	08000593          	li	a1,128
80002d56:	02000513          	li	a0,32
80002d5a:	c66fe0ef          	jal	ra,800011c0 <upsampleCr>
C:\NucleiStudio_workspace3\simple_world\Debug/../src/picojpeg.c:1898
               upsampleCr(4+4*8, 192);
80002d5e:	0c000593          	li	a1,192
80002d62:	02400513          	li	a0,36
80002d66:	c5afe0ef          	jal	ra,800011c0 <upsampleCr>
C:\NucleiStudio_workspace3\simple_world\Debug/../src/picojpeg.c:1899
               break;
80002d6a:	b58ff06f          	j	800020c2 <pjpeg_decode_mcu+0x47a>
transformBlockReduce():
C:\NucleiStudio_workspace3\simple_world\Debug/../src/picojpeg.c:2068
               gMCUBufR[128] = c;
80002d6e:	9000b7b7          	lui	a5,0x9000b
80002d72:	e6d78e23          	sb	a3,-388(a5) # 9000ae7c <_sp+0xffffae7c>
C:\NucleiStudio_workspace3\simple_world\Debug/../src/picojpeg.c:2069
               gMCUBufG[128] = c;
80002d76:	9000b7b7          	lui	a5,0x9000b
80002d7a:	d6d78e23          	sb	a3,-644(a5) # 9000ad7c <_sp+0xffffad7c>
C:\NucleiStudio_workspace3\simple_world\Debug/../src/picojpeg.c:2070
               gMCUBufB[128] = c;
80002d7e:	9000b7b7          	lui	a5,0x9000b
80002d82:	c6d78e23          	sb	a3,-900(a5) # 9000ac7c <_sp+0xffffac7c>
C:\NucleiStudio_workspace3\simple_world\Debug/../src/picojpeg.c:2071
               break;
80002d86:	b3cff06f          	j	800020c2 <pjpeg_decode_mcu+0x47a>
C:\NucleiStudio_workspace3\simple_world\Debug/../src/picojpeg.c:2061
               gMCUBufR[64] = c;
80002d8a:	9000b7b7          	lui	a5,0x9000b
80002d8e:	e2d78e23          	sb	a3,-452(a5) # 9000ae3c <_sp+0xffffae3c>
C:\NucleiStudio_workspace3\simple_world\Debug/../src/picojpeg.c:2062
               gMCUBufG[64] = c;
80002d92:	9000b7b7          	lui	a5,0x9000b
80002d96:	d2d78e23          	sb	a3,-708(a5) # 9000ad3c <_sp+0xffffad3c>
C:\NucleiStudio_workspace3\simple_world\Debug/../src/picojpeg.c:2063
               gMCUBufB[64] = c;
80002d9a:	9000b7b7          	lui	a5,0x9000b
80002d9e:	c2d78e23          	sb	a3,-964(a5) # 9000ac3c <_sp+0xffffac3c>
C:\NucleiStudio_workspace3\simple_world\Debug/../src/picojpeg.c:2064
               break;
80002da2:	b20ff06f          	j	800020c2 <pjpeg_decode_mcu+0x47a>
C:\NucleiStudio_workspace3\simple_world\Debug/../src/picojpeg.c:2075
               gMCUBufR[192] = c;
80002da6:	9000b7b7          	lui	a5,0x9000b
80002daa:	ead78e23          	sb	a3,-324(a5) # 9000aebc <_sp+0xffffaebc>
C:\NucleiStudio_workspace3\simple_world\Debug/../src/picojpeg.c:2076
               gMCUBufG[192] = c;
80002dae:	9000b7b7          	lui	a5,0x9000b
80002db2:	dad78e23          	sb	a3,-580(a5) # 9000adbc <_sp+0xffffadbc>
C:\NucleiStudio_workspace3\simple_world\Debug/../src/picojpeg.c:2077
               gMCUBufB[192] = c;
80002db6:	9000b7b7          	lui	a5,0x9000b
80002dba:	cad78e23          	sb	a3,-836(a5) # 9000acbc <_sp+0xffffacbc>
C:\NucleiStudio_workspace3\simple_world\Debug/../src/picojpeg.c:2078
               break;
80002dbe:	b04ff06f          	j	800020c2 <pjpeg_decode_mcu+0x47a>
C:\NucleiStudio_workspace3\simple_world\Debug/../src/picojpeg.c:2098
               crR = (c + ((c * 103U) >> 8U)) - 179;
80002dc2:	06700713          	li	a4,103
80002dc6:	02e68733          	mul	a4,a3,a4
C:\NucleiStudio_workspace3\simple_world\Debug/../src/picojpeg.c:2099
               gMCUBufR[0] = addAndClamp(gMCUBufR[0], crR);
80002dca:	9000b637          	lui	a2,0x9000b
80002dce:	dfc60613          	addi	a2,a2,-516 # 9000adfc <_sp+0xffffadfc>
C:\NucleiStudio_workspace3\simple_world\Debug/../src/picojpeg.c:2098
               crR = (c + ((c * 103U) >> 8U)) - 179;
80002dd2:	f4d68793          	addi	a5,a3,-179
addAndClamp():
C:\NucleiStudio_workspace3\simple_world\Debug/../src/picojpeg.c:1454
   b = a + b;
80002dd6:	00064583          	lbu	a1,0(a2)
C:\NucleiStudio_workspace3\simple_world\Debug/../src/picojpeg.c:1456
   if ((uint16)b > 255U)
80002dda:	0ff00513          	li	a0,255
transformBlockReduce():
C:\NucleiStudio_workspace3\simple_world\Debug/../src/picojpeg.c:2098
               crR = (c + ((c * 103U) >> 8U)) - 179;
80002dde:	8321                	srli	a4,a4,0x8
80002de0:	97ba                	add	a5,a5,a4
80002de2:	07c2                	slli	a5,a5,0x10
80002de4:	83c1                	srli	a5,a5,0x10
addAndClamp():
C:\NucleiStudio_workspace3\simple_world\Debug/../src/picojpeg.c:1454
   b = a + b;
80002de6:	00b78733          	add	a4,a5,a1
80002dea:	0742                	slli	a4,a4,0x10
80002dec:	8341                	srli	a4,a4,0x10
C:\NucleiStudio_workspace3\simple_world\Debug/../src/picojpeg.c:1456
   if ((uint16)b > 255U)
80002dee:	00e57c63          	bgeu	a0,a4,80002e06 <pjpeg_decode_mcu+0x11be>
C:\NucleiStudio_workspace3\simple_world\Debug/../src/picojpeg.c:1454
   b = a + b;
80002df2:	01071513          	slli	a0,a4,0x10
80002df6:	8541                	srai	a0,a0,0x10
C:\NucleiStudio_workspace3\simple_world\Debug/../src/picojpeg.c:1459
         return 0;
80002df8:	4581                	li	a1,0
C:\NucleiStudio_workspace3\simple_world\Debug/../src/picojpeg.c:1458
      if (b < 0)
80002dfa:	00054863          	bltz	a0,80002e0a <pjpeg_decode_mcu+0x11c2>
C:\NucleiStudio_workspace3\simple_world\Debug/../src/picojpeg.c:1461
         return 255;
80002dfe:	0ff00593          	li	a1,255
C:\NucleiStudio_workspace3\simple_world\Debug/../src/picojpeg.c:1460
      else if (b > 255)
80002e02:	00a5c463          	blt	a1,a0,80002e0a <pjpeg_decode_mcu+0x11c2>
C:\NucleiStudio_workspace3\simple_world\Debug/../src/picojpeg.c:1464
   return (uint8)b;
80002e06:	0ff77593          	andi	a1,a4,255
C:\NucleiStudio_workspace3\simple_world\Debug/../src/picojpeg.c:1454
   b = a + b;
80002e0a:	04064703          	lbu	a4,64(a2)
transformBlockReduce():
C:\NucleiStudio_workspace3\simple_world\Debug/../src/picojpeg.c:2099
               gMCUBufR[0] = addAndClamp(gMCUBufR[0], crR);
80002e0e:	00b60023          	sb	a1,0(a2)
addAndClamp():
C:\NucleiStudio_workspace3\simple_world\Debug/../src/picojpeg.c:1456
   if ((uint16)b > 255U)
80002e12:	0ff00593          	li	a1,255
C:\NucleiStudio_workspace3\simple_world\Debug/../src/picojpeg.c:1454
   b = a + b;
80002e16:	973e                	add	a4,a4,a5
80002e18:	0742                	slli	a4,a4,0x10
80002e1a:	8341                	srli	a4,a4,0x10
C:\NucleiStudio_workspace3\simple_world\Debug/../src/picojpeg.c:1456
   if ((uint16)b > 255U)
80002e1c:	00e5fc63          	bgeu	a1,a4,80002e34 <pjpeg_decode_mcu+0x11ec>
C:\NucleiStudio_workspace3\simple_world\Debug/../src/picojpeg.c:1454
   b = a + b;
80002e20:	01071513          	slli	a0,a4,0x10
80002e24:	8541                	srai	a0,a0,0x10
C:\NucleiStudio_workspace3\simple_world\Debug/../src/picojpeg.c:1459
         return 0;
80002e26:	4581                	li	a1,0
C:\NucleiStudio_workspace3\simple_world\Debug/../src/picojpeg.c:1458
      if (b < 0)
80002e28:	00054863          	bltz	a0,80002e38 <pjpeg_decode_mcu+0x11f0>
C:\NucleiStudio_workspace3\simple_world\Debug/../src/picojpeg.c:1461
         return 255;
80002e2c:	0ff00593          	li	a1,255
C:\NucleiStudio_workspace3\simple_world\Debug/../src/picojpeg.c:1460
      else if (b > 255)
80002e30:	00a5c463          	blt	a1,a0,80002e38 <pjpeg_decode_mcu+0x11f0>
C:\NucleiStudio_workspace3\simple_world\Debug/../src/picojpeg.c:1464
   return (uint8)b;
80002e34:	0ff77593          	andi	a1,a4,255
C:\NucleiStudio_workspace3\simple_world\Debug/../src/picojpeg.c:1454
   b = a + b;
80002e38:	08064703          	lbu	a4,128(a2)
transformBlockReduce():
C:\NucleiStudio_workspace3\simple_world\Debug/../src/picojpeg.c:2100
               gMCUBufR[64] = addAndClamp(gMCUBufR[64], crR);
80002e3c:	04b60023          	sb	a1,64(a2)
addAndClamp():
C:\NucleiStudio_workspace3\simple_world\Debug/../src/picojpeg.c:1456
   if ((uint16)b > 255U)
80002e40:	0ff00593          	li	a1,255
C:\NucleiStudio_workspace3\simple_world\Debug/../src/picojpeg.c:1454
   b = a + b;
80002e44:	973e                	add	a4,a4,a5
80002e46:	0742                	slli	a4,a4,0x10
80002e48:	8341                	srli	a4,a4,0x10
C:\NucleiStudio_workspace3\simple_world\Debug/../src/picojpeg.c:1456
   if ((uint16)b > 255U)
80002e4a:	00e5fc63          	bgeu	a1,a4,80002e62 <pjpeg_decode_mcu+0x121a>
C:\NucleiStudio_workspace3\simple_world\Debug/../src/picojpeg.c:1454
   b = a + b;
80002e4e:	01071513          	slli	a0,a4,0x10
80002e52:	8541                	srai	a0,a0,0x10
C:\NucleiStudio_workspace3\simple_world\Debug/../src/picojpeg.c:1459
         return 0;
80002e54:	4581                	li	a1,0
C:\NucleiStudio_workspace3\simple_world\Debug/../src/picojpeg.c:1458
      if (b < 0)
80002e56:	00054863          	bltz	a0,80002e66 <pjpeg_decode_mcu+0x121e>
C:\NucleiStudio_workspace3\simple_world\Debug/../src/picojpeg.c:1461
         return 255;
80002e5a:	0ff00593          	li	a1,255
C:\NucleiStudio_workspace3\simple_world\Debug/../src/picojpeg.c:1460
      else if (b > 255)
80002e5e:	00a5c463          	blt	a1,a0,80002e66 <pjpeg_decode_mcu+0x121e>
C:\NucleiStudio_workspace3\simple_world\Debug/../src/picojpeg.c:1464
   return (uint8)b;
80002e62:	0ff77593          	andi	a1,a4,255
C:\NucleiStudio_workspace3\simple_world\Debug/../src/picojpeg.c:1454
   b = a + b;
80002e66:	0c064503          	lbu	a0,192(a2)
transformBlockReduce():
C:\NucleiStudio_workspace3\simple_world\Debug/../src/picojpeg.c:2101
               gMCUBufR[128] = addAndClamp(gMCUBufR[128], crR);
80002e6a:	08b60023          	sb	a1,128(a2)
addAndClamp():
C:\NucleiStudio_workspace3\simple_world\Debug/../src/picojpeg.c:1456
   if ((uint16)b > 255U)
80002e6e:	0ff00713          	li	a4,255
C:\NucleiStudio_workspace3\simple_world\Debug/../src/picojpeg.c:1454
   b = a + b;
80002e72:	97aa                	add	a5,a5,a0
80002e74:	07c2                	slli	a5,a5,0x10
80002e76:	83c1                	srli	a5,a5,0x10
C:\NucleiStudio_workspace3\simple_world\Debug/../src/picojpeg.c:1456
   if ((uint16)b > 255U)
80002e78:	00f77c63          	bgeu	a4,a5,80002e90 <pjpeg_decode_mcu+0x1248>
C:\NucleiStudio_workspace3\simple_world\Debug/../src/picojpeg.c:1454
   b = a + b;
80002e7c:	01079713          	slli	a4,a5,0x10
80002e80:	8741                	srai	a4,a4,0x10
C:\NucleiStudio_workspace3\simple_world\Debug/../src/picojpeg.c:1459
         return 0;
80002e82:	4581                	li	a1,0
C:\NucleiStudio_workspace3\simple_world\Debug/../src/picojpeg.c:1458
      if (b < 0)
80002e84:	00074863          	bltz	a4,80002e94 <pjpeg_decode_mcu+0x124c>
C:\NucleiStudio_workspace3\simple_world\Debug/../src/picojpeg.c:1461
         return 255;
80002e88:	0ff00593          	li	a1,255
C:\NucleiStudio_workspace3\simple_world\Debug/../src/picojpeg.c:1460
      else if (b > 255)
80002e8c:	00e5c463          	blt	a1,a4,80002e94 <pjpeg_decode_mcu+0x124c>
C:\NucleiStudio_workspace3\simple_world\Debug/../src/picojpeg.c:1464
   return (uint8)b;
80002e90:	0ff7f593          	andi	a1,a5,255
transformBlockReduce():
C:\NucleiStudio_workspace3\simple_world\Debug/../src/picojpeg.c:2104
               crG = ((c * 183U) >> 8U) - 91;
80002e94:	0b700793          	li	a5,183
80002e98:	02f687b3          	mul	a5,a3,a5
C:\NucleiStudio_workspace3\simple_world\Debug/../src/picojpeg.c:2105
               gMCUBufG[0] = subAndClamp(gMCUBufG[0], crG);
80002e9c:	9000b737          	lui	a4,0x9000b
80002ea0:	cfc70713          	addi	a4,a4,-772 # 9000acfc <_sp+0xffffacfc>
subAndClamp():
C:\NucleiStudio_workspace3\simple_world\Debug/../src/picojpeg.c:1469
   b = a - b;
80002ea4:	00074683          	lbu	a3,0(a4)
transformBlockReduce():
C:\NucleiStudio_workspace3\simple_world\Debug/../src/picojpeg.c:2102
               gMCUBufR[192] = addAndClamp(gMCUBufR[192], crR);
80002ea8:	0cb60023          	sb	a1,192(a2)
subAndClamp():
C:\NucleiStudio_workspace3\simple_world\Debug/../src/picojpeg.c:1471
   if ((uint16)b > 255U)
80002eac:	0ff00613          	li	a2,255
transformBlockReduce():
C:\NucleiStudio_workspace3\simple_world\Debug/../src/picojpeg.c:2104
               crG = ((c * 183U) >> 8U) - 91;
80002eb0:	83a1                	srli	a5,a5,0x8
80002eb2:	fa578793          	addi	a5,a5,-91
80002eb6:	07c2                	slli	a5,a5,0x10
80002eb8:	83c1                	srli	a5,a5,0x10
subAndClamp():
C:\NucleiStudio_workspace3\simple_world\Debug/../src/picojpeg.c:1469
   b = a - b;
80002eba:	8e9d                	sub	a3,a3,a5
80002ebc:	06c2                	slli	a3,a3,0x10
80002ebe:	82c1                	srli	a3,a3,0x10
C:\NucleiStudio_workspace3\simple_world\Debug/../src/picojpeg.c:1471
   if ((uint16)b > 255U)
80002ec0:	00d67c63          	bgeu	a2,a3,80002ed8 <pjpeg_decode_mcu+0x1290>
C:\NucleiStudio_workspace3\simple_world\Debug/../src/picojpeg.c:1469
   b = a - b;
80002ec4:	01069593          	slli	a1,a3,0x10
80002ec8:	85c1                	srai	a1,a1,0x10
C:\NucleiStudio_workspace3\simple_world\Debug/../src/picojpeg.c:1474
         return 0;
80002eca:	4601                	li	a2,0
C:\NucleiStudio_workspace3\simple_world\Debug/../src/picojpeg.c:1473
      if (b < 0)
80002ecc:	0005c863          	bltz	a1,80002edc <pjpeg_decode_mcu+0x1294>
C:\NucleiStudio_workspace3\simple_world\Debug/../src/picojpeg.c:1476
         return 255;
80002ed0:	0ff00613          	li	a2,255
C:\NucleiStudio_workspace3\simple_world\Debug/../src/picojpeg.c:1475
      else if (b > 255)
80002ed4:	00b64463          	blt	a2,a1,80002edc <pjpeg_decode_mcu+0x1294>
C:\NucleiStudio_workspace3\simple_world\Debug/../src/picojpeg.c:1479
   return (uint8)b;
80002ed8:	0ff6f613          	andi	a2,a3,255
C:\NucleiStudio_workspace3\simple_world\Debug/../src/picojpeg.c:1469
   b = a - b;
80002edc:	04074683          	lbu	a3,64(a4)
transformBlockReduce():
C:\NucleiStudio_workspace3\simple_world\Debug/../src/picojpeg.c:2105
               gMCUBufG[0] = subAndClamp(gMCUBufG[0], crG);
80002ee0:	00c70023          	sb	a2,0(a4)
subAndClamp():
C:\NucleiStudio_workspace3\simple_world\Debug/../src/picojpeg.c:1471
   if ((uint16)b > 255U)
80002ee4:	0ff00613          	li	a2,255
C:\NucleiStudio_workspace3\simple_world\Debug/../src/picojpeg.c:1469
   b = a - b;
80002ee8:	8e9d                	sub	a3,a3,a5
80002eea:	06c2                	slli	a3,a3,0x10
80002eec:	82c1                	srli	a3,a3,0x10
C:\NucleiStudio_workspace3\simple_world\Debug/../src/picojpeg.c:1471
   if ((uint16)b > 255U)
80002eee:	00d67c63          	bgeu	a2,a3,80002f06 <pjpeg_decode_mcu+0x12be>
C:\NucleiStudio_workspace3\simple_world\Debug/../src/picojpeg.c:1469
   b = a - b;
80002ef2:	01069593          	slli	a1,a3,0x10
80002ef6:	85c1                	srai	a1,a1,0x10
C:\NucleiStudio_workspace3\simple_world\Debug/../src/picojpeg.c:1474
         return 0;
80002ef8:	4601                	li	a2,0
C:\NucleiStudio_workspace3\simple_world\Debug/../src/picojpeg.c:1473
      if (b < 0)
80002efa:	0005c863          	bltz	a1,80002f0a <pjpeg_decode_mcu+0x12c2>
C:\NucleiStudio_workspace3\simple_world\Debug/../src/picojpeg.c:1476
         return 255;
80002efe:	0ff00613          	li	a2,255
C:\NucleiStudio_workspace3\simple_world\Debug/../src/picojpeg.c:1475
      else if (b > 255)
80002f02:	00b64463          	blt	a2,a1,80002f0a <pjpeg_decode_mcu+0x12c2>
C:\NucleiStudio_workspace3\simple_world\Debug/../src/picojpeg.c:1479
   return (uint8)b;
80002f06:	0ff6f613          	andi	a2,a3,255
C:\NucleiStudio_workspace3\simple_world\Debug/../src/picojpeg.c:1469
   b = a - b;
80002f0a:	08074683          	lbu	a3,128(a4)
transformBlockReduce():
C:\NucleiStudio_workspace3\simple_world\Debug/../src/picojpeg.c:2106
               gMCUBufG[64] = subAndClamp(gMCUBufG[64], crG);
80002f0e:	04c70023          	sb	a2,64(a4)
subAndClamp():
C:\NucleiStudio_workspace3\simple_world\Debug/../src/picojpeg.c:1471
   if ((uint16)b > 255U)
80002f12:	0ff00613          	li	a2,255
C:\NucleiStudio_workspace3\simple_world\Debug/../src/picojpeg.c:1469
   b = a - b;
80002f16:	8e9d                	sub	a3,a3,a5
80002f18:	06c2                	slli	a3,a3,0x10
80002f1a:	82c1                	srli	a3,a3,0x10
C:\NucleiStudio_workspace3\simple_world\Debug/../src/picojpeg.c:1471
   if ((uint16)b > 255U)
80002f1c:	00d67c63          	bgeu	a2,a3,80002f34 <pjpeg_decode_mcu+0x12ec>
C:\NucleiStudio_workspace3\simple_world\Debug/../src/picojpeg.c:1469
   b = a - b;
80002f20:	01069593          	slli	a1,a3,0x10
80002f24:	85c1                	srai	a1,a1,0x10
C:\NucleiStudio_workspace3\simple_world\Debug/../src/picojpeg.c:1474
         return 0;
80002f26:	4601                	li	a2,0
C:\NucleiStudio_workspace3\simple_world\Debug/../src/picojpeg.c:1473
      if (b < 0)
80002f28:	0005c863          	bltz	a1,80002f38 <pjpeg_decode_mcu+0x12f0>
C:\NucleiStudio_workspace3\simple_world\Debug/../src/picojpeg.c:1476
         return 255;
80002f2c:	0ff00613          	li	a2,255
C:\NucleiStudio_workspace3\simple_world\Debug/../src/picojpeg.c:1475
      else if (b > 255)
80002f30:	00b64463          	blt	a2,a1,80002f38 <pjpeg_decode_mcu+0x12f0>
C:\NucleiStudio_workspace3\simple_world\Debug/../src/picojpeg.c:1479
   return (uint8)b;
80002f34:	0ff6f613          	andi	a2,a3,255
C:\NucleiStudio_workspace3\simple_world\Debug/../src/picojpeg.c:1469
   b = a - b;
80002f38:	0c074683          	lbu	a3,192(a4)
transformBlockReduce():
C:\NucleiStudio_workspace3\simple_world\Debug/../src/picojpeg.c:2107
               gMCUBufG[128] = subAndClamp(gMCUBufG[128], crG);
80002f3c:	08c70023          	sb	a2,128(a4)
subAndClamp():
C:\NucleiStudio_workspace3\simple_world\Debug/../src/picojpeg.c:1471
   if ((uint16)b > 255U)
80002f40:	0ff00613          	li	a2,255
C:\NucleiStudio_workspace3\simple_world\Debug/../src/picojpeg.c:1469
   b = a - b;
80002f44:	40f687b3          	sub	a5,a3,a5
80002f48:	07c2                	slli	a5,a5,0x10
80002f4a:	83c1                	srli	a5,a5,0x10
C:\NucleiStudio_workspace3\simple_world\Debug/../src/picojpeg.c:1471
   if ((uint16)b > 255U)
80002f4c:	00f67c63          	bgeu	a2,a5,80002f64 <pjpeg_decode_mcu+0x131c>
C:\NucleiStudio_workspace3\simple_world\Debug/../src/picojpeg.c:1469
   b = a - b;
80002f50:	01079613          	slli	a2,a5,0x10
80002f54:	8641                	srai	a2,a2,0x10
C:\NucleiStudio_workspace3\simple_world\Debug/../src/picojpeg.c:1474
         return 0;
80002f56:	4681                	li	a3,0
C:\NucleiStudio_workspace3\simple_world\Debug/../src/picojpeg.c:1473
      if (b < 0)
80002f58:	00064863          	bltz	a2,80002f68 <pjpeg_decode_mcu+0x1320>
C:\NucleiStudio_workspace3\simple_world\Debug/../src/picojpeg.c:1476
         return 255;
80002f5c:	0ff00693          	li	a3,255
C:\NucleiStudio_workspace3\simple_world\Debug/../src/picojpeg.c:1475
      else if (b > 255)
80002f60:	00c6c463          	blt	a3,a2,80002f68 <pjpeg_decode_mcu+0x1320>
C:\NucleiStudio_workspace3\simple_world\Debug/../src/picojpeg.c:1479
   return (uint8)b;
80002f64:	0ff7f693          	andi	a3,a5,255
transformBlockReduce():
C:\NucleiStudio_workspace3\simple_world\Debug/../src/picojpeg.c:2108
               gMCUBufG[192] = subAndClamp(gMCUBufG[192], crG);
80002f68:	0cd70023          	sb	a3,192(a4)
C:\NucleiStudio_workspace3\simple_world\Debug/../src/picojpeg.c:2110
               break;
80002f6c:	956ff06f          	j	800020c2 <pjpeg_decode_mcu+0x47a>
copyY():
C:\NucleiStudio_workspace3\simple_world\Debug/../src/picojpeg.c:1706
   uint8* pBDst = gMCUBufB + dstOfs;
80002f70:	9000b5b7          	lui	a1,0x9000b
C:\NucleiStudio_workspace3\simple_world\Debug/../src/picojpeg.c:1705
   uint8* pGDst = gMCUBufG + dstOfs;
80002f74:	9000b637          	lui	a2,0x9000b
C:\NucleiStudio_workspace3\simple_world\Debug/../src/picojpeg.c:1704
   uint8* pRDst = gMCUBufR + dstOfs;
80002f78:	9000b6b7          	lui	a3,0x9000b
C:\NucleiStudio_workspace3\simple_world\Debug/../src/picojpeg.c:1706
   uint8* pBDst = gMCUBufB + dstOfs;
80002f7c:	bfc58593          	addi	a1,a1,-1028 # 9000abfc <_sp+0xffffabfc>
C:\NucleiStudio_workspace3\simple_world\Debug/../src/picojpeg.c:1705
   uint8* pGDst = gMCUBufG + dstOfs;
80002f80:	cfc60613          	addi	a2,a2,-772 # 9000acfc <_sp+0xffffacfc>
C:\NucleiStudio_workspace3\simple_world\Debug/../src/picojpeg.c:1704
   uint8* pRDst = gMCUBufR + dstOfs;
80002f84:	dfc68693          	addi	a3,a3,-516 # 9000adfc <_sp+0xffffadfc>
C:\NucleiStudio_workspace3\simple_world\Debug/../src/picojpeg.c:1707
   int16* pSrc = gCoeffBuf;
80002f88:	87a2                	mv	a5,s0
C:\NucleiStudio_workspace3\simple_world\Debug/../src/picojpeg.c:1711
      uint8 c = (uint8)*pSrc++;
80002f8a:	0789                	addi	a5,a5,2
80002f8c:	ffe7c703          	lbu	a4,-2(a5)
C:\NucleiStudio_workspace3\simple_world\Debug/../src/picojpeg.c:1713
      *pRDst++ = c;
80002f90:	0685                	addi	a3,a3,1
C:\NucleiStudio_workspace3\simple_world\Debug/../src/picojpeg.c:1714
      *pGDst++ = c;
80002f92:	0605                	addi	a2,a2,1
C:\NucleiStudio_workspace3\simple_world\Debug/../src/picojpeg.c:1715
      *pBDst++ = c;
80002f94:	0585                	addi	a1,a1,1
C:\NucleiStudio_workspace3\simple_world\Debug/../src/picojpeg.c:1713
      *pRDst++ = c;
80002f96:	fee68fa3          	sb	a4,-1(a3)
C:\NucleiStudio_workspace3\simple_world\Debug/../src/picojpeg.c:1714
      *pGDst++ = c;
80002f9a:	fee60fa3          	sb	a4,-1(a2)
C:\NucleiStudio_workspace3\simple_world\Debug/../src/picojpeg.c:1715
      *pBDst++ = c;
80002f9e:	fee58fa3          	sb	a4,-1(a1)
C:\NucleiStudio_workspace3\simple_world\Debug/../src/picojpeg.c:1709
   for (i = 64; i > 0; i--)
80002fa2:	ffe794e3          	bne	a5,t5,80002f8a <pjpeg_decode_mcu+0x1342>
80002fa6:	91cff06f          	j	800020c2 <pjpeg_decode_mcu+0x47a>
C:\NucleiStudio_workspace3\simple_world\Debug/../src/picojpeg.c:1706
   uint8* pBDst = gMCUBufB + dstOfs;
80002faa:	9000b5b7          	lui	a1,0x9000b
C:\NucleiStudio_workspace3\simple_world\Debug/../src/picojpeg.c:1705
   uint8* pGDst = gMCUBufG + dstOfs;
80002fae:	9000b637          	lui	a2,0x9000b
C:\NucleiStudio_workspace3\simple_world\Debug/../src/picojpeg.c:1704
   uint8* pRDst = gMCUBufR + dstOfs;
80002fb2:	9000b6b7          	lui	a3,0x9000b
C:\NucleiStudio_workspace3\simple_world\Debug/../src/picojpeg.c:1706
   uint8* pBDst = gMCUBufB + dstOfs;
80002fb6:	bfc58593          	addi	a1,a1,-1028 # 9000abfc <_sp+0xffffabfc>
C:\NucleiStudio_workspace3\simple_world\Debug/../src/picojpeg.c:1705
   uint8* pGDst = gMCUBufG + dstOfs;
80002fba:	cfc60613          	addi	a2,a2,-772 # 9000acfc <_sp+0xffffacfc>
C:\NucleiStudio_workspace3\simple_world\Debug/../src/picojpeg.c:1704
   uint8* pRDst = gMCUBufR + dstOfs;
80002fbe:	dfc68693          	addi	a3,a3,-516 # 9000adfc <_sp+0xffffadfc>
C:\NucleiStudio_workspace3\simple_world\Debug/../src/picojpeg.c:1707
   int16* pSrc = gCoeffBuf;
80002fc2:	87a2                	mv	a5,s0
C:\NucleiStudio_workspace3\simple_world\Debug/../src/picojpeg.c:1711
      uint8 c = (uint8)*pSrc++;
80002fc4:	0789                	addi	a5,a5,2
80002fc6:	ffe7c703          	lbu	a4,-2(a5)
C:\NucleiStudio_workspace3\simple_world\Debug/../src/picojpeg.c:1713
      *pRDst++ = c;
80002fca:	0685                	addi	a3,a3,1
C:\NucleiStudio_workspace3\simple_world\Debug/../src/picojpeg.c:1714
      *pGDst++ = c;
80002fcc:	0605                	addi	a2,a2,1
C:\NucleiStudio_workspace3\simple_world\Debug/../src/picojpeg.c:1715
      *pBDst++ = c;
80002fce:	0585                	addi	a1,a1,1
C:\NucleiStudio_workspace3\simple_world\Debug/../src/picojpeg.c:1713
      *pRDst++ = c;
80002fd0:	fee68fa3          	sb	a4,-1(a3)
C:\NucleiStudio_workspace3\simple_world\Debug/../src/picojpeg.c:1714
      *pGDst++ = c;
80002fd4:	fee60fa3          	sb	a4,-1(a2)
C:\NucleiStudio_workspace3\simple_world\Debug/../src/picojpeg.c:1715
      *pBDst++ = c;
80002fd8:	fee58fa3          	sb	a4,-1(a1)
C:\NucleiStudio_workspace3\simple_world\Debug/../src/picojpeg.c:1709
   for (i = 64; i > 0; i--)
80002fdc:	ffe794e3          	bne	a5,t5,80002fc4 <pjpeg_decode_mcu+0x137c>
80002fe0:	8e2ff06f          	j	800020c2 <pjpeg_decode_mcu+0x47a>
convertCb():
C:\NucleiStudio_workspace3\simple_world\Debug/../src/picojpeg.c:1724
   uint8* pDstB = gMCUBufB + dstOfs;
80002fe4:	9000b5b7          	lui	a1,0x9000b
C:\NucleiStudio_workspace3\simple_world\Debug/../src/picojpeg.c:1723
   uint8* pDstG = gMCUBufG + dstOfs;
80002fe8:	9000b637          	lui	a2,0x9000b
C:\NucleiStudio_workspace3\simple_world\Debug/../src/picojpeg.c:1724
   uint8* pDstB = gMCUBufB + dstOfs;
80002fec:	bfc58593          	addi	a1,a1,-1028 # 9000abfc <_sp+0xffffabfc>
C:\NucleiStudio_workspace3\simple_world\Debug/../src/picojpeg.c:1723
   uint8* pDstG = gMCUBufG + dstOfs;
80002ff0:	cfc60613          	addi	a2,a2,-772 # 9000acfc <_sp+0xffffacfc>
C:\NucleiStudio_workspace3\simple_world\Debug/../src/picojpeg.c:1725
   int16* pSrc = gCoeffBuf;
80002ff4:	8522                	mv	a0,s0
C:\NucleiStudio_workspace3\simple_world\Debug/../src/picojpeg.c:1732
      cbG = ((cb * 88U) >> 8U) - 44U;
80002ff6:	05800e13          	li	t3,88
subAndClamp():
C:\NucleiStudio_workspace3\simple_world\Debug/../src/picojpeg.c:1469
   b = a - b;
80002ffa:	02c00313          	li	t1,44
C:\NucleiStudio_workspace3\simple_world\Debug/../src/picojpeg.c:1471
   if ((uint16)b > 255U)
80002ffe:	0ff00813          	li	a6,255
convertCb():
C:\NucleiStudio_workspace3\simple_world\Debug/../src/picojpeg.c:1735
      cbB = (cb + ((cb * 198U) >> 8U)) - 227U;
80003002:	0c600893          	li	a7,198
C:\NucleiStudio_workspace3\simple_world\Debug/../src/picojpeg.c:1729
      uint8 cb = (uint8)*pSrc++;
80003006:	0509                	addi	a0,a0,2
80003008:	ffe51703          	lh	a4,-2(a0)
C:\NucleiStudio_workspace3\simple_world\Debug/../src/picojpeg.c:1733
      *pDstG++ = subAndClamp(pDstG[0], cbG);
8000300c:	00064e83          	lbu	t4,0(a2)
80003010:	0605                	addi	a2,a2,1
C:\NucleiStudio_workspace3\simple_world\Debug/../src/picojpeg.c:1732
      cbG = ((cb * 88U) >> 8U) - 44U;
80003012:	0ff77793          	andi	a5,a4,255
80003016:	03c786b3          	mul	a3,a5,t3
8000301a:	82a1                	srli	a3,a3,0x8
subAndClamp():
C:\NucleiStudio_workspace3\simple_world\Debug/../src/picojpeg.c:1469
   b = a - b;
8000301c:	40d306b3          	sub	a3,t1,a3
80003020:	96f6                	add	a3,a3,t4
80003022:	06c2                	slli	a3,a3,0x10
80003024:	82c1                	srli	a3,a3,0x10
C:\NucleiStudio_workspace3\simple_world\Debug/../src/picojpeg.c:1471
   if ((uint16)b > 255U)
80003026:	00d87d63          	bgeu	a6,a3,80003040 <pjpeg_decode_mcu+0x13f8>
C:\NucleiStudio_workspace3\simple_world\Debug/../src/picojpeg.c:1469
   b = a - b;
8000302a:	01069f93          	slli	t6,a3,0x10
8000302e:	410fdf93          	srai	t6,t6,0x10
C:\NucleiStudio_workspace3\simple_world\Debug/../src/picojpeg.c:1474
         return 0;
80003032:	4e81                	li	t4,0
C:\NucleiStudio_workspace3\simple_world\Debug/../src/picojpeg.c:1473
      if (b < 0)
80003034:	000fc863          	bltz	t6,80003044 <pjpeg_decode_mcu+0x13fc>
C:\NucleiStudio_workspace3\simple_world\Debug/../src/picojpeg.c:1476
         return 255;
80003038:	0ff00e93          	li	t4,255
C:\NucleiStudio_workspace3\simple_world\Debug/../src/picojpeg.c:1475
      else if (b > 255)
8000303c:	01f84463          	blt	a6,t6,80003044 <pjpeg_decode_mcu+0x13fc>
C:\NucleiStudio_workspace3\simple_world\Debug/../src/picojpeg.c:1479
   return (uint8)b;
80003040:	0ff6fe93          	andi	t4,a3,255
convertCb():
C:\NucleiStudio_workspace3\simple_world\Debug/../src/picojpeg.c:1735
      cbB = (cb + ((cb * 198U) >> 8U)) - 227U;
80003044:	031786b3          	mul	a3,a5,a7
C:\NucleiStudio_workspace3\simple_world\Debug/../src/picojpeg.c:1736
      *pDstB++ = addAndClamp(pDstB[0], cbB);
80003048:	0005cf83          	lbu	t6,0(a1)
C:\NucleiStudio_workspace3\simple_world\Debug/../src/picojpeg.c:1735
      cbB = (cb + ((cb * 198U) >> 8U)) - 227U;
8000304c:	0ff77793          	andi	a5,a4,255
addAndClamp():
C:\NucleiStudio_workspace3\simple_world\Debug/../src/picojpeg.c:1454
   b = a + b;
80003050:	f1d78793          	addi	a5,a5,-227
convertCb():
C:\NucleiStudio_workspace3\simple_world\Debug/../src/picojpeg.c:1733
      *pDstG++ = subAndClamp(pDstG[0], cbG);
80003054:	ffd60fa3          	sb	t4,-1(a2)
C:\NucleiStudio_workspace3\simple_world\Debug/../src/picojpeg.c:1736
      *pDstB++ = addAndClamp(pDstB[0], cbB);
80003058:	0585                	addi	a1,a1,1
C:\NucleiStudio_workspace3\simple_world\Debug/../src/picojpeg.c:1735
      cbB = (cb + ((cb * 198U) >> 8U)) - 227U;
8000305a:	0086d713          	srli	a4,a3,0x8
addAndClamp():
C:\NucleiStudio_workspace3\simple_world\Debug/../src/picojpeg.c:1454
   b = a + b;
8000305e:	97ba                	add	a5,a5,a4
80003060:	97fe                	add	a5,a5,t6
80003062:	07c2                	slli	a5,a5,0x10
80003064:	83c1                	srli	a5,a5,0x10
C:\NucleiStudio_workspace3\simple_world\Debug/../src/picojpeg.c:1456
   if ((uint16)b > 255U)
80003066:	00f87c63          	bgeu	a6,a5,8000307e <pjpeg_decode_mcu+0x1436>
C:\NucleiStudio_workspace3\simple_world\Debug/../src/picojpeg.c:1454
   b = a + b;
8000306a:	01079693          	slli	a3,a5,0x10
8000306e:	86c1                	srai	a3,a3,0x10
C:\NucleiStudio_workspace3\simple_world\Debug/../src/picojpeg.c:1459
         return 0;
80003070:	4701                	li	a4,0
C:\NucleiStudio_workspace3\simple_world\Debug/../src/picojpeg.c:1458
      if (b < 0)
80003072:	0006c863          	bltz	a3,80003082 <pjpeg_decode_mcu+0x143a>
C:\NucleiStudio_workspace3\simple_world\Debug/../src/picojpeg.c:1461
         return 255;
80003076:	0ff00713          	li	a4,255
C:\NucleiStudio_workspace3\simple_world\Debug/../src/picojpeg.c:1460
      else if (b > 255)
8000307a:	00d84463          	blt	a6,a3,80003082 <pjpeg_decode_mcu+0x143a>
C:\NucleiStudio_workspace3\simple_world\Debug/../src/picojpeg.c:1464
   return (uint8)b;
8000307e:	0ff7f713          	andi	a4,a5,255
convertCb():
C:\NucleiStudio_workspace3\simple_world\Debug/../src/picojpeg.c:1736
      *pDstB++ = addAndClamp(pDstB[0], cbB);
80003082:	fee58fa3          	sb	a4,-1(a1)
C:\NucleiStudio_workspace3\simple_world\Debug/../src/picojpeg.c:1727
   for (i = 64; i > 0; i--)
80003086:	f9e510e3          	bne	a0,t5,80003006 <pjpeg_decode_mcu+0x13be>
8000308a:	838ff06f          	j	800020c2 <pjpeg_decode_mcu+0x47a>
copyY():
C:\NucleiStudio_workspace3\simple_world\Debug/../src/picojpeg.c:1706
   uint8* pBDst = gMCUBufB + dstOfs;
8000308e:	9000b5b7          	lui	a1,0x9000b
C:\NucleiStudio_workspace3\simple_world\Debug/../src/picojpeg.c:1705
   uint8* pGDst = gMCUBufG + dstOfs;
80003092:	9000b637          	lui	a2,0x9000b
C:\NucleiStudio_workspace3\simple_world\Debug/../src/picojpeg.c:1704
   uint8* pRDst = gMCUBufR + dstOfs;
80003096:	9000b6b7          	lui	a3,0x9000b
C:\NucleiStudio_workspace3\simple_world\Debug/../src/picojpeg.c:1706
   uint8* pBDst = gMCUBufB + dstOfs;
8000309a:	bfc58593          	addi	a1,a1,-1028 # 9000abfc <_sp+0xffffabfc>
C:\NucleiStudio_workspace3\simple_world\Debug/../src/picojpeg.c:1705
   uint8* pGDst = gMCUBufG + dstOfs;
8000309e:	cfc60613          	addi	a2,a2,-772 # 9000acfc <_sp+0xffffacfc>
C:\NucleiStudio_workspace3\simple_world\Debug/../src/picojpeg.c:1704
   uint8* pRDst = gMCUBufR + dstOfs;
800030a2:	dfc68693          	addi	a3,a3,-516 # 9000adfc <_sp+0xffffadfc>
C:\NucleiStudio_workspace3\simple_world\Debug/../src/picojpeg.c:1707
   int16* pSrc = gCoeffBuf;
800030a6:	87a2                	mv	a5,s0
C:\NucleiStudio_workspace3\simple_world\Debug/../src/picojpeg.c:1711
      uint8 c = (uint8)*pSrc++;
800030a8:	0789                	addi	a5,a5,2
800030aa:	ffe7c703          	lbu	a4,-2(a5)
C:\NucleiStudio_workspace3\simple_world\Debug/../src/picojpeg.c:1713
      *pRDst++ = c;
800030ae:	0685                	addi	a3,a3,1
C:\NucleiStudio_workspace3\simple_world\Debug/../src/picojpeg.c:1714
      *pGDst++ = c;
800030b0:	0605                	addi	a2,a2,1
C:\NucleiStudio_workspace3\simple_world\Debug/../src/picojpeg.c:1715
      *pBDst++ = c;
800030b2:	0585                	addi	a1,a1,1
C:\NucleiStudio_workspace3\simple_world\Debug/../src/picojpeg.c:1713
      *pRDst++ = c;
800030b4:	fee68fa3          	sb	a4,-1(a3)
C:\NucleiStudio_workspace3\simple_world\Debug/../src/picojpeg.c:1714
      *pGDst++ = c;
800030b8:	fee60fa3          	sb	a4,-1(a2)
C:\NucleiStudio_workspace3\simple_world\Debug/../src/picojpeg.c:1715
      *pBDst++ = c;
800030bc:	fee58fa3          	sb	a4,-1(a1)
C:\NucleiStudio_workspace3\simple_world\Debug/../src/picojpeg.c:1709
   for (i = 64; i > 0; i--)
800030c0:	ffe794e3          	bne	a5,t5,800030a8 <pjpeg_decode_mcu+0x1460>
800030c4:	ffffe06f          	j	800020c2 <pjpeg_decode_mcu+0x47a>
transformBlockReduce():
C:\NucleiStudio_workspace3\simple_world\Debug/../src/picojpeg.c:1935
               cbG = ((c * 88U) >> 8U) - 44U;
800030c8:	05800613          	li	a2,88
800030cc:	02c68633          	mul	a2,a3,a2
C:\NucleiStudio_workspace3\simple_world\Debug/../src/picojpeg.c:1936
               gMCUBufG[0] = subAndClamp(gMCUBufG[0], cbG);
800030d0:	9000b737          	lui	a4,0x9000b
800030d4:	cfc70713          	addi	a4,a4,-772 # 9000acfc <_sp+0xffffacfc>
subAndClamp():
C:\NucleiStudio_workspace3\simple_world\Debug/../src/picojpeg.c:1469
   b = a - b;
800030d8:	00074783          	lbu	a5,0(a4)
C:\NucleiStudio_workspace3\simple_world\Debug/../src/picojpeg.c:1471
   if ((uint16)b > 255U)
800030dc:	0ff00593          	li	a1,255
C:\NucleiStudio_workspace3\simple_world\Debug/../src/picojpeg.c:1469
   b = a - b;
800030e0:	02c78793          	addi	a5,a5,44
transformBlockReduce():
C:\NucleiStudio_workspace3\simple_world\Debug/../src/picojpeg.c:1935
               cbG = ((c * 88U) >> 8U) - 44U;
800030e4:	8221                	srli	a2,a2,0x8
subAndClamp():
C:\NucleiStudio_workspace3\simple_world\Debug/../src/picojpeg.c:1469
   b = a - b;
800030e6:	8f91                	sub	a5,a5,a2
800030e8:	07c2                	slli	a5,a5,0x10
800030ea:	83c1                	srli	a5,a5,0x10
C:\NucleiStudio_workspace3\simple_world\Debug/../src/picojpeg.c:1471
   if ((uint16)b > 255U)
800030ec:	00f5fc63          	bgeu	a1,a5,80003104 <pjpeg_decode_mcu+0x14bc>
C:\NucleiStudio_workspace3\simple_world\Debug/../src/picojpeg.c:1469
   b = a - b;
800030f0:	01079613          	slli	a2,a5,0x10
800030f4:	8641                	srai	a2,a2,0x10
C:\NucleiStudio_workspace3\simple_world\Debug/../src/picojpeg.c:1474
         return 0;
800030f6:	4501                	li	a0,0
C:\NucleiStudio_workspace3\simple_world\Debug/../src/picojpeg.c:1473
      if (b < 0)
800030f8:	00064863          	bltz	a2,80003108 <pjpeg_decode_mcu+0x14c0>
C:\NucleiStudio_workspace3\simple_world\Debug/../src/picojpeg.c:1476
         return 255;
800030fc:	0ff00513          	li	a0,255
C:\NucleiStudio_workspace3\simple_world\Debug/../src/picojpeg.c:1475
      else if (b > 255)
80003100:	00c54463          	blt	a0,a2,80003108 <pjpeg_decode_mcu+0x14c0>
C:\NucleiStudio_workspace3\simple_world\Debug/../src/picojpeg.c:1479
   return (uint8)b;
80003104:	0ff7f513          	andi	a0,a5,255
transformBlockReduce():
C:\NucleiStudio_workspace3\simple_world\Debug/../src/picojpeg.c:1938
               cbB = (c + ((c * 198U) >> 8U)) - 227U;
80003108:	0c600593          	li	a1,198
8000310c:	02b685b3          	mul	a1,a3,a1
C:\NucleiStudio_workspace3\simple_world\Debug/../src/picojpeg.c:1939
               gMCUBufB[0] = addAndClamp(gMCUBufB[0], cbB);
80003110:	9000b637          	lui	a2,0x9000b
80003114:	bfc60613          	addi	a2,a2,-1028 # 9000abfc <_sp+0xffffabfc>
addAndClamp():
C:\NucleiStudio_workspace3\simple_world\Debug/../src/picojpeg.c:1454
   b = a + b;
80003118:	00064783          	lbu	a5,0(a2)
transformBlockReduce():
C:\NucleiStudio_workspace3\simple_world\Debug/../src/picojpeg.c:1936
               gMCUBufG[0] = subAndClamp(gMCUBufG[0], cbG);
8000311c:	00a70023          	sb	a0,0(a4)
addAndClamp():
C:\NucleiStudio_workspace3\simple_world\Debug/../src/picojpeg.c:1456
   if ((uint16)b > 255U)
80003120:	0ff00713          	li	a4,255
C:\NucleiStudio_workspace3\simple_world\Debug/../src/picojpeg.c:1454
   b = a + b;
80003124:	f1d78793          	addi	a5,a5,-227
80003128:	97b6                	add	a5,a5,a3
transformBlockReduce():
C:\NucleiStudio_workspace3\simple_world\Debug/../src/picojpeg.c:1938
               cbB = (c + ((c * 198U) >> 8U)) - 227U;
8000312a:	0085d693          	srli	a3,a1,0x8
addAndClamp():
C:\NucleiStudio_workspace3\simple_world\Debug/../src/picojpeg.c:1454
   b = a + b;
8000312e:	97b6                	add	a5,a5,a3
80003130:	07c2                	slli	a5,a5,0x10
80003132:	83c1                	srli	a5,a5,0x10
C:\NucleiStudio_workspace3\simple_world\Debug/../src/picojpeg.c:1456
   if ((uint16)b > 255U)
80003134:	00f77c63          	bgeu	a4,a5,8000314c <pjpeg_decode_mcu+0x1504>
C:\NucleiStudio_workspace3\simple_world\Debug/../src/picojpeg.c:1454
   b = a + b;
80003138:	01079693          	slli	a3,a5,0x10
8000313c:	86c1                	srai	a3,a3,0x10
C:\NucleiStudio_workspace3\simple_world\Debug/../src/picojpeg.c:1459
         return 0;
8000313e:	4701                	li	a4,0
C:\NucleiStudio_workspace3\simple_world\Debug/../src/picojpeg.c:1458
      if (b < 0)
80003140:	0006c863          	bltz	a3,80003150 <pjpeg_decode_mcu+0x1508>
C:\NucleiStudio_workspace3\simple_world\Debug/../src/picojpeg.c:1461
         return 255;
80003144:	0ff00713          	li	a4,255
C:\NucleiStudio_workspace3\simple_world\Debug/../src/picojpeg.c:1460
      else if (b > 255)
80003148:	00d74463          	blt	a4,a3,80003150 <pjpeg_decode_mcu+0x1508>
C:\NucleiStudio_workspace3\simple_world\Debug/../src/picojpeg.c:1464
   return (uint8)b;
8000314c:	0ff7f713          	andi	a4,a5,255
transformBlockReduce():
C:\NucleiStudio_workspace3\simple_world\Debug/../src/picojpeg.c:1939
               gMCUBufB[0] = addAndClamp(gMCUBufB[0], cbB);
80003150:	00e60023          	sb	a4,0(a2)
C:\NucleiStudio_workspace3\simple_world\Debug/../src/picojpeg.c:1940
               break;
80003154:	f6ffe06f          	j	800020c2 <pjpeg_decode_mcu+0x47a>
copyY():
C:\NucleiStudio_workspace3\simple_world\Debug/../src/picojpeg.c:1706
   uint8* pBDst = gMCUBufB + dstOfs;
80003158:	9000b5b7          	lui	a1,0x9000b
C:\NucleiStudio_workspace3\simple_world\Debug/../src/picojpeg.c:1705
   uint8* pGDst = gMCUBufG + dstOfs;
8000315c:	9000b637          	lui	a2,0x9000b
C:\NucleiStudio_workspace3\simple_world\Debug/../src/picojpeg.c:1704
   uint8* pRDst = gMCUBufR + dstOfs;
80003160:	9000b6b7          	lui	a3,0x9000b
C:\NucleiStudio_workspace3\simple_world\Debug/../src/picojpeg.c:1706
   uint8* pBDst = gMCUBufB + dstOfs;
80003164:	c3c58593          	addi	a1,a1,-964 # 9000ac3c <_sp+0xffffac3c>
C:\NucleiStudio_workspace3\simple_world\Debug/../src/picojpeg.c:1705
   uint8* pGDst = gMCUBufG + dstOfs;
80003168:	d3c60613          	addi	a2,a2,-708 # 9000ad3c <_sp+0xffffad3c>
C:\NucleiStudio_workspace3\simple_world\Debug/../src/picojpeg.c:1704
   uint8* pRDst = gMCUBufR + dstOfs;
8000316c:	e3c68693          	addi	a3,a3,-452 # 9000ae3c <_sp+0xffffae3c>
C:\NucleiStudio_workspace3\simple_world\Debug/../src/picojpeg.c:1707
   int16* pSrc = gCoeffBuf;
80003170:	87a2                	mv	a5,s0
C:\NucleiStudio_workspace3\simple_world\Debug/../src/picojpeg.c:1711
      uint8 c = (uint8)*pSrc++;
80003172:	0789                	addi	a5,a5,2
80003174:	ffe7c703          	lbu	a4,-2(a5)
C:\NucleiStudio_workspace3\simple_world\Debug/../src/picojpeg.c:1713
      *pRDst++ = c;
80003178:	0685                	addi	a3,a3,1
C:\NucleiStudio_workspace3\simple_world\Debug/../src/picojpeg.c:1714
      *pGDst++ = c;
8000317a:	0605                	addi	a2,a2,1
C:\NucleiStudio_workspace3\simple_world\Debug/../src/picojpeg.c:1715
      *pBDst++ = c;
8000317c:	0585                	addi	a1,a1,1
C:\NucleiStudio_workspace3\simple_world\Debug/../src/picojpeg.c:1713
      *pRDst++ = c;
8000317e:	fee68fa3          	sb	a4,-1(a3)
C:\NucleiStudio_workspace3\simple_world\Debug/../src/picojpeg.c:1714
      *pGDst++ = c;
80003182:	fee60fa3          	sb	a4,-1(a2)
C:\NucleiStudio_workspace3\simple_world\Debug/../src/picojpeg.c:1715
      *pBDst++ = c;
80003186:	fee58fa3          	sb	a4,-1(a1)
C:\NucleiStudio_workspace3\simple_world\Debug/../src/picojpeg.c:1709
   for (i = 64; i > 0; i--)
8000318a:	ffe794e3          	bne	a5,t5,80003172 <pjpeg_decode_mcu+0x152a>
8000318e:	f35fe06f          	j	800020c2 <pjpeg_decode_mcu+0x47a>
C:\NucleiStudio_workspace3\simple_world\Debug/../src/picojpeg.c:1706
   uint8* pBDst = gMCUBufB + dstOfs;
80003192:	9000b5b7          	lui	a1,0x9000b
C:\NucleiStudio_workspace3\simple_world\Debug/../src/picojpeg.c:1705
   uint8* pGDst = gMCUBufG + dstOfs;
80003196:	9000b637          	lui	a2,0x9000b
C:\NucleiStudio_workspace3\simple_world\Debug/../src/picojpeg.c:1704
   uint8* pRDst = gMCUBufR + dstOfs;
8000319a:	9000b6b7          	lui	a3,0x9000b
C:\NucleiStudio_workspace3\simple_world\Debug/../src/picojpeg.c:1706
   uint8* pBDst = gMCUBufB + dstOfs;
8000319e:	c7c58593          	addi	a1,a1,-900 # 9000ac7c <_sp+0xffffac7c>
C:\NucleiStudio_workspace3\simple_world\Debug/../src/picojpeg.c:1705
   uint8* pGDst = gMCUBufG + dstOfs;
800031a2:	d7c60613          	addi	a2,a2,-644 # 9000ad7c <_sp+0xffffad7c>
C:\NucleiStudio_workspace3\simple_world\Debug/../src/picojpeg.c:1704
   uint8* pRDst = gMCUBufR + dstOfs;
800031a6:	e7c68693          	addi	a3,a3,-388 # 9000ae7c <_sp+0xffffae7c>
C:\NucleiStudio_workspace3\simple_world\Debug/../src/picojpeg.c:1707
   int16* pSrc = gCoeffBuf;
800031aa:	87a2                	mv	a5,s0
C:\NucleiStudio_workspace3\simple_world\Debug/../src/picojpeg.c:1711
      uint8 c = (uint8)*pSrc++;
800031ac:	0789                	addi	a5,a5,2
800031ae:	ffe7c703          	lbu	a4,-2(a5)
C:\NucleiStudio_workspace3\simple_world\Debug/../src/picojpeg.c:1713
      *pRDst++ = c;
800031b2:	0685                	addi	a3,a3,1
C:\NucleiStudio_workspace3\simple_world\Debug/../src/picojpeg.c:1714
      *pGDst++ = c;
800031b4:	0605                	addi	a2,a2,1
C:\NucleiStudio_workspace3\simple_world\Debug/../src/picojpeg.c:1715
      *pBDst++ = c;
800031b6:	0585                	addi	a1,a1,1
C:\NucleiStudio_workspace3\simple_world\Debug/../src/picojpeg.c:1713
      *pRDst++ = c;
800031b8:	fee68fa3          	sb	a4,-1(a3)
C:\NucleiStudio_workspace3\simple_world\Debug/../src/picojpeg.c:1714
      *pGDst++ = c;
800031bc:	fee60fa3          	sb	a4,-1(a2)
C:\NucleiStudio_workspace3\simple_world\Debug/../src/picojpeg.c:1715
      *pBDst++ = c;
800031c0:	fee58fa3          	sb	a4,-1(a1)
C:\NucleiStudio_workspace3\simple_world\Debug/../src/picojpeg.c:1709
   for (i = 64; i > 0; i--)
800031c4:	ffe794e3          	bne	a5,t5,800031ac <pjpeg_decode_mcu+0x1564>
800031c8:	efbfe06f          	j	800020c2 <pjpeg_decode_mcu+0x47a>
transformBlock():
C:\NucleiStudio_workspace3\simple_world\Debug/../src/picojpeg.c:1815
               upsampleCbV(0, 0);
800031cc:	4581                	li	a1,0
800031ce:	4501                	li	a0,0
800031d0:	ec1fd0ef          	jal	ra,80001090 <upsampleCbV>
C:\NucleiStudio_workspace3\simple_world\Debug/../src/picojpeg.c:1816
               upsampleCbV(4*8, 128);
800031d4:	08000593          	li	a1,128
800031d8:	02000513          	li	a0,32
800031dc:	eb5fd0ef          	jal	ra,80001090 <upsampleCbV>
C:\NucleiStudio_workspace3\simple_world\Debug/../src/picojpeg.c:1817
               break;
800031e0:	ee3fe06f          	j	800020c2 <pjpeg_decode_mcu+0x47a>
C:\NucleiStudio_workspace3\simple_world\Debug/../src/picojpeg.c:1846
               upsampleCbH(0, 0);
800031e4:	4581                	li	a1,0
800031e6:	4501                	li	a0,0
800031e8:	d77fd0ef          	jal	ra,80000f5e <upsampleCbH>
C:\NucleiStudio_workspace3\simple_world\Debug/../src/picojpeg.c:1847
               upsampleCbH(4, 64);
800031ec:	04000593          	li	a1,64
800031f0:	4511                	li	a0,4
800031f2:	d6dfd0ef          	jal	ra,80000f5e <upsampleCbH>
C:\NucleiStudio_workspace3\simple_world\Debug/../src/picojpeg.c:1848
               break;
800031f6:	ecdfe06f          	j	800020c2 <pjpeg_decode_mcu+0x47a>
transformBlockReduce():
C:\NucleiStudio_workspace3\simple_world\Debug/../src/picojpeg.c:2022
               cbG = ((c * 88U) >> 8U) - 44U;
800031fa:	05800793          	li	a5,88
800031fe:	02f687b3          	mul	a5,a3,a5
C:\NucleiStudio_workspace3\simple_world\Debug/../src/picojpeg.c:2023
               gMCUBufG[0] = subAndClamp(gMCUBufG[0], cbG);
80003202:	9000b737          	lui	a4,0x9000b
80003206:	cfc70713          	addi	a4,a4,-772 # 9000acfc <_sp+0xffffacfc>
subAndClamp():
C:\NucleiStudio_workspace3\simple_world\Debug/../src/picojpeg.c:1469
   b = a - b;
8000320a:	00074603          	lbu	a2,0(a4)
C:\NucleiStudio_workspace3\simple_world\Debug/../src/picojpeg.c:1471
   if ((uint16)b > 255U)
8000320e:	0ff00593          	li	a1,255
transformBlockReduce():
C:\NucleiStudio_workspace3\simple_world\Debug/../src/picojpeg.c:2022
               cbG = ((c * 88U) >> 8U) - 44U;
80003212:	83a1                	srli	a5,a5,0x8
80003214:	fd478793          	addi	a5,a5,-44
80003218:	07c2                	slli	a5,a5,0x10
8000321a:	83c1                	srli	a5,a5,0x10
subAndClamp():
C:\NucleiStudio_workspace3\simple_world\Debug/../src/picojpeg.c:1469
   b = a - b;
8000321c:	8e1d                	sub	a2,a2,a5
8000321e:	0642                	slli	a2,a2,0x10
80003220:	8241                	srli	a2,a2,0x10
C:\NucleiStudio_workspace3\simple_world\Debug/../src/picojpeg.c:1471
   if ((uint16)b > 255U)
80003222:	00c5fc63          	bgeu	a1,a2,8000323a <pjpeg_decode_mcu+0x15f2>
C:\NucleiStudio_workspace3\simple_world\Debug/../src/picojpeg.c:1469
   b = a - b;
80003226:	01061513          	slli	a0,a2,0x10
8000322a:	8541                	srai	a0,a0,0x10
C:\NucleiStudio_workspace3\simple_world\Debug/../src/picojpeg.c:1474
         return 0;
8000322c:	4581                	li	a1,0
C:\NucleiStudio_workspace3\simple_world\Debug/../src/picojpeg.c:1473
      if (b < 0)
8000322e:	00054863          	bltz	a0,8000323e <pjpeg_decode_mcu+0x15f6>
C:\NucleiStudio_workspace3\simple_world\Debug/../src/picojpeg.c:1476
         return 255;
80003232:	0ff00593          	li	a1,255
C:\NucleiStudio_workspace3\simple_world\Debug/../src/picojpeg.c:1475
      else if (b > 255)
80003236:	00a5c463          	blt	a1,a0,8000323e <pjpeg_decode_mcu+0x15f6>
C:\NucleiStudio_workspace3\simple_world\Debug/../src/picojpeg.c:1479
   return (uint8)b;
8000323a:	0ff67593          	andi	a1,a2,255
C:\NucleiStudio_workspace3\simple_world\Debug/../src/picojpeg.c:1469
   b = a - b;
8000323e:	04074603          	lbu	a2,64(a4)
transformBlockReduce():
C:\NucleiStudio_workspace3\simple_world\Debug/../src/picojpeg.c:2023
               gMCUBufG[0] = subAndClamp(gMCUBufG[0], cbG);
80003242:	00b70023          	sb	a1,0(a4)
subAndClamp():
C:\NucleiStudio_workspace3\simple_world\Debug/../src/picojpeg.c:1471
   if ((uint16)b > 255U)
80003246:	0ff00593          	li	a1,255
C:\NucleiStudio_workspace3\simple_world\Debug/../src/picojpeg.c:1469
   b = a - b;
8000324a:	40f607b3          	sub	a5,a2,a5
8000324e:	07c2                	slli	a5,a5,0x10
80003250:	83c1                	srli	a5,a5,0x10
C:\NucleiStudio_workspace3\simple_world\Debug/../src/picojpeg.c:1471
   if ((uint16)b > 255U)
80003252:	00f5fc63          	bgeu	a1,a5,8000326a <pjpeg_decode_mcu+0x1622>
C:\NucleiStudio_workspace3\simple_world\Debug/../src/picojpeg.c:1469
   b = a - b;
80003256:	01079613          	slli	a2,a5,0x10
8000325a:	8641                	srai	a2,a2,0x10
C:\NucleiStudio_workspace3\simple_world\Debug/../src/picojpeg.c:1474
         return 0;
8000325c:	4501                	li	a0,0
C:\NucleiStudio_workspace3\simple_world\Debug/../src/picojpeg.c:1473
      if (b < 0)
8000325e:	00064863          	bltz	a2,8000326e <pjpeg_decode_mcu+0x1626>
C:\NucleiStudio_workspace3\simple_world\Debug/../src/picojpeg.c:1476
         return 255;
80003262:	0ff00513          	li	a0,255
C:\NucleiStudio_workspace3\simple_world\Debug/../src/picojpeg.c:1475
      else if (b > 255)
80003266:	00c54463          	blt	a0,a2,8000326e <pjpeg_decode_mcu+0x1626>
C:\NucleiStudio_workspace3\simple_world\Debug/../src/picojpeg.c:1479
   return (uint8)b;
8000326a:	0ff7f513          	andi	a0,a5,255
transformBlockReduce():
C:\NucleiStudio_workspace3\simple_world\Debug/../src/picojpeg.c:2026
               cbB = (c + ((c * 198U) >> 8U)) - 227U;
8000326e:	0c600793          	li	a5,198
80003272:	02f687b3          	mul	a5,a3,a5
C:\NucleiStudio_workspace3\simple_world\Debug/../src/picojpeg.c:2027
               gMCUBufB[0] = addAndClamp(gMCUBufB[0], cbB);
80003276:	9000b637          	lui	a2,0x9000b
8000327a:	bfc60613          	addi	a2,a2,-1028 # 9000abfc <_sp+0xffffabfc>
C:\NucleiStudio_workspace3\simple_world\Debug/../src/picojpeg.c:2026
               cbB = (c + ((c * 198U) >> 8U)) - 227U;
8000327e:	f1d68693          	addi	a3,a3,-227
addAndClamp():
C:\NucleiStudio_workspace3\simple_world\Debug/../src/picojpeg.c:1454
   b = a + b;
80003282:	00064583          	lbu	a1,0(a2)
transformBlockReduce():
C:\NucleiStudio_workspace3\simple_world\Debug/../src/picojpeg.c:2024
               gMCUBufG[64] = subAndClamp(gMCUBufG[64], cbG);
80003286:	04a70023          	sb	a0,64(a4)
addAndClamp():
C:\NucleiStudio_workspace3\simple_world\Debug/../src/picojpeg.c:1456
   if ((uint16)b > 255U)
8000328a:	0ff00513          	li	a0,255
transformBlockReduce():
C:\NucleiStudio_workspace3\simple_world\Debug/../src/picojpeg.c:2026
               cbB = (c + ((c * 198U) >> 8U)) - 227U;
8000328e:	83a1                	srli	a5,a5,0x8
80003290:	97b6                	add	a5,a5,a3
80003292:	07c2                	slli	a5,a5,0x10
80003294:	83c1                	srli	a5,a5,0x10
addAndClamp():
C:\NucleiStudio_workspace3\simple_world\Debug/../src/picojpeg.c:1454
   b = a + b;
80003296:	00b78733          	add	a4,a5,a1
8000329a:	0742                	slli	a4,a4,0x10
8000329c:	8341                	srli	a4,a4,0x10
C:\NucleiStudio_workspace3\simple_world\Debug/../src/picojpeg.c:1456
   if ((uint16)b > 255U)
8000329e:	00e57c63          	bgeu	a0,a4,800032b6 <pjpeg_decode_mcu+0x166e>
C:\NucleiStudio_workspace3\simple_world\Debug/../src/picojpeg.c:1454
   b = a + b;
800032a2:	01071593          	slli	a1,a4,0x10
800032a6:	85c1                	srai	a1,a1,0x10
C:\NucleiStudio_workspace3\simple_world\Debug/../src/picojpeg.c:1459
         return 0;
800032a8:	4681                	li	a3,0
C:\NucleiStudio_workspace3\simple_world\Debug/../src/picojpeg.c:1458
      if (b < 0)
800032aa:	0005c863          	bltz	a1,800032ba <pjpeg_decode_mcu+0x1672>
C:\NucleiStudio_workspace3\simple_world\Debug/../src/picojpeg.c:1461
         return 255;
800032ae:	0ff00693          	li	a3,255
C:\NucleiStudio_workspace3\simple_world\Debug/../src/picojpeg.c:1460
      else if (b > 255)
800032b2:	00b6c463          	blt	a3,a1,800032ba <pjpeg_decode_mcu+0x1672>
C:\NucleiStudio_workspace3\simple_world\Debug/../src/picojpeg.c:1464
   return (uint8)b;
800032b6:	0ff77693          	andi	a3,a4,255
C:\NucleiStudio_workspace3\simple_world\Debug/../src/picojpeg.c:1454
   b = a + b;
800032ba:	04064583          	lbu	a1,64(a2)
transformBlockReduce():
C:\NucleiStudio_workspace3\simple_world\Debug/../src/picojpeg.c:2027
               gMCUBufB[0] = addAndClamp(gMCUBufB[0], cbB);
800032be:	00d60023          	sb	a3,0(a2)
addAndClamp():
C:\NucleiStudio_workspace3\simple_world\Debug/../src/picojpeg.c:1456
   if ((uint16)b > 255U)
800032c2:	0ff00713          	li	a4,255
C:\NucleiStudio_workspace3\simple_world\Debug/../src/picojpeg.c:1454
   b = a + b;
800032c6:	97ae                	add	a5,a5,a1
800032c8:	07c2                	slli	a5,a5,0x10
800032ca:	83c1                	srli	a5,a5,0x10
C:\NucleiStudio_workspace3\simple_world\Debug/../src/picojpeg.c:1456
   if ((uint16)b > 255U)
800032cc:	00f77c63          	bgeu	a4,a5,800032e4 <pjpeg_decode_mcu+0x169c>
C:\NucleiStudio_workspace3\simple_world\Debug/../src/picojpeg.c:1454
   b = a + b;
800032d0:	01079693          	slli	a3,a5,0x10
800032d4:	86c1                	srai	a3,a3,0x10
C:\NucleiStudio_workspace3\simple_world\Debug/../src/picojpeg.c:1459
         return 0;
800032d6:	4701                	li	a4,0
C:\NucleiStudio_workspace3\simple_world\Debug/../src/picojpeg.c:1458
      if (b < 0)
800032d8:	0006c863          	bltz	a3,800032e8 <pjpeg_decode_mcu+0x16a0>
C:\NucleiStudio_workspace3\simple_world\Debug/../src/picojpeg.c:1461
         return 255;
800032dc:	0ff00713          	li	a4,255
C:\NucleiStudio_workspace3\simple_world\Debug/../src/picojpeg.c:1460
      else if (b > 255)
800032e0:	00d74463          	blt	a4,a3,800032e8 <pjpeg_decode_mcu+0x16a0>
C:\NucleiStudio_workspace3\simple_world\Debug/../src/picojpeg.c:1464
   return (uint8)b;
800032e4:	0ff7f713          	andi	a4,a5,255
transformBlockReduce():
C:\NucleiStudio_workspace3\simple_world\Debug/../src/picojpeg.c:2028
               gMCUBufB[64] = addAndClamp(gMCUBufB[64], cbB);
800032e8:	04e60023          	sb	a4,64(a2)
C:\NucleiStudio_workspace3\simple_world\Debug/../src/picojpeg.c:2030
               break;
800032ec:	dd7fe06f          	j	800020c2 <pjpeg_decode_mcu+0x47a>
C:\NucleiStudio_workspace3\simple_world\Debug/../src/picojpeg.c:1976
               cbG = ((c * 88U) >> 8U) - 44U;
800032f0:	05800793          	li	a5,88
800032f4:	02f687b3          	mul	a5,a3,a5
C:\NucleiStudio_workspace3\simple_world\Debug/../src/picojpeg.c:1977
               gMCUBufG[0] = subAndClamp(gMCUBufG[0], cbG);
800032f8:	9000b737          	lui	a4,0x9000b
800032fc:	cfc70713          	addi	a4,a4,-772 # 9000acfc <_sp+0xffffacfc>
subAndClamp():
C:\NucleiStudio_workspace3\simple_world\Debug/../src/picojpeg.c:1469
   b = a - b;
80003300:	00074603          	lbu	a2,0(a4)
C:\NucleiStudio_workspace3\simple_world\Debug/../src/picojpeg.c:1471
   if ((uint16)b > 255U)
80003304:	0ff00593          	li	a1,255
transformBlockReduce():
C:\NucleiStudio_workspace3\simple_world\Debug/../src/picojpeg.c:1976
               cbG = ((c * 88U) >> 8U) - 44U;
80003308:	83a1                	srli	a5,a5,0x8
8000330a:	fd478793          	addi	a5,a5,-44
8000330e:	07c2                	slli	a5,a5,0x10
80003310:	83c1                	srli	a5,a5,0x10
subAndClamp():
C:\NucleiStudio_workspace3\simple_world\Debug/../src/picojpeg.c:1469
   b = a - b;
80003312:	8e1d                	sub	a2,a2,a5
80003314:	0642                	slli	a2,a2,0x10
80003316:	8241                	srli	a2,a2,0x10
C:\NucleiStudio_workspace3\simple_world\Debug/../src/picojpeg.c:1471
   if ((uint16)b > 255U)
80003318:	00c5fc63          	bgeu	a1,a2,80003330 <pjpeg_decode_mcu+0x16e8>
C:\NucleiStudio_workspace3\simple_world\Debug/../src/picojpeg.c:1469
   b = a - b;
8000331c:	01061513          	slli	a0,a2,0x10
80003320:	8541                	srai	a0,a0,0x10
C:\NucleiStudio_workspace3\simple_world\Debug/../src/picojpeg.c:1474
         return 0;
80003322:	4581                	li	a1,0
C:\NucleiStudio_workspace3\simple_world\Debug/../src/picojpeg.c:1473
      if (b < 0)
80003324:	00054863          	bltz	a0,80003334 <pjpeg_decode_mcu+0x16ec>
C:\NucleiStudio_workspace3\simple_world\Debug/../src/picojpeg.c:1476
         return 255;
80003328:	0ff00593          	li	a1,255
C:\NucleiStudio_workspace3\simple_world\Debug/../src/picojpeg.c:1475
      else if (b > 255)
8000332c:	00a5c463          	blt	a1,a0,80003334 <pjpeg_decode_mcu+0x16ec>
C:\NucleiStudio_workspace3\simple_world\Debug/../src/picojpeg.c:1479
   return (uint8)b;
80003330:	0ff67593          	andi	a1,a2,255
C:\NucleiStudio_workspace3\simple_world\Debug/../src/picojpeg.c:1469
   b = a - b;
80003334:	08074603          	lbu	a2,128(a4)
transformBlockReduce():
C:\NucleiStudio_workspace3\simple_world\Debug/../src/picojpeg.c:1977
               gMCUBufG[0] = subAndClamp(gMCUBufG[0], cbG);
80003338:	00b70023          	sb	a1,0(a4)
subAndClamp():
C:\NucleiStudio_workspace3\simple_world\Debug/../src/picojpeg.c:1471
   if ((uint16)b > 255U)
8000333c:	0ff00593          	li	a1,255
C:\NucleiStudio_workspace3\simple_world\Debug/../src/picojpeg.c:1469
   b = a - b;
80003340:	40f607b3          	sub	a5,a2,a5
80003344:	07c2                	slli	a5,a5,0x10
80003346:	83c1                	srli	a5,a5,0x10
C:\NucleiStudio_workspace3\simple_world\Debug/../src/picojpeg.c:1471
   if ((uint16)b > 255U)
80003348:	00f5fc63          	bgeu	a1,a5,80003360 <pjpeg_decode_mcu+0x1718>
C:\NucleiStudio_workspace3\simple_world\Debug/../src/picojpeg.c:1469
   b = a - b;
8000334c:	01079613          	slli	a2,a5,0x10
80003350:	8641                	srai	a2,a2,0x10
C:\NucleiStudio_workspace3\simple_world\Debug/../src/picojpeg.c:1474
         return 0;
80003352:	4501                	li	a0,0
C:\NucleiStudio_workspace3\simple_world\Debug/../src/picojpeg.c:1473
      if (b < 0)
80003354:	00064863          	bltz	a2,80003364 <pjpeg_decode_mcu+0x171c>
C:\NucleiStudio_workspace3\simple_world\Debug/../src/picojpeg.c:1476
         return 255;
80003358:	0ff00513          	li	a0,255
C:\NucleiStudio_workspace3\simple_world\Debug/../src/picojpeg.c:1475
      else if (b > 255)
8000335c:	00c54463          	blt	a0,a2,80003364 <pjpeg_decode_mcu+0x171c>
C:\NucleiStudio_workspace3\simple_world\Debug/../src/picojpeg.c:1479
   return (uint8)b;
80003360:	0ff7f513          	andi	a0,a5,255
transformBlockReduce():
C:\NucleiStudio_workspace3\simple_world\Debug/../src/picojpeg.c:1980
               cbB = (c + ((c * 198U) >> 8U)) - 227U;
80003364:	0c600793          	li	a5,198
80003368:	02f687b3          	mul	a5,a3,a5
C:\NucleiStudio_workspace3\simple_world\Debug/../src/picojpeg.c:1981
               gMCUBufB[0] = addAndClamp(gMCUBufB[0], cbB);
8000336c:	9000b637          	lui	a2,0x9000b
80003370:	bfc60613          	addi	a2,a2,-1028 # 9000abfc <_sp+0xffffabfc>
C:\NucleiStudio_workspace3\simple_world\Debug/../src/picojpeg.c:1980
               cbB = (c + ((c * 198U) >> 8U)) - 227U;
80003374:	f1d68693          	addi	a3,a3,-227
addAndClamp():
C:\NucleiStudio_workspace3\simple_world\Debug/../src/picojpeg.c:1454
   b = a + b;
80003378:	00064583          	lbu	a1,0(a2)
transformBlockReduce():
C:\NucleiStudio_workspace3\simple_world\Debug/../src/picojpeg.c:1978
               gMCUBufG[128] = subAndClamp(gMCUBufG[128], cbG);
8000337c:	08a70023          	sb	a0,128(a4)
addAndClamp():
C:\NucleiStudio_workspace3\simple_world\Debug/../src/picojpeg.c:1456
   if ((uint16)b > 255U)
80003380:	0ff00513          	li	a0,255
transformBlockReduce():
C:\NucleiStudio_workspace3\simple_world\Debug/../src/picojpeg.c:1980
               cbB = (c + ((c * 198U) >> 8U)) - 227U;
80003384:	83a1                	srli	a5,a5,0x8
80003386:	97b6                	add	a5,a5,a3
80003388:	07c2                	slli	a5,a5,0x10
8000338a:	83c1                	srli	a5,a5,0x10
addAndClamp():
C:\NucleiStudio_workspace3\simple_world\Debug/../src/picojpeg.c:1454
   b = a + b;
8000338c:	00b78733          	add	a4,a5,a1
80003390:	0742                	slli	a4,a4,0x10
80003392:	8341                	srli	a4,a4,0x10
C:\NucleiStudio_workspace3\simple_world\Debug/../src/picojpeg.c:1456
   if ((uint16)b > 255U)
80003394:	00e57c63          	bgeu	a0,a4,800033ac <pjpeg_decode_mcu+0x1764>
C:\NucleiStudio_workspace3\simple_world\Debug/../src/picojpeg.c:1454
   b = a + b;
80003398:	01071593          	slli	a1,a4,0x10
8000339c:	85c1                	srai	a1,a1,0x10
C:\NucleiStudio_workspace3\simple_world\Debug/../src/picojpeg.c:1459
         return 0;
8000339e:	4681                	li	a3,0
C:\NucleiStudio_workspace3\simple_world\Debug/../src/picojpeg.c:1458
      if (b < 0)
800033a0:	0005c863          	bltz	a1,800033b0 <pjpeg_decode_mcu+0x1768>
C:\NucleiStudio_workspace3\simple_world\Debug/../src/picojpeg.c:1461
         return 255;
800033a4:	0ff00693          	li	a3,255
C:\NucleiStudio_workspace3\simple_world\Debug/../src/picojpeg.c:1460
      else if (b > 255)
800033a8:	00b6c463          	blt	a3,a1,800033b0 <pjpeg_decode_mcu+0x1768>
C:\NucleiStudio_workspace3\simple_world\Debug/../src/picojpeg.c:1464
   return (uint8)b;
800033ac:	0ff77693          	andi	a3,a4,255
C:\NucleiStudio_workspace3\simple_world\Debug/../src/picojpeg.c:1454
   b = a + b;
800033b0:	08064583          	lbu	a1,128(a2)
transformBlockReduce():
C:\NucleiStudio_workspace3\simple_world\Debug/../src/picojpeg.c:1981
               gMCUBufB[0] = addAndClamp(gMCUBufB[0], cbB);
800033b4:	00d60023          	sb	a3,0(a2)
addAndClamp():
C:\NucleiStudio_workspace3\simple_world\Debug/../src/picojpeg.c:1456
   if ((uint16)b > 255U)
800033b8:	0ff00713          	li	a4,255
C:\NucleiStudio_workspace3\simple_world\Debug/../src/picojpeg.c:1454
   b = a + b;
800033bc:	97ae                	add	a5,a5,a1
800033be:	07c2                	slli	a5,a5,0x10
800033c0:	83c1                	srli	a5,a5,0x10
C:\NucleiStudio_workspace3\simple_world\Debug/../src/picojpeg.c:1456
   if ((uint16)b > 255U)
800033c2:	00f77c63          	bgeu	a4,a5,800033da <pjpeg_decode_mcu+0x1792>
C:\NucleiStudio_workspace3\simple_world\Debug/../src/picojpeg.c:1454
   b = a + b;
800033c6:	01079693          	slli	a3,a5,0x10
800033ca:	86c1                	srai	a3,a3,0x10
C:\NucleiStudio_workspace3\simple_world\Debug/../src/picojpeg.c:1459
         return 0;
800033cc:	4701                	li	a4,0
C:\NucleiStudio_workspace3\simple_world\Debug/../src/picojpeg.c:1458
      if (b < 0)
800033ce:	0006c863          	bltz	a3,800033de <pjpeg_decode_mcu+0x1796>
C:\NucleiStudio_workspace3\simple_world\Debug/../src/picojpeg.c:1461
         return 255;
800033d2:	0ff00713          	li	a4,255
C:\NucleiStudio_workspace3\simple_world\Debug/../src/picojpeg.c:1460
      else if (b > 255)
800033d6:	00d74463          	blt	a4,a3,800033de <pjpeg_decode_mcu+0x1796>
C:\NucleiStudio_workspace3\simple_world\Debug/../src/picojpeg.c:1464
   return (uint8)b;
800033da:	0ff7f713          	andi	a4,a5,255
transformBlockReduce():
C:\NucleiStudio_workspace3\simple_world\Debug/../src/picojpeg.c:1982
               gMCUBufB[128] = addAndClamp(gMCUBufB[128], cbB);
800033de:	08e60023          	sb	a4,128(a2)
C:\NucleiStudio_workspace3\simple_world\Debug/../src/picojpeg.c:1984
               break;
800033e2:	ce1fe06f          	j	800020c2 <pjpeg_decode_mcu+0x47a>

800033e6 <pjpeg_decode_init>:
pjpeg_decode_init():
C:\NucleiStudio_workspace3\simple_world\Debug/../src/picojpeg.c:2297
   pInfo->m_MCUSPerRow = 0; pInfo->m_MCUSPerCol = 0;
   pInfo->m_scanType = PJPG_GRAYSCALE;
   pInfo->m_MCUWidth = 0; pInfo->m_MCUHeight = 0;
   pInfo->m_pMCUBufR = (unsigned char*)0; pInfo->m_pMCUBufG = (unsigned char*)0; pInfo->m_pMCUBufB = (unsigned char*)0;

   g_pNeedBytesCallback = pNeed_bytes_callback;
800033e6:	8ab1ac23          	sw	a1,-1864(gp) # 90000a08 <g_pNeedBytesCallback>
init():
C:\NucleiStudio_workspace3\simple_world\Debug/../src/picojpeg.c:952
   gRestartInterval = 0;
800033ea:	8a618793          	addi	a5,gp,-1882 # 900009f6 <gRestartInterval>
pjpeg_decode_init():
C:\NucleiStudio_workspace3\simple_world\Debug/../src/picojpeg.c:2288
{
800033ee:	7119                	addi	sp,sp,-128
init():
C:\NucleiStudio_workspace3\simple_world\Debug/../src/picojpeg.c:954
   gValidHuffTables = 0;
800033f0:	8b118813          	addi	a6,gp,-1871 # 90000a01 <gValidHuffTables>
pjpeg_decode_init():
C:\NucleiStudio_workspace3\simple_world\Debug/../src/picojpeg.c:2288
{
800033f4:	dca2                	sw	s0,120(sp)
800033f6:	d2d6                	sw	s5,100(sp)
init():
C:\NucleiStudio_workspace3\simple_world\Debug/../src/picojpeg.c:955
   gValidQuantTables = 0;
800033f8:	8b218893          	addi	a7,gp,-1870 # 90000a02 <gValidQuantTables>
pjpeg_decode_init():
C:\NucleiStudio_workspace3\simple_world\Debug/../src/picojpeg.c:2288
{
800033fc:	de86                	sw	ra,124(sp)
800033fe:	daa6                	sw	s1,116(sp)
80003400:	d8ca                	sw	s2,112(sp)
80003402:	d6ce                	sw	s3,108(sp)
80003404:	d4d2                	sw	s4,104(sp)
80003406:	d0da                	sw	s6,96(sp)
80003408:	cede                	sw	s7,92(sp)
8000340a:	cce2                	sw	s8,88(sp)
8000340c:	c8ea                	sw	s10,80(sp)
8000340e:	c6ee                	sw	s11,76(sp)
80003410:	cae6                	sw	s9,84(sp)
C:\NucleiStudio_workspace3\simple_world\Debug/../src/picojpeg.c:2298
   g_pCallback_data = pCallback_data;
80003412:	8ac1aa23          	sw	a2,-1868(gp) # 90000a04 <g_pCallback_data>
C:\NucleiStudio_workspace3\simple_world\Debug/../src/picojpeg.c:2299
   gCallbackStatus = 0;
80003416:	86318413          	addi	s0,gp,-1949 # 900009b3 <gCallbackStatus>
init():
C:\NucleiStudio_workspace3\simple_world\Debug/../src/picojpeg.c:949
   gImageXSize = 0;
8000341a:	88218a93          	addi	s5,gp,-1918 # 900009d2 <gImageXSize>
pjpeg_decode_init():
C:\NucleiStudio_workspace3\simple_world\Debug/../src/picojpeg.c:2300
   gReduce = reduce;
8000341e:	8ad18223          	sb	a3,-1884(gp) # 900009f4 <gReduce>
init():
C:\NucleiStudio_workspace3\simple_world\Debug/../src/picojpeg.c:952
   gRestartInterval = 0;
80003422:	c23e                	sw	a5,4(sp)
C:\NucleiStudio_workspace3\simple_world\Debug/../src/picojpeg.c:954
   gValidHuffTables = 0;
80003424:	c642                	sw	a6,12(sp)
C:\NucleiStudio_workspace3\simple_world\Debug/../src/picojpeg.c:955
   gValidQuantTables = 0;
80003426:	c446                	sw	a7,8(sp)
pjpeg_decode_init():
C:\NucleiStudio_workspace3\simple_world\Debug/../src/picojpeg.c:2291
   pInfo->m_width = 0; pInfo->m_height = 0; pInfo->m_comps = 0;
80003428:	00052023          	sw	zero,0(a0)
8000342c:	00052223          	sw	zero,4(a0)
80003430:	00052423          	sw	zero,8(a0)
C:\NucleiStudio_workspace3\simple_world\Debug/../src/picojpeg.c:2292
   pInfo->m_MCUSPerRow = 0; pInfo->m_MCUSPerCol = 0;
80003434:	00052623          	sw	zero,12(a0)
80003438:	00052823          	sw	zero,16(a0)
C:\NucleiStudio_workspace3\simple_world\Debug/../src/picojpeg.c:2293
   pInfo->m_scanType = PJPG_GRAYSCALE;
8000343c:	00052a23          	sw	zero,20(a0)
C:\NucleiStudio_workspace3\simple_world\Debug/../src/picojpeg.c:2294
   pInfo->m_MCUWidth = 0; pInfo->m_MCUHeight = 0;
80003440:	00052c23          	sw	zero,24(a0)
80003444:	00052e23          	sw	zero,28(a0)
C:\NucleiStudio_workspace3\simple_world\Debug/../src/picojpeg.c:2295
   pInfo->m_pMCUBufR = (unsigned char*)0; pInfo->m_pMCUBufG = (unsigned char*)0; pInfo->m_pMCUBufB = (unsigned char*)0;
80003448:	02052023          	sw	zero,32(a0)
8000344c:	02052223          	sw	zero,36(a0)
80003450:	02052423          	sw	zero,40(a0)
init():
C:\NucleiStudio_workspace3\simple_world\Debug/../src/picojpeg.c:950
   gImageYSize = 0;
80003454:	88418993          	addi	s3,gp,-1916 # 900009d4 <gImageYSize>
pjpeg_decode_init():
C:\NucleiStudio_workspace3\simple_world\Debug/../src/picojpeg.c:2299
   gCallbackStatus = 0;
80003458:	00040023          	sb	zero,0(s0)
init():
C:\NucleiStudio_workspace3\simple_world\Debug/../src/picojpeg.c:949
   gImageXSize = 0;
8000345c:	000a9023          	sh	zero,0(s5)
C:\NucleiStudio_workspace3\simple_world\Debug/../src/picojpeg.c:950
   gImageYSize = 0;
80003460:	00099023          	sh	zero,0(s3)
getBits1():
C:\NucleiStudio_workspace3\simple_world\Debug/../src/picojpeg.c:321
   return getBits(numBits, 0);
80003464:	4581                	li	a1,0
init():
C:\NucleiStudio_workspace3\simple_world\Debug/../src/picojpeg.c:956
   gTemFlag = 0;
80003466:	8a018823          	sb	zero,-1872(gp) # 90000a00 <gTemFlag>
pjpeg_decode_init():
C:\NucleiStudio_workspace3\simple_world\Debug/../src/picojpeg.c:2288
{
8000346a:	8daa                	mv	s11,a0
init():
C:\NucleiStudio_workspace3\simple_world\Debug/../src/picojpeg.c:960
   gBitsLeft = 8;
8000346c:	4721                	li	a4,8
C:\NucleiStudio_workspace3\simple_world\Debug/../src/picojpeg.c:951
   gCompsInFrame = 0;
8000346e:	87f18493          	addi	s1,gp,-1921 # 900009cf <gCompsInFrame>
C:\NucleiStudio_workspace3\simple_world\Debug/../src/picojpeg.c:953
   gCompsInScan = 0;
80003472:	88018a13          	addi	s4,gp,-1920 # 900009d0 <gCompsInScan>
C:\NucleiStudio_workspace3\simple_world\Debug/../src/picojpeg.c:957
   gInBufOfs = 0;
80003476:	88718b93          	addi	s7,gp,-1913 # 900009d7 <gInBufOfs>
C:\NucleiStudio_workspace3\simple_world\Debug/../src/picojpeg.c:958
   gInBufLeft = 0;
8000347a:	88618b13          	addi	s6,gp,-1914 # 900009d6 <gInBufLeft>
C:\NucleiStudio_workspace3\simple_world\Debug/../src/picojpeg.c:959
   gBitBuf = 0;
8000347e:	86018913          	addi	s2,gp,-1952 # 900009b0 <gBitBuf>
C:\NucleiStudio_workspace3\simple_world\Debug/../src/picojpeg.c:960
   gBitsLeft = 8;
80003482:	86218c13          	addi	s8,gp,-1950 # 900009b2 <gBitsLeft>
getBits1():
C:\NucleiStudio_workspace3\simple_world\Debug/../src/picojpeg.c:321
   return getBits(numBits, 0);
80003486:	4521                	li	a0,8
init():
C:\NucleiStudio_workspace3\simple_world\Debug/../src/picojpeg.c:952
   gRestartInterval = 0;
80003488:	00079023          	sh	zero,0(a5)
C:\NucleiStudio_workspace3\simple_world\Debug/../src/picojpeg.c:954
   gValidHuffTables = 0;
8000348c:	00080023          	sb	zero,0(a6)
C:\NucleiStudio_workspace3\simple_world\Debug/../src/picojpeg.c:955
   gValidQuantTables = 0;
80003490:	00088023          	sb	zero,0(a7)
C:\NucleiStudio_workspace3\simple_world\Debug/../src/picojpeg.c:960
   gBitsLeft = 8;
80003494:	00ec0023          	sb	a4,0(s8)
C:\NucleiStudio_workspace3\simple_world\Debug/../src/picojpeg.c:951
   gCompsInFrame = 0;
80003498:	00048023          	sb	zero,0(s1)
C:\NucleiStudio_workspace3\simple_world\Debug/../src/picojpeg.c:953
   gCompsInScan = 0;
8000349c:	000a0023          	sb	zero,0(s4)
C:\NucleiStudio_workspace3\simple_world\Debug/../src/picojpeg.c:957
   gInBufOfs = 0;
800034a0:	000b8023          	sb	zero,0(s7)
C:\NucleiStudio_workspace3\simple_world\Debug/../src/picojpeg.c:958
   gInBufLeft = 0;
800034a4:	000b0023          	sb	zero,0(s6)
C:\NucleiStudio_workspace3\simple_world\Debug/../src/picojpeg.c:959
   gBitBuf = 0;
800034a8:	00091023          	sh	zero,0(s2)
getBits1():
C:\NucleiStudio_workspace3\simple_world\Debug/../src/picojpeg.c:321
   return getBits(numBits, 0);
800034ac:	a48fe0ef          	jal	ra,800016f4 <getBits>
800034b0:	4581                	li	a1,0
800034b2:	4521                	li	a0,8
800034b4:	a40fe0ef          	jal	ra,800016f4 <getBits>
pjpeg_decode_init():
C:\NucleiStudio_workspace3\simple_world\Debug/../src/picojpeg.c:2303
    
   status = init();
   if ((status) || (gCallbackStatus))
800034b8:	00044d03          	lbu	s10,0(s0)
800034bc:	020d0263          	beqz	s10,800034e0 <pjpeg_decode_init+0xfa>
C:\NucleiStudio_workspace3\simple_world\Debug/../src/picojpeg.c:2325
   pInfo->m_MCUSPerRow = gMaxMCUSPerRow; pInfo->m_MCUSPerCol = gMaxMCUSPerCol;
   pInfo->m_MCUWidth = gMaxMCUXSize; pInfo->m_MCUHeight = gMaxMCUYSize;
   pInfo->m_pMCUBufR = gMCUBufR; pInfo->m_pMCUBufG = gMCUBufG; pInfo->m_pMCUBufB = gMCUBufB;
      
   return 0;
}
800034c0:	50f6                	lw	ra,124(sp)
800034c2:	5466                	lw	s0,120(sp)
800034c4:	856a                	mv	a0,s10
800034c6:	54d6                	lw	s1,116(sp)
800034c8:	5946                	lw	s2,112(sp)
800034ca:	59b6                	lw	s3,108(sp)
800034cc:	5a26                	lw	s4,104(sp)
800034ce:	5a96                	lw	s5,100(sp)
800034d0:	5b06                	lw	s6,96(sp)
800034d2:	4bf6                	lw	s7,92(sp)
800034d4:	4c66                	lw	s8,88(sp)
800034d6:	4cd6                	lw	s9,84(sp)
800034d8:	4d46                	lw	s10,80(sp)
800034da:	4db6                	lw	s11,76(sp)
800034dc:	6109                	addi	sp,sp,128
800034de:	8082                	ret
getBits1():
C:\NucleiStudio_workspace3\simple_world\Debug/../src/picojpeg.c:321
   return getBits(numBits, 0);
800034e0:	4581                	li	a1,0
800034e2:	4521                	li	a0,8
800034e4:	a10fe0ef          	jal	ra,800016f4 <getBits>
800034e8:	8caa                	mv	s9,a0
800034ea:	4581                	li	a1,0
800034ec:	4521                	li	a0,8
800034ee:	a06fe0ef          	jal	ra,800016f4 <getBits>
locateSOIMarker():
C:\NucleiStudio_workspace3\simple_world\Debug/../src/picojpeg.c:847
   if ((lastchar == 0xFF) && (thischar == M_SOI))
800034f2:	6705                	lui	a4,0x1
800034f4:	0ffcfc93          	andi	s9,s9,255
800034f8:	0ff00613          	li	a2,255
C:\NucleiStudio_workspace3\simple_world\Debug/../src/picojpeg.c:843
   uint8 thischar = (uint8)getBits1(8);
800034fc:	0ff57d13          	andi	s10,a0,255
C:\NucleiStudio_workspace3\simple_world\Debug/../src/picojpeg.c:847
   if ((lastchar == 0xFF) && (thischar == M_SOI))
80003500:	177d                	addi	a4,a4,-1
80003502:	04cc8763          	beq	s9,a2,80003550 <pjpeg_decode_init+0x16a>
C:\NucleiStudio_workspace3\simple_world\Debug/../src/picojpeg.c:865
         else if (thischar == M_EOI)	//getBits1 will keep returning M_EOI if we read past the end
80003506:	c86e                	sw	s11,16(sp)
80003508:	0d900c93          	li	s9,217
8000350c:	8dea                	mv	s11,s10
8000350e:	8d3a                	mv	s10,a4
80003510:	a021                	j	80003518 <pjpeg_decode_init+0x132>
C:\NucleiStudio_workspace3\simple_world\Debug/../src/picojpeg.c:859
      thischar = (uint8)getBits1(8);
80003512:	8daa                	mv	s11,a0
C:\NucleiStudio_workspace3\simple_world\Debug/../src/picojpeg.c:854
      if (--bytesleft == 0)
80003514:	020d0863          	beqz	s10,80003544 <pjpeg_decode_init+0x15e>
getBits1():
C:\NucleiStudio_workspace3\simple_world\Debug/../src/picojpeg.c:321
   return getBits(numBits, 0);
80003518:	4581                	li	a1,0
8000351a:	4521                	li	a0,8
8000351c:	9d8fe0ef          	jal	ra,800016f4 <getBits>
80003520:	fffd0793          	addi	a5,s10,-1
80003524:	01079d13          	slli	s10,a5,0x10
locateSOIMarker():
C:\NucleiStudio_workspace3\simple_world\Debug/../src/picojpeg.c:861
      if (lastchar == 0xFF) 
80003528:	0ff00793          	li	a5,255
8000352c:	010d5d13          	srli	s10,s10,0x10
C:\NucleiStudio_workspace3\simple_world\Debug/../src/picojpeg.c:859
      thischar = (uint8)getBits1(8);
80003530:	0ff57513          	andi	a0,a0,255
C:\NucleiStudio_workspace3\simple_world\Debug/../src/picojpeg.c:861
      if (lastchar == 0xFF) 
80003534:	fcfd9fe3          	bne	s11,a5,80003512 <pjpeg_decode_init+0x12c>
C:\NucleiStudio_workspace3\simple_world\Debug/../src/picojpeg.c:863
         if (thischar == M_SOI)
80003538:	0d800793          	li	a5,216
8000353c:	04f50463          	beq	a0,a5,80003584 <pjpeg_decode_init+0x19e>
C:\NucleiStudio_workspace3\simple_world\Debug/../src/picojpeg.c:865
         else if (thischar == M_EOI)	//getBits1 will keep returning M_EOI if we read past the end
80003540:	fd9519e3          	bne	a0,s9,80003512 <pjpeg_decode_init+0x12c>
80003544:	4d4d                	li	s10,19
pjpeg_decode_init():
C:\NucleiStudio_workspace3\simple_world\Debug/../src/picojpeg.c:2316
      return gCallbackStatus ? gCallbackStatus : status;
80003546:	00044783          	lbu	a5,0(s0)
8000354a:	dbbd                	beqz	a5,800034c0 <pjpeg_decode_init+0xda>
8000354c:	8d3e                	mv	s10,a5
8000354e:	bf8d                	j	800034c0 <pjpeg_decode_init+0xda>
locateSOIMarker():
C:\NucleiStudio_workspace3\simple_world\Debug/../src/picojpeg.c:847
   if ((lastchar == 0xFF) && (thischar == M_SOI))
80003550:	0d800613          	li	a2,216
80003554:	facd19e3          	bne	s10,a2,80003506 <pjpeg_decode_init+0x120>
locateSOFMarker():
C:\NucleiStudio_workspace3\simple_world\Debug/../src/picojpeg.c:890
   status = processMarkers(&c);
80003558:	03f10513          	addi	a0,sp,63
8000355c:	a9efe0ef          	jal	ra,800017fa <processMarkers>
80003560:	8d2a                	mv	s10,a0
C:\NucleiStudio_workspace3\simple_world\Debug/../src/picojpeg.c:891
   if (status)
80003562:	f175                	bnez	a0,80003546 <pjpeg_decode_init+0x160>
C:\NucleiStudio_workspace3\simple_world\Debug/../src/picojpeg.c:894
   switch (c)
80003564:	03f14683          	lbu	a3,63(sp)
80003568:	0c200613          	li	a2,194
8000356c:	04c68463          	beq	a3,a2,800035b4 <pjpeg_decode_init+0x1ce>
80003570:	0c900613          	li	a2,201
80003574:	02c68e63          	beq	a3,a2,800035b0 <pjpeg_decode_init+0x1ca>
80003578:	0c000613          	li	a2,192
8000357c:	00c68c63          	beq	a3,a2,80003594 <pjpeg_decode_init+0x1ae>
C:\NucleiStudio_workspace3\simple_world\Debug/../src/picojpeg.c:917
         return PJPG_UNSUPPORTED_MARKER;
80003580:	4d51                	li	s10,20
80003582:	b7d1                	j	80003546 <pjpeg_decode_init+0x160>
locateSOIMarker():
C:\NucleiStudio_workspace3\simple_world\Debug/../src/picojpeg.c:873
   thischar = (uint8)((gBitBuf >> 8) & 0xFF);
80003584:	00095703          	lhu	a4,0(s2)
80003588:	8d6e                	mv	s10,s11
8000358a:	4dc2                	lw	s11,16(sp)
C:\NucleiStudio_workspace3\simple_world\Debug/../src/picojpeg.c:875
   if (thischar != 0xFF)
8000358c:	8321                	srli	a4,a4,0x8
8000358e:	fda705e3          	beq	a4,s10,80003558 <pjpeg_decode_init+0x172>
80003592:	bf4d                	j	80003544 <pjpeg_decode_init+0x15e>
getBits1():
C:\NucleiStudio_workspace3\simple_world\Debug/../src/picojpeg.c:321
   return getBits(numBits, 0);
80003594:	4581                	li	a1,0
80003596:	4541                	li	a0,16
80003598:	95cfe0ef          	jal	ra,800016f4 <getBits>
8000359c:	8caa                	mv	s9,a0
8000359e:	4581                	li	a1,0
800035a0:	4521                	li	a0,8
800035a2:	952fe0ef          	jal	ra,800016f4 <getBits>
readSOFMarker():
C:\NucleiStudio_workspace3\simple_world\Debug/../src/picojpeg.c:617
   if (getBits1(8) != 8)   
800035a6:	46a1                	li	a3,8
800035a8:	00d50963          	beq	a0,a3,800035ba <pjpeg_decode_init+0x1d4>
C:\NucleiStudio_workspace3\simple_world\Debug/../src/picojpeg.c:618
      return PJPG_BAD_PRECISION;
800035ac:	4d1d                	li	s10,7
800035ae:	bf61                	j	80003546 <pjpeg_decode_init+0x160>
locateSOFMarker():
C:\NucleiStudio_workspace3\simple_world\Debug/../src/picojpeg.c:912
         return PJPG_NO_ARITHMITIC_SUPPORT;
800035b0:	4d45                	li	s10,17
800035b2:	bf51                	j	80003546 <pjpeg_decode_init+0x160>
C:\NucleiStudio_workspace3\simple_world\Debug/../src/picojpeg.c:900
         return PJPG_UNSUPPORTED_MODE;
800035b4:	02500d13          	li	s10,37
pjpeg_decode_init():
C:\NucleiStudio_workspace3\simple_world\Debug/../src/picojpeg.c:2308
      return gCallbackStatus ? gCallbackStatus : status;
800035b8:	b779                	j	80003546 <pjpeg_decode_init+0x160>
getBits1():
C:\NucleiStudio_workspace3\simple_world\Debug/../src/picojpeg.c:321
   return getBits(numBits, 0);
800035ba:	4581                	li	a1,0
800035bc:	4541                	li	a0,16
800035be:	936fe0ef          	jal	ra,800016f4 <getBits>
readSOFMarker():
C:\NucleiStudio_workspace3\simple_world\Debug/../src/picojpeg.c:622
   if ((!gImageYSize) || (gImageYSize > PJPG_MAX_HEIGHT))
800035c2:	fff50693          	addi	a3,a0,-1
800035c6:	06c2                	slli	a3,a3,0x10
C:\NucleiStudio_workspace3\simple_world\Debug/../src/picojpeg.c:620
   gImageYSize = getBits1(16);
800035c8:	00a99023          	sh	a0,0(s3)
C:\NucleiStudio_workspace3\simple_world\Debug/../src/picojpeg.c:622
   if ((!gImageYSize) || (gImageYSize > PJPG_MAX_HEIGHT))
800035cc:	82c1                	srli	a3,a3,0x10
800035ce:	6791                	lui	a5,0x4
800035d0:	2cf6ff63          	bgeu	a3,a5,800038ae <pjpeg_decode_init+0x4c8>
getBits1():
C:\NucleiStudio_workspace3\simple_world\Debug/../src/picojpeg.c:321
   return getBits(numBits, 0);
800035d4:	4581                	li	a1,0
800035d6:	4541                	li	a0,16
800035d8:	91cfe0ef          	jal	ra,800016f4 <getBits>
readSOFMarker():
C:\NucleiStudio_workspace3\simple_world\Debug/../src/picojpeg.c:627
   if ((!gImageXSize) || (gImageXSize > PJPG_MAX_WIDTH))
800035dc:	fff50693          	addi	a3,a0,-1
800035e0:	06c2                	slli	a3,a3,0x10
C:\NucleiStudio_workspace3\simple_world\Debug/../src/picojpeg.c:625
   gImageXSize = getBits1(16);
800035e2:	00aa9023          	sh	a0,0(s5)
C:\NucleiStudio_workspace3\simple_world\Debug/../src/picojpeg.c:627
   if ((!gImageXSize) || (gImageXSize > PJPG_MAX_WIDTH))
800035e6:	82c1                	srli	a3,a3,0x10
800035e8:	6791                	lui	a5,0x4
800035ea:	2cf6f463          	bgeu	a3,a5,800038b2 <pjpeg_decode_init+0x4cc>
getBits1():
C:\NucleiStudio_workspace3\simple_world\Debug/../src/picojpeg.c:321
   return getBits(numBits, 0);
800035ee:	4581                	li	a1,0
800035f0:	4521                	li	a0,8
800035f2:	902fe0ef          	jal	ra,800016f4 <getBits>
readSOFMarker():
C:\NucleiStudio_workspace3\simple_world\Debug/../src/picojpeg.c:630
   gCompsInFrame = (uint8)getBits1(8);
800035f6:	0ff57513          	andi	a0,a0,255
800035fa:	00a48023          	sb	a0,0(s1)
C:\NucleiStudio_workspace3\simple_world\Debug/../src/picojpeg.c:632
   if (gCompsInFrame > 3)
800035fe:	468d                	li	a3,3
80003600:	4ea6ee63          	bltu	a3,a0,80003afc <pjpeg_decode_init+0x716>
C:\NucleiStudio_workspace3\simple_world\Debug/../src/picojpeg.c:635
   if (left != (gCompsInFrame + gCompsInFrame + gCompsInFrame + 8))
80003604:	00151693          	slli	a3,a0,0x1
80003608:	96aa                	add	a3,a3,a0
8000360a:	06a1                	addi	a3,a3,8
8000360c:	4edc9663          	bne	s9,a3,80003af8 <pjpeg_decode_init+0x712>
C:\NucleiStudio_workspace3\simple_world\Debug/../src/picojpeg.c:638
   for (i = 0; i < gCompsInFrame; i++)
80003610:	cd25                	beqz	a0,80003688 <pjpeg_decode_init+0x2a2>
80003612:	87018793          	addi	a5,gp,-1936 # 900009c0 <gCompIdent>
80003616:	cc3e                	sw	a5,24(sp)
80003618:	86c18793          	addi	a5,gp,-1940 # 900009bc <gCompHSamp>
8000361c:	c83e                	sw	a5,16(sp)
8000361e:	87c18793          	addi	a5,gp,-1924 # 900009cc <gCompVSamp>
80003622:	ca3e                	sw	a5,20(sp)
80003624:	87818c93          	addi	s9,gp,-1928 # 900009c8 <gCompQuant>
80003628:	a029                	j	80003632 <pjpeg_decode_init+0x24c>
8000362a:	0004c783          	lbu	a5,0(s1)
8000362e:	04fd7d63          	bgeu	s10,a5,80003688 <pjpeg_decode_init+0x2a2>
getBits1():
C:\NucleiStudio_workspace3\simple_world\Debug/../src/picojpeg.c:321
   return getBits(numBits, 0);
80003632:	4581                	li	a1,0
80003634:	4521                	li	a0,8
80003636:	8befe0ef          	jal	ra,800016f4 <getBits>
readSOFMarker():
C:\NucleiStudio_workspace3\simple_world\Debug/../src/picojpeg.c:640
      gCompIdent[i] = (uint8)getBits1(8);
8000363a:	47e2                	lw	a5,24(sp)
getBits1():
C:\NucleiStudio_workspace3\simple_world\Debug/../src/picojpeg.c:321
   return getBits(numBits, 0);
8000363c:	4581                	li	a1,0
readSOFMarker():
C:\NucleiStudio_workspace3\simple_world\Debug/../src/picojpeg.c:640
      gCompIdent[i] = (uint8)getBits1(8);
8000363e:	97ea                	add	a5,a5,s10
80003640:	00a78023          	sb	a0,0(a5) # 4000 <__stack_size+0x3800>
getBits1():
C:\NucleiStudio_workspace3\simple_world\Debug/../src/picojpeg.c:321
   return getBits(numBits, 0);
80003644:	4511                	li	a0,4
80003646:	8aefe0ef          	jal	ra,800016f4 <getBits>
readSOFMarker():
C:\NucleiStudio_workspace3\simple_world\Debug/../src/picojpeg.c:641
      gCompHSamp[i] = (uint8)getBits1(4);
8000364a:	47c2                	lw	a5,16(sp)
getBits1():
C:\NucleiStudio_workspace3\simple_world\Debug/../src/picojpeg.c:321
   return getBits(numBits, 0);
8000364c:	4581                	li	a1,0
readSOFMarker():
C:\NucleiStudio_workspace3\simple_world\Debug/../src/picojpeg.c:641
      gCompHSamp[i] = (uint8)getBits1(4);
8000364e:	97ea                	add	a5,a5,s10
80003650:	00a78023          	sb	a0,0(a5)
getBits1():
C:\NucleiStudio_workspace3\simple_world\Debug/../src/picojpeg.c:321
   return getBits(numBits, 0);
80003654:	4511                	li	a0,4
80003656:	89efe0ef          	jal	ra,800016f4 <getBits>
readSOFMarker():
C:\NucleiStudio_workspace3\simple_world\Debug/../src/picojpeg.c:642
      gCompVSamp[i] = (uint8)getBits1(4);
8000365a:	47d2                	lw	a5,20(sp)
getBits1():
C:\NucleiStudio_workspace3\simple_world\Debug/../src/picojpeg.c:321
   return getBits(numBits, 0);
8000365c:	4581                	li	a1,0
readSOFMarker():
C:\NucleiStudio_workspace3\simple_world\Debug/../src/picojpeg.c:642
      gCompVSamp[i] = (uint8)getBits1(4);
8000365e:	97ea                	add	a5,a5,s10
80003660:	00a78023          	sb	a0,0(a5)
getBits1():
C:\NucleiStudio_workspace3\simple_world\Debug/../src/picojpeg.c:321
   return getBits(numBits, 0);
80003664:	4521                	li	a0,8
80003666:	88efe0ef          	jal	ra,800016f4 <getBits>
readSOFMarker():
C:\NucleiStudio_workspace3\simple_world\Debug/../src/picojpeg.c:643
      gCompQuant[i] = (uint8)getBits1(8);
8000366a:	01ac87b3          	add	a5,s9,s10
8000366e:	0ff57513          	andi	a0,a0,255
C:\NucleiStudio_workspace3\simple_world\Debug/../src/picojpeg.c:638
   for (i = 0; i < gCompsInFrame; i++)
80003672:	0d05                	addi	s10,s10,1
C:\NucleiStudio_workspace3\simple_world\Debug/../src/picojpeg.c:643
      gCompQuant[i] = (uint8)getBits1(8);
80003674:	00a78023          	sb	a0,0(a5)
C:\NucleiStudio_workspace3\simple_world\Debug/../src/picojpeg.c:645
      if (gCompQuant[i] > 1)
80003678:	4785                	li	a5,1
C:\NucleiStudio_workspace3\simple_world\Debug/../src/picojpeg.c:638
   for (i = 0; i < gCompsInFrame; i++)
8000367a:	0ffd7d13          	andi	s10,s10,255
C:\NucleiStudio_workspace3\simple_world\Debug/../src/picojpeg.c:645
      if (gCompQuant[i] > 1)
8000367e:	faa7f6e3          	bgeu	a5,a0,8000362a <pjpeg_decode_init+0x244>
C:\NucleiStudio_workspace3\simple_world\Debug/../src/picojpeg.c:646
         return PJPG_UNSUPPORTED_QUANT_TABLE;
80003682:	02400d13          	li	s10,36
pjpeg_decode_init():
C:\NucleiStudio_workspace3\simple_world\Debug/../src/picojpeg.c:2307
   if ((status) || (gCallbackStatus))
80003686:	b5c1                	j	80003546 <pjpeg_decode_init+0x160>
80003688:	00044d03          	lbu	s10,0(s0)
8000368c:	e20d1ae3          	bnez	s10,800034c0 <pjpeg_decode_init+0xda>
initFrame():
C:\NucleiStudio_workspace3\simple_world\Debug/../src/picojpeg.c:1120
   if (gCompsInFrame == 1)
80003690:	0004c683          	lbu	a3,0(s1)
80003694:	4605                	li	a2,1
80003696:	18c68b63          	beq	a3,a2,8000382c <pjpeg_decode_init+0x446>
C:\NucleiStudio_workspace3\simple_world\Debug/../src/picojpeg.c:1133
   else if (gCompsInFrame == 3)
8000369a:	458d                	li	a1,3
C:\NucleiStudio_workspace3\simple_world\Debug/../src/picojpeg.c:1196
      return PJPG_UNSUPPORTED_COLORSPACE;
8000369c:	4d69                	li	s10,26
C:\NucleiStudio_workspace3\simple_world\Debug/../src/picojpeg.c:1133
   else if (gCompsInFrame == 3)
8000369e:	e2b691e3          	bne	a3,a1,800034c0 <pjpeg_decode_init+0xda>
C:\NucleiStudio_workspace3\simple_world\Debug/../src/picojpeg.c:1135
      if ( ((gCompHSamp[1] != 1) || (gCompVSamp[1] != 1)) ||
800036a2:	86c18593          	addi	a1,gp,-1940 # 900009bc <gCompHSamp>
800036a6:	0015c503          	lbu	a0,1(a1)
C:\NucleiStudio_workspace3\simple_world\Debug/../src/picojpeg.c:1123
         return PJPG_UNSUPPORTED_SAMP_FACTORS;
800036aa:	4d6d                	li	s10,27
C:\NucleiStudio_workspace3\simple_world\Debug/../src/picojpeg.c:1135
      if ( ((gCompHSamp[1] != 1) || (gCompVSamp[1] != 1)) ||
800036ac:	e0c51ae3          	bne	a0,a2,800034c0 <pjpeg_decode_init+0xda>
800036b0:	87c18613          	addi	a2,gp,-1924 # 900009cc <gCompVSamp>
800036b4:	00164803          	lbu	a6,1(a2)
800036b8:	e0a814e3          	bne	a6,a0,800034c0 <pjpeg_decode_init+0xda>
800036bc:	0025c503          	lbu	a0,2(a1)
800036c0:	e10510e3          	bne	a0,a6,800034c0 <pjpeg_decode_init+0xda>
C:\NucleiStudio_workspace3\simple_world\Debug/../src/picojpeg.c:1136
         ((gCompHSamp[2] != 1) || (gCompVSamp[2] != 1)) )
800036c4:	00264803          	lbu	a6,2(a2)
800036c8:	dea81ce3          	bne	a6,a0,800034c0 <pjpeg_decode_init+0xda>
C:\NucleiStudio_workspace3\simple_world\Debug/../src/picojpeg.c:1139
      if ((gCompHSamp[0] == 1) && (gCompVSamp[0] == 1))
800036cc:	0005c583          	lbu	a1,0(a1)
800036d0:	1f058363          	beq	a1,a6,800038b6 <pjpeg_decode_init+0x4d0>
C:\NucleiStudio_workspace3\simple_world\Debug/../src/picojpeg.c:1164
      else if ((gCompHSamp[0] == 2) && (gCompVSamp[0] == 1))
800036d4:	4689                	li	a3,2
800036d6:	ded595e3          	bne	a1,a3,800034c0 <pjpeg_decode_init+0xda>
800036da:	00064683          	lbu	a3,0(a2)
800036de:	45068f63          	beq	a3,a6,80003b3c <pjpeg_decode_init+0x756>
C:\NucleiStudio_workspace3\simple_world\Debug/../src/picojpeg.c:1177
      else if ((gCompHSamp[0] == 2) && (gCompVSamp[0] == 2))
800036e2:	4609                	li	a2,2
C:\NucleiStudio_workspace3\simple_world\Debug/../src/picojpeg.c:1123
         return PJPG_UNSUPPORTED_SAMP_FACTORS;
800036e4:	4d6d                	li	s10,27
C:\NucleiStudio_workspace3\simple_world\Debug/../src/picojpeg.c:1177
      else if ((gCompHSamp[0] == 2) && (gCompVSamp[0] == 2))
800036e6:	dcc69de3          	bne	a3,a2,800034c0 <pjpeg_decode_init+0xda>
C:\NucleiStudio_workspace3\simple_world\Debug/../src/picojpeg.c:1179
         gScanType = PJPG_YH2V2;
800036ea:	8ac18593          	addi	a1,gp,-1876 # 900009fc <gScanType>
C:\NucleiStudio_workspace3\simple_world\Debug/../src/picojpeg.c:1189
         gMaxMCUXSize = 16;
800036ee:	89c18513          	addi	a0,gp,-1892 # 900009ec <gMaxMCUXSize>
C:\NucleiStudio_workspace3\simple_world\Debug/../src/picojpeg.c:1179
         gScanType = PJPG_YH2V2;
800036f2:	4611                	li	a2,4
800036f4:	c190                	sw	a2,0(a1)
800036f6:	ce2e                	sw	a1,28(sp)
C:\NucleiStudio_workspace3\simple_world\Debug/../src/picojpeg.c:1181
         gMaxBlocksPerMCU = 6;
800036f8:	4599                	li	a1,6
C:\NucleiStudio_workspace3\simple_world\Debug/../src/picojpeg.c:1189
         gMaxMCUXSize = 16;
800036fa:	46c1                	li	a3,16
C:\NucleiStudio_workspace3\simple_world\Debug/../src/picojpeg.c:1182
         gMCUOrg[0] = 0;
800036fc:	89018713          	addi	a4,gp,-1904 # 900009e0 <gMCUOrg>
C:\NucleiStudio_workspace3\simple_world\Debug/../src/picojpeg.c:1190
         gMaxMCUYSize = 16;
80003700:	89d18793          	addi	a5,gp,-1891 # 900009ed <gMaxMCUYSize>
C:\NucleiStudio_workspace3\simple_world\Debug/../src/picojpeg.c:1181
         gMaxBlocksPerMCU = 6;
80003704:	88b18b23          	sb	a1,-1898(gp) # 900009e6 <gMaxBlocksPerMCU>
C:\NucleiStudio_workspace3\simple_world\Debug/../src/picojpeg.c:1186
         gMCUOrg[4] = 1;
80003708:	20100613          	li	a2,513
C:\NucleiStudio_workspace3\simple_world\Debug/../src/picojpeg.c:1189
         gMaxMCUXSize = 16;
8000370c:	00d50023          	sb	a3,0(a0)
C:\NucleiStudio_workspace3\simple_world\Debug/../src/picojpeg.c:1190
         gMaxMCUYSize = 16;
80003710:	00d78023          	sb	a3,0(a5)
C:\NucleiStudio_workspace3\simple_world\Debug/../src/picojpeg.c:1189
         gMaxMCUXSize = 16;
80003714:	ca2a                	sw	a0,20(sp)
C:\NucleiStudio_workspace3\simple_world\Debug/../src/picojpeg.c:1190
         gMaxMCUYSize = 16;
80003716:	cc3e                	sw	a5,24(sp)
C:\NucleiStudio_workspace3\simple_world\Debug/../src/picojpeg.c:1182
         gMCUOrg[0] = 0;
80003718:	00072023          	sw	zero,0(a4) # 1000 <__stack_size+0x800>
C:\NucleiStudio_workspace3\simple_world\Debug/../src/picojpeg.c:1186
         gMCUOrg[4] = 1;
8000371c:	00c71223          	sh	a2,4(a4)
C:\NucleiStudio_workspace3\simple_world\Debug/../src/picojpeg.c:1190
         gMaxMCUYSize = 16;
80003720:	45bd                	li	a1,15
80003722:	46c1                	li	a3,16
C:\NucleiStudio_workspace3\simple_world\Debug/../src/picojpeg.c:1198
   gMaxMCUSPerRow = (gImageXSize + (gMaxMCUXSize - 1)) >> ((gMaxMCUXSize == 8) ? 3 : 4);
80003724:	000ad603          	lhu	a2,0(s5)
80003728:	4511                	li	a0,4
8000372a:	063d                	addi	a2,a2,15
C:\NucleiStudio_workspace3\simple_world\Debug/../src/picojpeg.c:1199
   gMaxMCUSPerCol = (gImageYSize + (gMaxMCUYSize - 1)) >> ((gMaxMCUYSize == 8) ? 3 : 4);
8000372c:	0009d703          	lhu	a4,0(s3)
80003730:	16e1                	addi	a3,a3,-8
80003732:	00d036b3          	snez	a3,a3
C:\NucleiStudio_workspace3\simple_world\Debug/../src/picojpeg.c:1198
   gMaxMCUSPerRow = (gImageXSize + (gMaxMCUXSize - 1)) >> ((gMaxMCUXSize == 8) ? 3 : 4);
80003736:	40a65633          	sra	a2,a2,a0
C:\NucleiStudio_workspace3\simple_world\Debug/../src/picojpeg.c:1199
   gMaxMCUSPerCol = (gImageYSize + (gMaxMCUYSize - 1)) >> ((gMaxMCUYSize == 8) ? 3 : 4);
8000373a:	972e                	add	a4,a4,a1
8000373c:	068d                	addi	a3,a3,3
8000373e:	40d75733          	sra	a4,a4,a3
C:\NucleiStudio_workspace3\simple_world\Debug/../src/picojpeg.c:1198
   gMaxMCUSPerRow = (gImageXSize + (gMaxMCUXSize - 1)) >> ((gMaxMCUXSize == 8) ? 3 : 4);
80003742:	01061693          	slli	a3,a2,0x10
80003746:	89a18793          	addi	a5,gp,-1894 # 900009ea <gMaxMCUSPerRow>
C:\NucleiStudio_workspace3\simple_world\Debug/../src/picojpeg.c:1199
   gMaxMCUSPerCol = (gImageYSize + (gMaxMCUYSize - 1)) >> ((gMaxMCUYSize == 8) ? 3 : 4);
8000374a:	0742                	slli	a4,a4,0x10
8000374c:	8341                	srli	a4,a4,0x10
8000374e:	89818613          	addi	a2,gp,-1896 # 900009e8 <gMaxMCUSPerCol>
C:\NucleiStudio_workspace3\simple_world\Debug/../src/picojpeg.c:1198
   gMaxMCUSPerRow = (gImageXSize + (gMaxMCUXSize - 1)) >> ((gMaxMCUXSize == 8) ? 3 : 4);
80003752:	82c1                	srli	a3,a3,0x10
C:\NucleiStudio_workspace3\simple_world\Debug/../src/picojpeg.c:1199
   gMaxMCUSPerCol = (gImageYSize + (gMaxMCUYSize - 1)) >> ((gMaxMCUYSize == 8) ? 3 : 4);
80003754:	d032                	sw	a2,32(sp)
80003756:	00e61023          	sh	a4,0(a2)
C:\NucleiStudio_workspace3\simple_world\Debug/../src/picojpeg.c:1198
   gMaxMCUSPerRow = (gImageXSize + (gMaxMCUXSize - 1)) >> ((gMaxMCUXSize == 8) ? 3 : 4);
8000375a:	00d79023          	sh	a3,0(a5)
C:\NucleiStudio_workspace3\simple_world\Debug/../src/picojpeg.c:1203
   gNumMCUSRemainingX = gMaxMCUSPerRow;
8000375e:	8ad19023          	sh	a3,-1888(gp) # 900009f0 <gNumMCUSRemainingX>
locateSOSMarker():
C:\NucleiStudio_workspace3\simple_world\Debug/../src/picojpeg.c:932
   status = processMarkers(&c);
80003762:	03f10513          	addi	a0,sp,63
initFrame():
C:\NucleiStudio_workspace3\simple_world\Debug/../src/picojpeg.c:1198
   gMaxMCUSPerRow = (gImageXSize + (gMaxMCUXSize - 1)) >> ((gMaxMCUXSize == 8) ? 3 : 4);
80003766:	d23e                	sw	a5,36(sp)
C:\NucleiStudio_workspace3\simple_world\Debug/../src/picojpeg.c:1204
   gNumMCUSRemainingY = gMaxMCUSPerCol;
80003768:	8ae19123          	sh	a4,-1886(gp) # 900009f2 <gNumMCUSRemainingY>
locateSOSMarker():
C:\NucleiStudio_workspace3\simple_world\Debug/../src/picojpeg.c:932
   status = processMarkers(&c);
8000376c:	88efe0ef          	jal	ra,800017fa <processMarkers>
80003770:	8d2a                	mv	s10,a0
C:\NucleiStudio_workspace3\simple_world\Debug/../src/picojpeg.c:933
   if (status)
80003772:	dc051ae3          	bnez	a0,80003546 <pjpeg_decode_init+0x160>
C:\NucleiStudio_workspace3\simple_world\Debug/../src/picojpeg.c:936
   if (c == M_EOI)
80003776:	03f14683          	lbu	a3,63(sp)
8000377a:	0da00713          	li	a4,218
initScan():
C:\NucleiStudio_workspace3\simple_world\Debug/../src/picojpeg.c:1093
      return PJPG_UNEXPECTED_MARKER;
8000377e:	4d49                	li	s10,18
locateSOSMarker():
C:\NucleiStudio_workspace3\simple_world\Debug/../src/picojpeg.c:936
   if (c == M_EOI)
80003780:	dce693e3          	bne	a3,a4,80003546 <pjpeg_decode_init+0x160>
getBits1():
C:\NucleiStudio_workspace3\simple_world\Debug/../src/picojpeg.c:321
   return getBits(numBits, 0);
80003784:	4581                	li	a1,0
80003786:	4541                	li	a0,16
80003788:	f6dfd0ef          	jal	ra,800016f4 <getBits>
8000378c:	8d2a                	mv	s10,a0
8000378e:	4581                	li	a1,0
80003790:	4521                	li	a0,8
80003792:	f63fd0ef          	jal	ra,800016f4 <getBits>
readSOSMarker():
C:\NucleiStudio_workspace3\simple_world\Debug/../src/picojpeg.c:689
   gCompsInScan = (uint8)getBits1(8);
80003796:	0ff57513          	andi	a0,a0,255
C:\NucleiStudio_workspace3\simple_world\Debug/../src/picojpeg.c:691
   left -= 3;
8000379a:	ffdd0f13          	addi	t5,s10,-3
C:\NucleiStudio_workspace3\simple_world\Debug/../src/picojpeg.c:693
   if ( (left != (gCompsInScan + gCompsInScan + 3)) || (gCompsInScan < 1) || (gCompsInScan > PJPG_MAXCOMPSINSCAN) )
8000379e:	00151713          	slli	a4,a0,0x1
C:\NucleiStudio_workspace3\simple_world\Debug/../src/picojpeg.c:691
   left -= 3;
800037a2:	0f42                	slli	t5,t5,0x10
C:\NucleiStudio_workspace3\simple_world\Debug/../src/picojpeg.c:689
   gCompsInScan = (uint8)getBits1(8);
800037a4:	00aa0023          	sb	a0,0(s4)
C:\NucleiStudio_workspace3\simple_world\Debug/../src/picojpeg.c:691
   left -= 3;
800037a8:	010f5f13          	srli	t5,t5,0x10
C:\NucleiStudio_workspace3\simple_world\Debug/../src/picojpeg.c:693
   if ( (left != (gCompsInScan + gCompsInScan + 3)) || (gCompsInScan < 1) || (gCompsInScan > PJPG_MAXCOMPSINSCAN) )
800037ac:	070d                	addi	a4,a4,3
800037ae:	0eef1e63          	bne	t5,a4,800038aa <pjpeg_decode_init+0x4c4>
800037b2:	fff50713          	addi	a4,a0,-1
800037b6:	0ff77713          	andi	a4,a4,255
800037ba:	4689                	li	a3,2
800037bc:	0ee6e763          	bltu	a3,a4,800038aa <pjpeg_decode_init+0x4c4>
C:\NucleiStudio_workspace3\simple_world\Debug/../src/picojpeg.c:705
         if (cc == gCompIdent[ci])
800037c0:	87018793          	addi	a5,gp,-1936 # 900009c0 <gCompIdent>
C:\NucleiStudio_workspace3\simple_world\Debug/../src/picojpeg.c:712
      gCompDCTab[ci] = (c >> 4) & 15;
800037c4:	d66e                	sw	s11,44(sp)
C:\NucleiStudio_workspace3\simple_world\Debug/../src/picojpeg.c:696
   for (i = 0; i < gCompsInScan; i++)
800037c6:	4f81                	li	t6,0
C:\NucleiStudio_workspace3\simple_world\Debug/../src/picojpeg.c:705
         if (cc == gCompIdent[ci])
800037c8:	d43e                	sw	a5,40(sp)
C:\NucleiStudio_workspace3\simple_world\Debug/../src/picojpeg.c:712
      gCompDCTab[ci] = (c >> 4) & 15;
800037ca:	86818c93          	addi	s9,gp,-1944 # 900009b8 <gCompDCTab>
800037ce:	8dfa                	mv	s11,t5
getBits1():
C:\NucleiStudio_workspace3\simple_world\Debug/../src/picojpeg.c:321
   return getBits(numBits, 0);
800037d0:	4581                	li	a1,0
800037d2:	4521                	li	a0,8
800037d4:	c87e                	sw	t6,16(sp)
800037d6:	f1ffd0ef          	jal	ra,800016f4 <getBits>
readSOSMarker():
C:\NucleiStudio_workspace3\simple_world\Debug/../src/picojpeg.c:698
      uint8 cc = (uint8)getBits1(8);
800037da:	0ff57d13          	andi	s10,a0,255
getBits1():
C:\NucleiStudio_workspace3\simple_world\Debug/../src/picojpeg.c:321
   return getBits(numBits, 0);
800037de:	4581                	li	a1,0
800037e0:	4521                	li	a0,8
800037e2:	f13fd0ef          	jal	ra,800016f4 <getBits>
readSOSMarker():
C:\NucleiStudio_workspace3\simple_world\Debug/../src/picojpeg.c:704
      for (ci = 0; ci < gCompsInFrame; ci++)
800037e6:	0004c803          	lbu	a6,0(s1)
C:\NucleiStudio_workspace3\simple_world\Debug/../src/picojpeg.c:702
      left -= 2;
800037ea:	ffed8793          	addi	a5,s11,-2
800037ee:	01079313          	slli	t1,a5,0x10
C:\NucleiStudio_workspace3\simple_world\Debug/../src/picojpeg.c:699
      uint8 c = (uint8)getBits1(8);
800037f2:	0ff57513          	andi	a0,a0,255
C:\NucleiStudio_workspace3\simple_world\Debug/../src/picojpeg.c:702
      left -= 2;
800037f6:	01035313          	srli	t1,t1,0x10
C:\NucleiStudio_workspace3\simple_world\Debug/../src/picojpeg.c:704
      for (ci = 0; ci < gCompsInFrame; ci++)
800037fa:	02080763          	beqz	a6,80003828 <pjpeg_decode_init+0x442>
C:\NucleiStudio_workspace3\simple_world\Debug/../src/picojpeg.c:705
         if (cc == gCompIdent[ci])
800037fe:	5722                	lw	a4,40(sp)
80003800:	86418893          	addi	a7,gp,-1948 # 900009b4 <gCompACTab>
80003804:	00074783          	lbu	a5,0(a4)
80003808:	4fc2                	lw	t6,16(sp)
8000380a:	07a78563          	beq	a5,s10,80003874 <pjpeg_decode_init+0x48e>
8000380e:	4785                	li	a5,1
80003810:	a801                	j	80003820 <pjpeg_decode_init+0x43a>
80003812:	00174603          	lbu	a2,1(a4)
80003816:	85be                	mv	a1,a5
80003818:	0705                	addi	a4,a4,1
8000381a:	0785                	addi	a5,a5,1
8000381c:	04cd0e63          	beq	s10,a2,80003878 <pjpeg_decode_init+0x492>
C:\NucleiStudio_workspace3\simple_world\Debug/../src/picojpeg.c:704
      for (ci = 0; ci < gCompsInFrame; ci++)
80003820:	0ff7f693          	andi	a3,a5,255
80003824:	ff06e7e3          	bltu	a3,a6,80003812 <pjpeg_decode_init+0x42c>
C:\NucleiStudio_workspace3\simple_world\Debug/../src/picojpeg.c:709
         return PJPG_BAD_SOS_COMP_ID;
80003828:	4d3d                	li	s10,15
8000382a:	bb31                	j	80003546 <pjpeg_decode_init+0x160>
initFrame():
C:\NucleiStudio_workspace3\simple_world\Debug/../src/picojpeg.c:1122
      if ((gCompHSamp[0] != 1) || (gCompVSamp[0] != 1))
8000382c:	86c1c603          	lbu	a2,-1940(gp) # 900009bc <gCompHSamp>
C:\NucleiStudio_workspace3\simple_world\Debug/../src/picojpeg.c:1123
         return PJPG_UNSUPPORTED_SAMP_FACTORS;
80003830:	4d6d                	li	s10,27
C:\NucleiStudio_workspace3\simple_world\Debug/../src/picojpeg.c:1122
      if ((gCompHSamp[0] != 1) || (gCompVSamp[0] != 1))
80003832:	c8d617e3          	bne	a2,a3,800034c0 <pjpeg_decode_init+0xda>
80003836:	87c1c683          	lbu	a3,-1924(gp) # 900009cc <gCompVSamp>
8000383a:	c8c693e3          	bne	a3,a2,800034c0 <pjpeg_decode_init+0xda>
C:\NucleiStudio_workspace3\simple_world\Debug/../src/picojpeg.c:1130
      gMaxMCUXSize     = 8;
8000383e:	89c18513          	addi	a0,gp,-1892 # 900009ec <gMaxMCUXSize>
C:\NucleiStudio_workspace3\simple_world\Debug/../src/picojpeg.c:1125
      gScanType = PJPG_GRAYSCALE;
80003842:	8ac18593          	addi	a1,gp,-1876 # 900009fc <gScanType>
C:\NucleiStudio_workspace3\simple_world\Debug/../src/picojpeg.c:1130
      gMaxMCUXSize     = 8;
80003846:	4721                	li	a4,8
C:\NucleiStudio_workspace3\simple_world\Debug/../src/picojpeg.c:1131
      gMaxMCUYSize     = 8;
80003848:	89d18793          	addi	a5,gp,-1891 # 900009ed <gMaxMCUYSize>
C:\NucleiStudio_workspace3\simple_world\Debug/../src/picojpeg.c:1127
      gMaxBlocksPerMCU = 1;
8000384c:	88d18b23          	sb	a3,-1898(gp) # 900009e6 <gMaxBlocksPerMCU>
C:\NucleiStudio_workspace3\simple_world\Debug/../src/picojpeg.c:1125
      gScanType = PJPG_GRAYSCALE;
80003850:	ce2e                	sw	a1,28(sp)
80003852:	0005a023          	sw	zero,0(a1)
C:\NucleiStudio_workspace3\simple_world\Debug/../src/picojpeg.c:1128
      gMCUOrg[0] = 0;
80003856:	88018823          	sb	zero,-1904(gp) # 900009e0 <gMCUOrg>
C:\NucleiStudio_workspace3\simple_world\Debug/../src/picojpeg.c:1130
      gMaxMCUXSize     = 8;
8000385a:	ca2a                	sw	a0,20(sp)
C:\NucleiStudio_workspace3\simple_world\Debug/../src/picojpeg.c:1131
      gMaxMCUYSize     = 8;
8000385c:	cc3e                	sw	a5,24(sp)
C:\NucleiStudio_workspace3\simple_world\Debug/../src/picojpeg.c:1130
      gMaxMCUXSize     = 8;
8000385e:	00e50023          	sb	a4,0(a0)
C:\NucleiStudio_workspace3\simple_world\Debug/../src/picojpeg.c:1131
      gMaxMCUYSize     = 8;
80003862:	00e78023          	sb	a4,0(a5)
80003866:	459d                	li	a1,7
80003868:	46a1                	li	a3,8
C:\NucleiStudio_workspace3\simple_world\Debug/../src/picojpeg.c:1198
   gMaxMCUSPerRow = (gImageXSize + (gMaxMCUXSize - 1)) >> ((gMaxMCUXSize == 8) ? 3 : 4);
8000386a:	000ad603          	lhu	a2,0(s5)
8000386e:	450d                	li	a0,3
80003870:	061d                	addi	a2,a2,7
80003872:	bd6d                	j	8000372c <pjpeg_decode_init+0x346>
readSOSMarker():
C:\NucleiStudio_workspace3\simple_world\Debug/../src/picojpeg.c:704
      for (ci = 0; ci < gCompsInFrame; ci++)
80003874:	4681                	li	a3,0
C:\NucleiStudio_workspace3\simple_world\Debug/../src/picojpeg.c:705
         if (cc == gCompIdent[ci])
80003876:	4581                	li	a1,0
C:\NucleiStudio_workspace3\simple_world\Debug/../src/picojpeg.c:711
      gCompList[i]    = ci;
80003878:	87418713          	addi	a4,gp,-1932 # 900009c4 <gCompList>
C:\NucleiStudio_workspace3\simple_world\Debug/../src/picojpeg.c:696
   for (i = 0; i < gCompsInScan; i++)
8000387c:	000a4783          	lbu	a5,0(s4)
C:\NucleiStudio_workspace3\simple_world\Debug/../src/picojpeg.c:711
      gCompList[i]    = ci;
80003880:	01f70833          	add	a6,a4,t6
C:\NucleiStudio_workspace3\simple_world\Debug/../src/picojpeg.c:712
      gCompDCTab[ci] = (c >> 4) & 15;
80003884:	00455613          	srli	a2,a0,0x4
80003888:	00bc8733          	add	a4,s9,a1
C:\NucleiStudio_workspace3\simple_world\Debug/../src/picojpeg.c:713
      gCompACTab[ci] = (c & 15);
8000388c:	893d                	andi	a0,a0,15
8000388e:	95c6                	add	a1,a1,a7
C:\NucleiStudio_workspace3\simple_world\Debug/../src/picojpeg.c:696
   for (i = 0; i < gCompsInScan; i++)
80003890:	0f85                	addi	t6,t6,1
C:\NucleiStudio_workspace3\simple_world\Debug/../src/picojpeg.c:711
      gCompList[i]    = ci;
80003892:	00d80023          	sb	a3,0(a6)
C:\NucleiStudio_workspace3\simple_world\Debug/../src/picojpeg.c:712
      gCompDCTab[ci] = (c >> 4) & 15;
80003896:	00c70023          	sb	a2,0(a4)
C:\NucleiStudio_workspace3\simple_world\Debug/../src/picojpeg.c:713
      gCompACTab[ci] = (c & 15);
8000389a:	00a58023          	sb	a0,0(a1)
C:\NucleiStudio_workspace3\simple_world\Debug/../src/picojpeg.c:696
   for (i = 0; i < gCompsInScan; i++)
8000389e:	0fffff93          	andi	t6,t6,255
800038a2:	04fffc63          	bgeu	t6,a5,800038fa <pjpeg_decode_init+0x514>
C:\NucleiStudio_workspace3\simple_world\Debug/../src/picojpeg.c:702
      left -= 2;
800038a6:	8d9a                	mv	s11,t1
800038a8:	b725                	j	800037d0 <pjpeg_decode_init+0x3ea>
C:\NucleiStudio_workspace3\simple_world\Debug/../src/picojpeg.c:694
      return PJPG_BAD_SOS_LENGTH;
800038aa:	4d39                	li	s10,14
800038ac:	b969                	j	80003546 <pjpeg_decode_init+0x160>
readSOFMarker():
C:\NucleiStudio_workspace3\simple_world\Debug/../src/picojpeg.c:623
      return PJPG_BAD_HEIGHT;
800038ae:	4d21                	li	s10,8
800038b0:	b959                	j	80003546 <pjpeg_decode_init+0x160>
C:\NucleiStudio_workspace3\simple_world\Debug/../src/picojpeg.c:628
      return PJPG_BAD_WIDTH;
800038b2:	4d25                	li	s10,9
800038b4:	b949                	j	80003546 <pjpeg_decode_init+0x160>
initFrame():
C:\NucleiStudio_workspace3\simple_world\Debug/../src/picojpeg.c:1139
      if ((gCompHSamp[0] == 1) && (gCompVSamp[0] == 1))
800038b6:	00064503          	lbu	a0,0(a2)
800038ba:	24b50363          	beq	a0,a1,80003b00 <pjpeg_decode_init+0x71a>
C:\NucleiStudio_workspace3\simple_world\Debug/../src/picojpeg.c:1151
      else if ((gCompHSamp[0] == 1) && (gCompVSamp[0] == 2))
800038be:	4689                	li	a3,2
800038c0:	c0d510e3          	bne	a0,a3,800034c0 <pjpeg_decode_init+0xda>
C:\NucleiStudio_workspace3\simple_world\Debug/../src/picojpeg.c:1153
         gScanType = PJPG_YH1V2;
800038c4:	8ac18693          	addi	a3,gp,-1876 # 900009fc <gScanType>
800038c8:	470d                	li	a4,3
800038ca:	c298                	sw	a4,0(a3)
800038cc:	ce36                	sw	a3,28(sp)
C:\NucleiStudio_workspace3\simple_world\Debug/../src/picojpeg.c:1155
         gMaxBlocksPerMCU = 4;
800038ce:	4691                	li	a3,4
800038d0:	88d18b23          	sb	a3,-1898(gp) # 900009e6 <gMaxBlocksPerMCU>
C:\NucleiStudio_workspace3\simple_world\Debug/../src/picojpeg.c:1156
         gMCUOrg[0] = 0;
800038d4:	020106b7          	lui	a3,0x2010
C:\NucleiStudio_workspace3\simple_world\Debug/../src/picojpeg.c:1161
         gMaxMCUXSize = 8;
800038d8:	89c18613          	addi	a2,gp,-1892 # 900009ec <gMaxMCUXSize>
C:\NucleiStudio_workspace3\simple_world\Debug/../src/picojpeg.c:1156
         gMCUOrg[0] = 0;
800038dc:	88d1a823          	sw	a3,-1904(gp) # 900009e0 <gMCUOrg>
C:\NucleiStudio_workspace3\simple_world\Debug/../src/picojpeg.c:1161
         gMaxMCUXSize = 8;
800038e0:	4721                	li	a4,8
C:\NucleiStudio_workspace3\simple_world\Debug/../src/picojpeg.c:1162
         gMaxMCUYSize = 16;
800038e2:	89d18793          	addi	a5,gp,-1891 # 900009ed <gMaxMCUYSize>
C:\NucleiStudio_workspace3\simple_world\Debug/../src/picojpeg.c:1161
         gMaxMCUXSize = 8;
800038e6:	00e60023          	sb	a4,0(a2)
C:\NucleiStudio_workspace3\simple_world\Debug/../src/picojpeg.c:1162
         gMaxMCUYSize = 16;
800038ea:	4741                	li	a4,16
C:\NucleiStudio_workspace3\simple_world\Debug/../src/picojpeg.c:1161
         gMaxMCUXSize = 8;
800038ec:	ca32                	sw	a2,20(sp)
C:\NucleiStudio_workspace3\simple_world\Debug/../src/picojpeg.c:1162
         gMaxMCUYSize = 16;
800038ee:	cc3e                	sw	a5,24(sp)
800038f0:	00e78023          	sb	a4,0(a5)
800038f4:	45bd                	li	a1,15
800038f6:	46c1                	li	a3,16
800038f8:	bf8d                	j	8000386a <pjpeg_decode_init+0x484>
800038fa:	8f6e                	mv	t5,s11
getBits1():
C:\NucleiStudio_workspace3\simple_world\Debug/../src/picojpeg.c:321
   return getBits(numBits, 0);
800038fc:	4581                	li	a1,0
800038fe:	4521                	li	a0,8
80003900:	c87a                	sw	t5,16(sp)
80003902:	5db2                	lw	s11,44(sp)
80003904:	df1fd0ef          	jal	ra,800016f4 <getBits>
80003908:	4581                	li	a1,0
8000390a:	4521                	li	a0,8
8000390c:	de9fd0ef          	jal	ra,800016f4 <getBits>
80003910:	4581                	li	a1,0
80003912:	4511                	li	a0,4
80003914:	de1fd0ef          	jal	ra,800016f4 <getBits>
80003918:	4581                	li	a1,0
8000391a:	4511                	li	a0,4
8000391c:	dd9fd0ef          	jal	ra,800016f4 <getBits>
readSOSMarker():
C:\NucleiStudio_workspace3\simple_world\Debug/../src/picojpeg.c:721
   left -= 3;
80003920:	4f42                	lw	t5,16(sp)
C:\NucleiStudio_workspace3\simple_world\Debug/../src/picojpeg.c:723
   while (left)                  
80003922:	86418893          	addi	a7,gp,-1948 # 900009b4 <gCompACTab>
C:\NucleiStudio_workspace3\simple_world\Debug/../src/picojpeg.c:721
   left -= 3;
80003926:	1f6d                	addi	t5,t5,-5
80003928:	010f1d13          	slli	s10,t5,0x10
8000392c:	010d5d13          	srli	s10,s10,0x10
C:\NucleiStudio_workspace3\simple_world\Debug/../src/picojpeg.c:723
   while (left)                  
80003930:	000d0e63          	beqz	s10,8000394c <pjpeg_decode_init+0x566>
getBits1():
C:\NucleiStudio_workspace3\simple_world\Debug/../src/picojpeg.c:321
   return getBits(numBits, 0);
80003934:	4581                	li	a1,0
80003936:	4521                	li	a0,8
readSOSMarker():
C:\NucleiStudio_workspace3\simple_world\Debug/../src/picojpeg.c:726
      left--;
80003938:	1d7d                	addi	s10,s10,-1
getBits1():
C:\NucleiStudio_workspace3\simple_world\Debug/../src/picojpeg.c:321
   return getBits(numBits, 0);
8000393a:	dbbfd0ef          	jal	ra,800016f4 <getBits>
readSOSMarker():
C:\NucleiStudio_workspace3\simple_world\Debug/../src/picojpeg.c:726
      left--;
8000393e:	0d42                	slli	s10,s10,0x10
80003940:	010d5d13          	srli	s10,s10,0x10
C:\NucleiStudio_workspace3\simple_world\Debug/../src/picojpeg.c:723
   while (left)                  
80003944:	86418893          	addi	a7,gp,-1948 # 900009b4 <gCompACTab>
80003948:	fe0d16e3          	bnez	s10,80003934 <pjpeg_decode_init+0x54e>
checkHuffTables():
C:\NucleiStudio_workspace3\simple_world\Debug/../src/picojpeg.c:1058
   for (i = 0; i < gCompsInScan; i++)
8000394c:	000a4683          	lbu	a3,0(s4)
80003950:	cead                	beqz	a3,800039ca <pjpeg_decode_init+0x5e4>
C:\NucleiStudio_workspace3\simple_world\Debug/../src/picojpeg.c:1060
      uint8 compDCTab = gCompDCTab[gCompList[i]];
80003952:	87418713          	addi	a4,gp,-1932 # 900009c4 <gCompList>
80003956:	00074583          	lbu	a1,0(a4)
C:\NucleiStudio_workspace3\simple_world\Debug/../src/picojpeg.c:1063
      if ( ((gValidHuffTables & (1 << compDCTab)) == 0) ||
8000395a:	4732                	lw	a4,12(sp)
8000395c:	4605                	li	a2,1
C:\NucleiStudio_workspace3\simple_world\Debug/../src/picojpeg.c:1060
      uint8 compDCTab = gCompDCTab[gCompList[i]];
8000395e:	00bc8533          	add	a0,s9,a1
C:\NucleiStudio_workspace3\simple_world\Debug/../src/picojpeg.c:1063
      if ( ((gValidHuffTables & (1 << compDCTab)) == 0) ||
80003962:	00074e83          	lbu	t4,0(a4)
C:\NucleiStudio_workspace3\simple_world\Debug/../src/picojpeg.c:1061
      uint8 compACTab = gCompACTab[gCompList[i]] + 2;
80003966:	00b88733          	add	a4,a7,a1
8000396a:	00074703          	lbu	a4,0(a4)
C:\NucleiStudio_workspace3\simple_world\Debug/../src/picojpeg.c:1063
      if ( ((gValidHuffTables & (1 << compDCTab)) == 0) ||
8000396e:	00054503          	lbu	a0,0(a0)
C:\NucleiStudio_workspace3\simple_world\Debug/../src/picojpeg.c:1061
      uint8 compACTab = gCompACTab[gCompList[i]] + 2;
80003972:	0709                	addi	a4,a4,2
80003974:	00e61733          	sll	a4,a2,a4
80003978:	00a61633          	sll	a2,a2,a0
8000397c:	8f51                	or	a4,a4,a2
C:\NucleiStudio_workspace3\simple_world\Debug/../src/picojpeg.c:1063
      if ( ((gValidHuffTables & (1 << compDCTab)) == 0) ||
8000397e:	01d77633          	and	a2,a4,t4
80003982:	04e61263          	bne	a2,a4,800039c6 <pjpeg_decode_init+0x5e0>
80003986:	fff68e13          	addi	t3,a3,-1 # 200ffff <__stack_size+0x200f7ff>
8000398a:	87418513          	addi	a0,gp,-1932 # 900009c4 <gCompList>
8000398e:	0ffe7e13          	andi	t3,t3,255
80003992:	9e2a                	add	t3,t3,a0
80003994:	87418613          	addi	a2,gp,-1932 # 900009c4 <gCompList>
80003998:	4305                	li	t1,1
C:\NucleiStudio_workspace3\simple_world\Debug/../src/picojpeg.c:1058
   for (i = 0; i < gCompsInScan; i++)
8000399a:	10ce0a63          	beq	t3,a2,80003aae <pjpeg_decode_init+0x6c8>
C:\NucleiStudio_workspace3\simple_world\Debug/../src/picojpeg.c:1060
      uint8 compDCTab = gCompDCTab[gCompList[i]];
8000399e:	00164703          	lbu	a4,1(a2)
C:\NucleiStudio_workspace3\simple_world\Debug/../src/picojpeg.c:1063
      if ( ((gValidHuffTables & (1 << compDCTab)) == 0) ||
800039a2:	0605                	addi	a2,a2,1
C:\NucleiStudio_workspace3\simple_world\Debug/../src/picojpeg.c:1061
      uint8 compACTab = gCompACTab[gCompList[i]] + 2;
800039a4:	00e887b3          	add	a5,a7,a4
800039a8:	0007c783          	lbu	a5,0(a5)
C:\NucleiStudio_workspace3\simple_world\Debug/../src/picojpeg.c:1060
      uint8 compDCTab = gCompDCTab[gCompList[i]];
800039ac:	9766                	add	a4,a4,s9
C:\NucleiStudio_workspace3\simple_world\Debug/../src/picojpeg.c:1063
      if ( ((gValidHuffTables & (1 << compDCTab)) == 0) ||
800039ae:	00074703          	lbu	a4,0(a4)
C:\NucleiStudio_workspace3\simple_world\Debug/../src/picojpeg.c:1061
      uint8 compACTab = gCompACTab[gCompList[i]] + 2;
800039b2:	0789                	addi	a5,a5,2
800039b4:	00f317b3          	sll	a5,t1,a5
800039b8:	00e31733          	sll	a4,t1,a4
800039bc:	8fd9                	or	a5,a5,a4
C:\NucleiStudio_workspace3\simple_world\Debug/../src/picojpeg.c:1063
      if ( ((gValidHuffTables & (1 << compDCTab)) == 0) ||
800039be:	01d7f733          	and	a4,a5,t4
800039c2:	fce78ce3          	beq	a5,a4,8000399a <pjpeg_decode_init+0x5b4>
800039c6:	4d61                	li	s10,24
800039c8:	bebd                	j	80003546 <pjpeg_decode_init+0x160>
initScan():
C:\NucleiStudio_workspace3\simple_world\Debug/../src/picojpeg.c:1107
   if (gRestartInterval)
800039ca:	4792                	lw	a5,4(sp)
C:\NucleiStudio_workspace3\simple_world\Debug/../src/picojpeg.c:1103
   gLastDC[0] = 0;
800039cc:	88818713          	addi	a4,gp,-1912 # 900009d8 <gLastDC>
C:\NucleiStudio_workspace3\simple_world\Debug/../src/picojpeg.c:1107
   if (gRestartInterval)
800039d0:	0007d683          	lhu	a3,0(a5)
C:\NucleiStudio_workspace3\simple_world\Debug/../src/picojpeg.c:1103
   gLastDC[0] = 0;
800039d4:	00072023          	sw	zero,0(a4)
C:\NucleiStudio_workspace3\simple_world\Debug/../src/picojpeg.c:1105
   gLastDC[2] = 0;
800039d8:	00071223          	sh	zero,4(a4)
C:\NucleiStudio_workspace3\simple_world\Debug/../src/picojpeg.c:1107
   if (gRestartInterval)
800039dc:	c689                	beqz	a3,800039e6 <pjpeg_decode_init+0x600>
C:\NucleiStudio_workspace3\simple_world\Debug/../src/picojpeg.c:1109
      gRestartsLeft = gRestartInterval;
800039de:	8ad19423          	sh	a3,-1880(gp) # 900009f8 <gRestartsLeft>
C:\NucleiStudio_workspace3\simple_world\Debug/../src/picojpeg.c:1110
      gNextRestartNum = 0;
800039e2:	88019f23          	sh	zero,-1890(gp) # 900009ee <gNextRestartNum>
fixInBuffer():
C:\NucleiStudio_workspace3\simple_world\Debug/../src/picojpeg.c:974
   if (gBitsLeft > 0)  
800039e6:	000bc503          	lbu	a0,0(s7)
800039ea:	000b4583          	lbu	a1,0(s6)
800039ee:	000c4703          	lbu	a4,0(s8)
800039f2:	fff50613          	addi	a2,a0,-1
800039f6:	00158813          	addi	a6,a1,1
800039fa:	00095683          	lhu	a3,0(s2)
800039fe:	0ff67613          	andi	a2,a2,255
80003a02:	0ff87813          	andi	a6,a6,255
80003a06:	eb79                	bnez	a4,80003adc <pjpeg_decode_init+0x6f6>
80003a08:	9000b737          	lui	a4,0x9000b
80003a0c:	afc70713          	addi	a4,a4,-1284 # 9000aafc <_sp+0xffffaafc>
stuffChar():
C:\NucleiStudio_workspace3\simple_world\Debug/../src/picojpeg.c:260
   gInBuf[gInBufOfs] = i;
80003a10:	9732                	add	a4,a4,a2
fixInBuffer():
C:\NucleiStudio_workspace3\simple_world\Debug/../src/picojpeg.c:977
   stuffChar((uint8)(gBitBuf >> 8));
80003a12:	82a1                	srli	a3,a3,0x8
80003a14:	00d70023          	sb	a3,0(a4)
getBits2():
C:\NucleiStudio_workspace3\simple_world\Debug/../src/picojpeg.c:326
   return getBits(numBits, 1);
80003a18:	4585                	li	a1,1
fixInBuffer():
C:\NucleiStudio_workspace3\simple_world\Debug/../src/picojpeg.c:979
   gBitsLeft = 8;
80003a1a:	4721                	li	a4,8
getBits2():
C:\NucleiStudio_workspace3\simple_world\Debug/../src/picojpeg.c:326
   return getBits(numBits, 1);
80003a1c:	4521                	li	a0,8
stuffChar():
C:\NucleiStudio_workspace3\simple_world\Debug/../src/picojpeg.c:259
   gInBufOfs--;
80003a1e:	00cb8023          	sb	a2,0(s7)
C:\NucleiStudio_workspace3\simple_world\Debug/../src/picojpeg.c:261
   gInBufLeft++;
80003a22:	010b0023          	sb	a6,0(s6)
fixInBuffer():
C:\NucleiStudio_workspace3\simple_world\Debug/../src/picojpeg.c:979
   gBitsLeft = 8;
80003a26:	00ec0023          	sb	a4,0(s8)
getBits2():
C:\NucleiStudio_workspace3\simple_world\Debug/../src/picojpeg.c:326
   return getBits(numBits, 1);
80003a2a:	ccbfd0ef          	jal	ra,800016f4 <getBits>
80003a2e:	4585                	li	a1,1
80003a30:	4521                	li	a0,8
80003a32:	cc3fd0ef          	jal	ra,800016f4 <getBits>
pjpeg_decode_init():
C:\NucleiStudio_workspace3\simple_world\Debug/../src/picojpeg.c:2315
   if ((status) || (gCallbackStatus))
80003a36:	00044d03          	lbu	s10,0(s0)
80003a3a:	a80d13e3          	bnez	s10,800034c0 <pjpeg_decode_init+0xda>
C:\NucleiStudio_workspace3\simple_world\Debug/../src/picojpeg.c:2319
   pInfo->m_scanType = gScanType;
80003a3e:	47f2                	lw	a5,28(sp)
C:\NucleiStudio_workspace3\simple_world\Debug/../src/picojpeg.c:2318
   pInfo->m_width = gImageXSize; pInfo->m_height = gImageYSize; pInfo->m_comps = gCompsInFrame;
80003a40:	000ade03          	lhu	t3,0(s5)
80003a44:	0009d303          	lhu	t1,0(s3)
C:\NucleiStudio_workspace3\simple_world\Debug/../src/picojpeg.c:2319
   pInfo->m_scanType = gScanType;
80003a48:	0007a803          	lw	a6,0(a5)
C:\NucleiStudio_workspace3\simple_world\Debug/../src/picojpeg.c:2320
   pInfo->m_MCUSPerRow = gMaxMCUSPerRow; pInfo->m_MCUSPerCol = gMaxMCUSPerCol;
80003a4c:	5792                	lw	a5,36(sp)
C:\NucleiStudio_workspace3\simple_world\Debug/../src/picojpeg.c:2318
   pInfo->m_width = gImageXSize; pInfo->m_height = gImageYSize; pInfo->m_comps = gCompsInFrame;
80003a4e:	0004c883          	lbu	a7,0(s1)
80003a52:	01cda023          	sw	t3,0(s11)
C:\NucleiStudio_workspace3\simple_world\Debug/../src/picojpeg.c:2320
   pInfo->m_MCUSPerRow = gMaxMCUSPerRow; pInfo->m_MCUSPerCol = gMaxMCUSPerCol;
80003a56:	0007d503          	lhu	a0,0(a5)
80003a5a:	5782                	lw	a5,32(sp)
C:\NucleiStudio_workspace3\simple_world\Debug/../src/picojpeg.c:2318
   pInfo->m_width = gImageXSize; pInfo->m_height = gImageYSize; pInfo->m_comps = gCompsInFrame;
80003a5c:	006da223          	sw	t1,4(s11)
80003a60:	011da423          	sw	a7,8(s11)
C:\NucleiStudio_workspace3\simple_world\Debug/../src/picojpeg.c:2320
   pInfo->m_MCUSPerRow = gMaxMCUSPerRow; pInfo->m_MCUSPerCol = gMaxMCUSPerCol;
80003a64:	0007d583          	lhu	a1,0(a5)
C:\NucleiStudio_workspace3\simple_world\Debug/../src/picojpeg.c:2321
   pInfo->m_MCUWidth = gMaxMCUXSize; pInfo->m_MCUHeight = gMaxMCUYSize;
80003a68:	47d2                	lw	a5,20(sp)
C:\NucleiStudio_workspace3\simple_world\Debug/../src/picojpeg.c:2319
   pInfo->m_scanType = gScanType;
80003a6a:	010daa23          	sw	a6,20(s11)
C:\NucleiStudio_workspace3\simple_world\Debug/../src/picojpeg.c:2320
   pInfo->m_MCUSPerRow = gMaxMCUSPerRow; pInfo->m_MCUSPerCol = gMaxMCUSPerCol;
80003a6e:	00ada623          	sw	a0,12(s11)
C:\NucleiStudio_workspace3\simple_world\Debug/../src/picojpeg.c:2321
   pInfo->m_MCUWidth = gMaxMCUXSize; pInfo->m_MCUHeight = gMaxMCUYSize;
80003a72:	0007c603          	lbu	a2,0(a5)
80003a76:	47e2                	lw	a5,24(sp)
C:\NucleiStudio_workspace3\simple_world\Debug/../src/picojpeg.c:2320
   pInfo->m_MCUSPerRow = gMaxMCUSPerRow; pInfo->m_MCUSPerCol = gMaxMCUSPerCol;
80003a78:	00bda823          	sw	a1,16(s11)
C:\NucleiStudio_workspace3\simple_world\Debug/../src/picojpeg.c:2321
   pInfo->m_MCUWidth = gMaxMCUXSize; pInfo->m_MCUHeight = gMaxMCUYSize;
80003a7c:	00cdac23          	sw	a2,24(s11)
80003a80:	0007c683          	lbu	a3,0(a5)
80003a84:	00ddae23          	sw	a3,28(s11)
C:\NucleiStudio_workspace3\simple_world\Debug/../src/picojpeg.c:2322
   pInfo->m_pMCUBufR = gMCUBufR; pInfo->m_pMCUBufG = gMCUBufG; pInfo->m_pMCUBufB = gMCUBufB;
80003a88:	9000b6b7          	lui	a3,0x9000b
80003a8c:	dfc68693          	addi	a3,a3,-516 # 9000adfc <_sp+0xffffadfc>
80003a90:	02dda023          	sw	a3,32(s11)
80003a94:	9000b6b7          	lui	a3,0x9000b
80003a98:	cfc68693          	addi	a3,a3,-772 # 9000acfc <_sp+0xffffacfc>
80003a9c:	02dda223          	sw	a3,36(s11)
80003aa0:	9000b6b7          	lui	a3,0x9000b
80003aa4:	bfc68693          	addi	a3,a3,-1028 # 9000abfc <_sp+0xffffabfc>
80003aa8:	02dda423          	sw	a3,40(s11)
C:\NucleiStudio_workspace3\simple_world\Debug/../src/picojpeg.c:2324
   return 0;
80003aac:	bc11                	j	800034c0 <pjpeg_decode_init+0xda>
checkQuantTables():
C:\NucleiStudio_workspace3\simple_world\Debug/../src/picojpeg.c:1079
      if ((gValidQuantTables & compQuantMask) == 0)
80003aae:	47a2                	lw	a5,8(sp)
80003ab0:	87818c93          	addi	s9,gp,-1928 # 900009c8 <gCompQuant>
80003ab4:	0007c803          	lbu	a6,0(a5)
80003ab8:	87ae                	mv	a5,a1
80003aba:	a031                	j	80003ac6 <pjpeg_decode_init+0x6e0>
C:\NucleiStudio_workspace3\simple_world\Debug/../src/picojpeg.c:1075
   for (i = 0; i < gCompsInScan; i++)
80003abc:	f0c507e3          	beq	a0,a2,800039ca <pjpeg_decode_init+0x5e4>
80003ac0:	00154783          	lbu	a5,1(a0)
80003ac4:	0505                	addi	a0,a0,1
C:\NucleiStudio_workspace3\simple_world\Debug/../src/picojpeg.c:1077
      uint8 compQuantMask = gCompQuant[gCompList[i]] ? 2 : 1;
80003ac6:	97e6                	add	a5,a5,s9
80003ac8:	0007c783          	lbu	a5,0(a5)
80003acc:	00f037b3          	snez	a5,a5
80003ad0:	0785                	addi	a5,a5,1
C:\NucleiStudio_workspace3\simple_world\Debug/../src/picojpeg.c:1079
      if ((gValidQuantTables & compQuantMask) == 0)
80003ad2:	00f877b3          	and	a5,a6,a5
80003ad6:	f3fd                	bnez	a5,80003abc <pjpeg_decode_init+0x6d6>
C:\NucleiStudio_workspace3\simple_world\Debug/../src/picojpeg.c:1080
         return PJPG_UNDEFINED_QUANT_TABLE;
80003ad8:	4d5d                	li	s10,23
80003ada:	b4b5                	j	80003546 <pjpeg_decode_init+0x160>
stuffChar():
C:\NucleiStudio_workspace3\simple_world\Debug/../src/picojpeg.c:260
   gInBuf[gInBufOfs] = i;
80003adc:	9000b737          	lui	a4,0x9000b
80003ae0:	afc70713          	addi	a4,a4,-1284 # 9000aafc <_sp+0xffffaafc>
80003ae4:	963a                	add	a2,a2,a4
80003ae6:	1579                	addi	a0,a0,-2
80003ae8:	0589                	addi	a1,a1,2
fixInBuffer():
C:\NucleiStudio_workspace3\simple_world\Debug/../src/picojpeg.c:975
      stuffChar((uint8)gBitBuf);
80003aea:	00d60023          	sb	a3,0(a2)
stuffChar():
C:\NucleiStudio_workspace3\simple_world\Debug/../src/picojpeg.c:261
   gInBufLeft++;
80003aee:	0ff5f813          	andi	a6,a1,255
80003af2:	0ff57613          	andi	a2,a0,255
80003af6:	bf29                	j	80003a10 <pjpeg_decode_init+0x62a>
readSOFMarker():
C:\NucleiStudio_workspace3\simple_world\Debug/../src/picojpeg.c:636
      return PJPG_BAD_SOF_LENGTH;
80003af8:	4d2d                	li	s10,11
80003afa:	b4b1                	j	80003546 <pjpeg_decode_init+0x160>
C:\NucleiStudio_workspace3\simple_world\Debug/../src/picojpeg.c:633
      return PJPG_TOO_MANY_COMPONENTS;
80003afc:	4d29                	li	s10,10
80003afe:	b4a1                	j	80003546 <pjpeg_decode_init+0x160>
initFrame():
C:\NucleiStudio_workspace3\simple_world\Debug/../src/picojpeg.c:1148
         gMaxMCUXSize = 8;
80003b00:	89c18893          	addi	a7,gp,-1892 # 900009ec <gMaxMCUXSize>
C:\NucleiStudio_workspace3\simple_world\Debug/../src/picojpeg.c:1144
         gMCUOrg[0] = 0;
80003b04:	89018713          	addi	a4,gp,-1904 # 900009e0 <gMCUOrg>
C:\NucleiStudio_workspace3\simple_world\Debug/../src/picojpeg.c:1143
         gMaxBlocksPerMCU = 3;
80003b08:	88d18b23          	sb	a3,-1898(gp) # 900009e6 <gMaxBlocksPerMCU>
C:\NucleiStudio_workspace3\simple_world\Debug/../src/picojpeg.c:1144
         gMCUOrg[0] = 0;
80003b0c:	10000693          	li	a3,256
C:\NucleiStudio_workspace3\simple_world\Debug/../src/picojpeg.c:1148
         gMaxMCUXSize = 8;
80003b10:	45a1                	li	a1,8
C:\NucleiStudio_workspace3\simple_world\Debug/../src/picojpeg.c:1141
         gScanType = PJPG_YH1V1;
80003b12:	8ac18813          	addi	a6,gp,-1876 # 900009fc <gScanType>
C:\NucleiStudio_workspace3\simple_world\Debug/../src/picojpeg.c:1149
         gMaxMCUYSize = 8;
80003b16:	89d18793          	addi	a5,gp,-1891 # 900009ed <gMaxMCUYSize>
C:\NucleiStudio_workspace3\simple_world\Debug/../src/picojpeg.c:1144
         gMCUOrg[0] = 0;
80003b1a:	00d71023          	sh	a3,0(a4)
C:\NucleiStudio_workspace3\simple_world\Debug/../src/picojpeg.c:1146
         gMCUOrg[2] = 2;
80003b1e:	4689                	li	a3,2
80003b20:	00d70123          	sb	a3,2(a4)
C:\NucleiStudio_workspace3\simple_world\Debug/../src/picojpeg.c:1148
         gMaxMCUXSize = 8;
80003b24:	00b88023          	sb	a1,0(a7)
C:\NucleiStudio_workspace3\simple_world\Debug/../src/picojpeg.c:1149
         gMaxMCUYSize = 8;
80003b28:	00b78023          	sb	a1,0(a5)
C:\NucleiStudio_workspace3\simple_world\Debug/../src/picojpeg.c:1141
         gScanType = PJPG_YH1V1;
80003b2c:	ce42                	sw	a6,28(sp)
C:\NucleiStudio_workspace3\simple_world\Debug/../src/picojpeg.c:1148
         gMaxMCUXSize = 8;
80003b2e:	ca46                	sw	a7,20(sp)
C:\NucleiStudio_workspace3\simple_world\Debug/../src/picojpeg.c:1149
         gMaxMCUYSize = 8;
80003b30:	cc3e                	sw	a5,24(sp)
C:\NucleiStudio_workspace3\simple_world\Debug/../src/picojpeg.c:1141
         gScanType = PJPG_YH1V1;
80003b32:	00a82023          	sw	a0,0(a6)
C:\NucleiStudio_workspace3\simple_world\Debug/../src/picojpeg.c:1149
         gMaxMCUYSize = 8;
80003b36:	459d                	li	a1,7
80003b38:	46a1                	li	a3,8
80003b3a:	bb05                	j	8000386a <pjpeg_decode_init+0x484>
C:\NucleiStudio_workspace3\simple_world\Debug/../src/picojpeg.c:1166
         gScanType = PJPG_YH2V1;
80003b3c:	8ac18693          	addi	a3,gp,-1876 # 900009fc <gScanType>
80003b40:	4709                	li	a4,2
80003b42:	c298                	sw	a4,0(a3)
80003b44:	ce36                	sw	a3,28(sp)
C:\NucleiStudio_workspace3\simple_world\Debug/../src/picojpeg.c:1168
         gMaxBlocksPerMCU = 4;
80003b46:	4691                	li	a3,4
80003b48:	88d18b23          	sb	a3,-1898(gp) # 900009e6 <gMaxBlocksPerMCU>
C:\NucleiStudio_workspace3\simple_world\Debug/../src/picojpeg.c:1169
         gMCUOrg[0] = 0;
80003b4c:	020106b7          	lui	a3,0x2010
C:\NucleiStudio_workspace3\simple_world\Debug/../src/picojpeg.c:1174
         gMaxMCUXSize = 16;
80003b50:	89c18613          	addi	a2,gp,-1892 # 900009ec <gMaxMCUXSize>
C:\NucleiStudio_workspace3\simple_world\Debug/../src/picojpeg.c:1169
         gMCUOrg[0] = 0;
80003b54:	88d1a823          	sw	a3,-1904(gp) # 900009e0 <gMCUOrg>
C:\NucleiStudio_workspace3\simple_world\Debug/../src/picojpeg.c:1174
         gMaxMCUXSize = 16;
80003b58:	4741                	li	a4,16
C:\NucleiStudio_workspace3\simple_world\Debug/../src/picojpeg.c:1175
         gMaxMCUYSize = 8;
80003b5a:	89d18793          	addi	a5,gp,-1891 # 900009ed <gMaxMCUYSize>
C:\NucleiStudio_workspace3\simple_world\Debug/../src/picojpeg.c:1174
         gMaxMCUXSize = 16;
80003b5e:	00e60023          	sb	a4,0(a2)
C:\NucleiStudio_workspace3\simple_world\Debug/../src/picojpeg.c:1175
         gMaxMCUYSize = 8;
80003b62:	4721                	li	a4,8
C:\NucleiStudio_workspace3\simple_world\Debug/../src/picojpeg.c:1174
         gMaxMCUXSize = 16;
80003b64:	ca32                	sw	a2,20(sp)
C:\NucleiStudio_workspace3\simple_world\Debug/../src/picojpeg.c:1175
         gMaxMCUYSize = 8;
80003b66:	cc3e                	sw	a5,24(sp)
80003b68:	00e78023          	sb	a4,0(a5)
80003b6c:	459d                	li	a1,7
80003b6e:	46a1                	li	a3,8
80003b70:	be55                	j	80003724 <pjpeg_decode_init+0x33e>

80003b72 <_exit>:
_exit():
C:\NucleiStudio_workspace3\simple_world\Debug/../bsp/hbird-e200/stubs/_exit.c:8
#include <unistd.h>
#include "platform.h"

void _exit(int code)
{
  const char message[] = "\nProgram has exited with code:";
80003b72:	90000737          	lui	a4,0x90000
80003b76:	1bc70793          	addi	a5,a4,444 # 900001bc <_sp+0xffff01bc>
80003b7a:	1bc72f03          	lw	t5,444(a4)
80003b7e:	0047ae83          	lw	t4,4(a5)
80003b82:	0087ae03          	lw	t3,8(a5)
80003b86:	00c7a303          	lw	t1,12(a5)
80003b8a:	0107a883          	lw	a7,16(a5)
80003b8e:	0147a803          	lw	a6,20(a5)
80003b92:	4f94                	lw	a3,24(a5)
80003b94:	01c7d703          	lhu	a4,28(a5)
80003b98:	01e7c783          	lbu	a5,30(a5)
C:\NucleiStudio_workspace3\simple_world\Debug/../bsp/hbird-e200/stubs/_exit.c:7
{
80003b9c:	7179                	addi	sp,sp,-48
C:\NucleiStudio_workspace3\simple_world\Debug/../bsp/hbird-e200/stubs/_exit.c:10

  write(STDERR_FILENO, message, sizeof(message) - 1);
80003b9e:	4679                	li	a2,30
C:\NucleiStudio_workspace3\simple_world\Debug/../bsp/hbird-e200/stubs/_exit.c:7
{
80003ba0:	d422                	sw	s0,40(sp)
C:\NucleiStudio_workspace3\simple_world\Debug/../bsp/hbird-e200/stubs/_exit.c:10
  write(STDERR_FILENO, message, sizeof(message) - 1);
80003ba2:	858a                	mv	a1,sp
C:\NucleiStudio_workspace3\simple_world\Debug/../bsp/hbird-e200/stubs/_exit.c:7
{
80003ba4:	842a                	mv	s0,a0
C:\NucleiStudio_workspace3\simple_world\Debug/../bsp/hbird-e200/stubs/_exit.c:10
  write(STDERR_FILENO, message, sizeof(message) - 1);
80003ba6:	4509                	li	a0,2
C:\NucleiStudio_workspace3\simple_world\Debug/../bsp/hbird-e200/stubs/_exit.c:7
{
80003ba8:	d606                	sw	ra,44(sp)
C:\NucleiStudio_workspace3\simple_world\Debug/../bsp/hbird-e200/stubs/_exit.c:8
  const char message[] = "\nProgram has exited with code:";
80003baa:	c07a                	sw	t5,0(sp)
80003bac:	c276                	sw	t4,4(sp)
80003bae:	c472                	sw	t3,8(sp)
80003bb0:	c61a                	sw	t1,12(sp)
80003bb2:	c846                	sw	a7,16(sp)
80003bb4:	ca42                	sw	a6,20(sp)
80003bb6:	cc36                	sw	a3,24(sp)
80003bb8:	00e11e23          	sh	a4,28(sp)
80003bbc:	00f10f23          	sb	a5,30(sp)
C:\NucleiStudio_workspace3\simple_world\Debug/../bsp/hbird-e200/stubs/_exit.c:10
  write(STDERR_FILENO, message, sizeof(message) - 1);
80003bc0:	2b4d                	jal	80004172 <write>
C:\NucleiStudio_workspace3\simple_world\Debug/../bsp/hbird-e200/stubs/_exit.c:11
  write_hex(STDERR_FILENO, code);
80003bc2:	85a2                	mv	a1,s0
80003bc4:	4509                	li	a0,2
80003bc6:	28e1                	jal	80003c9e <write_hex>
C:\NucleiStudio_workspace3\simple_world\Debug/../bsp/hbird-e200/stubs/_exit.c:12
  write(STDERR_FILENO, "\n", 1);
80003bc8:	900005b7          	lui	a1,0x90000
80003bcc:	4605                	li	a2,1
80003bce:	1e458593          	addi	a1,a1,484 # 900001e4 <_sp+0xffff01e4>
80003bd2:	4509                	li	a0,2
80003bd4:	2b79                	jal	80004172 <write>
C:\NucleiStudio_workspace3\simple_world\Debug/../bsp/hbird-e200/stubs/_exit.c:14 (discriminator 1)

  for (;;);
80003bd6:	a001                	j	80003bd6 <_exit+0x64>

80003bd8 <_close>:
_close():
C:\NucleiStudio_workspace3\simple_world\Debug/../bsp/hbird-e200/stubs/close.c:9
#include "stub.h"

int _close(int fd)
{
  return _stub(EBADF);
}
80003bd8:	557d                	li	a0,-1
80003bda:	8082                	ret

80003bdc <_fstat>:
_fstat():
C:\NucleiStudio_workspace3\simple_world\Debug/../bsp/hbird-e200/stubs/fstat.c:9
#include <unistd.h>
#include <sys/stat.h>
#include "stub.h"

int _fstat(int fd, struct stat* st)
{
80003bdc:	1141                	addi	sp,sp,-16
80003bde:	c422                	sw	s0,8(sp)
80003be0:	c606                	sw	ra,12(sp)
80003be2:	842e                	mv	s0,a1
C:\NucleiStudio_workspace3\simple_world\Debug/../bsp/hbird-e200/stubs/fstat.c:10
  if (isatty(fd)) {
80003be4:	2369                	jal	8000416e <isatty>
80003be6:	c901                	beqz	a0,80003bf6 <_fstat+0x1a>
C:\NucleiStudio_workspace3\simple_world\Debug/../bsp/hbird-e200/stubs/fstat.c:11
    st->st_mode = S_IFCHR;
80003be8:	6789                	lui	a5,0x2
80003bea:	c05c                	sw	a5,4(s0)
C:\NucleiStudio_workspace3\simple_world\Debug/../bsp/hbird-e200/stubs/fstat.c:12
    return 0;
80003bec:	4501                	li	a0,0
C:\NucleiStudio_workspace3\simple_world\Debug/../bsp/hbird-e200/stubs/fstat.c:16
  }

  return _stub(EBADF);
}
80003bee:	40b2                	lw	ra,12(sp)
80003bf0:	4422                	lw	s0,8(sp)
80003bf2:	0141                	addi	sp,sp,16
80003bf4:	8082                	ret
C:\NucleiStudio_workspace3\simple_world\Debug/../bsp/hbird-e200/stubs/fstat.c:15
  return _stub(EBADF);
80003bf6:	557d                	li	a0,-1
80003bf8:	bfdd                	j	80003bee <_fstat+0x12>

80003bfa <_isatty>:
_isatty():
C:\NucleiStudio_workspace3\simple_world\Debug/../bsp/hbird-e200/stubs/isatty.c:7

#include <unistd.h>

int _isatty(int fd)
{
  if (fd == STDOUT_FILENO || fd == STDERR_FILENO)
80003bfa:	157d                	addi	a0,a0,-1
C:\NucleiStudio_workspace3\simple_world\Debug/../bsp/hbird-e200/stubs/isatty.c:11
    return 1;

  return 0;
}
80003bfc:	00253513          	sltiu	a0,a0,2
80003c00:	8082                	ret

80003c02 <_lseek>:
_lseek():
C:\NucleiStudio_workspace3\simple_world\Debug/../bsp/hbird-e200/stubs/lseek.c:9
#include <unistd.h>
#include <sys/types.h>
#include "stub.h"

off_t _lseek(int fd, off_t ptr, int dir)
{
80003c02:	1141                	addi	sp,sp,-16
80003c04:	c606                	sw	ra,12(sp)
C:\NucleiStudio_workspace3\simple_world\Debug/../bsp/hbird-e200/stubs/lseek.c:10
  if (isatty(fd))
80003c06:	23a5                	jal	8000416e <isatty>
C:\NucleiStudio_workspace3\simple_world\Debug/../bsp/hbird-e200/stubs/lseek.c:14
    return 0;

  return _stub(EBADF);
}
80003c08:	40b2                	lw	ra,12(sp)
C:\NucleiStudio_workspace3\simple_world\Debug/../bsp/hbird-e200/stubs/lseek.c:10
  if (isatty(fd))
80003c0a:	00153513          	seqz	a0,a0
C:\NucleiStudio_workspace3\simple_world\Debug/../bsp/hbird-e200/stubs/lseek.c:14
}
80003c0e:	40a00533          	neg	a0,a0
80003c12:	0141                	addi	sp,sp,16
80003c14:	8082                	ret

80003c16 <_read>:
_read():
C:\NucleiStudio_workspace3\simple_world\Debug/../bsp/hbird-e200/stubs/read.c:32
  //  }
  //  return result;
  //}

  return _stub(EBADF);
}
80003c16:	557d                	li	a0,-1
80003c18:	8082                	ret

80003c1a <_sbrk>:
_sbrk():
C:\NucleiStudio_workspace3\simple_world\Debug/../bsp/hbird-e200/stubs/sbrk.c:11
{
  extern char _end[];
  extern char _heap_end[];
  static char *curbrk = _end;

  if ((curbrk + incr < _end) || (curbrk + incr > _heap_end))
80003c1a:	900017b7          	lui	a5,0x90001
80003c1e:	95078793          	addi	a5,a5,-1712 # 90000950 <_sp+0xffff0950>
80003c22:	4394                	lw	a3,0(a5)
80003c24:	9000b737          	lui	a4,0x9000b
80003c28:	09070713          	addi	a4,a4,144 # 9000b090 <_sp+0xffffb090>
80003c2c:	9536                	add	a0,a0,a3
80003c2e:	00e56b63          	bltu	a0,a4,80003c44 <_sbrk+0x2a>
C:\NucleiStudio_workspace3\simple_world\Debug/../bsp/hbird-e200/stubs/sbrk.c:11 (discriminator 1)
80003c32:	90010737          	lui	a4,0x90010
80003c36:	80070713          	addi	a4,a4,-2048 # 9000f800 <_sp+0xfffff800>
80003c3a:	00a76563          	bltu	a4,a0,80003c44 <_sbrk+0x2a>
C:\NucleiStudio_workspace3\simple_world\Debug/../bsp/hbird-e200/stubs/sbrk.c:14
    return NULL - 1;

  curbrk += incr;
80003c3e:	c388                	sw	a0,0(a5)
C:\NucleiStudio_workspace3\simple_world\Debug/../bsp/hbird-e200/stubs/sbrk.c:16
  return curbrk - incr;
}
80003c40:	8536                	mv	a0,a3
80003c42:	8082                	ret
C:\NucleiStudio_workspace3\simple_world\Debug/../bsp/hbird-e200/stubs/sbrk.c:12
    return NULL - 1;
80003c44:	56fd                	li	a3,-1
C:\NucleiStudio_workspace3\simple_world\Debug/../bsp/hbird-e200/stubs/sbrk.c:16
}
80003c46:	8536                	mv	a0,a3
80003c48:	8082                	ret

80003c4a <_write>:
_write():
C:\NucleiStudio_workspace3\simple_world\Debug/../bsp/hbird-e200/stubs/write.c:12

#include "platform.h"
#include "stub.h"

ssize_t _write(int fd, const void* ptr, size_t len)
{
80003c4a:	1141                	addi	sp,sp,-16
80003c4c:	c422                	sw	s0,8(sp)
80003c4e:	c226                	sw	s1,4(sp)
80003c50:	c606                	sw	ra,12(sp)
80003c52:	842e                	mv	s0,a1
80003c54:	84b2                	mv	s1,a2
C:\NucleiStudio_workspace3\simple_world\Debug/../bsp/hbird-e200/stubs/write.c:15
  const uint8_t * current = (const char *)ptr;

  if (isatty(fd)) {
80003c56:	2b21                	jal	8000416e <isatty>
80003c58:	c129                	beqz	a0,80003c9a <_write+0x50>
C:\NucleiStudio_workspace3\simple_world\Debug/../bsp/hbird-e200/stubs/write.c:16
    for (size_t jj = 0; jj < len; jj++) {
80003c5a:	c48d                	beqz	s1,80003c84 <_write+0x3a>
80003c5c:	85a2                	mv	a1,s0
80003c5e:	00940833          	add	a6,s0,s1
C:\NucleiStudio_workspace3\simple_world\Debug/../bsp/hbird-e200/stubs/write.c:17
      while (UART0_REG(UART_REG_TXFIFO) & 0x80000000) ;
80003c62:	10013737          	lui	a4,0x10013
C:\NucleiStudio_workspace3\simple_world\Debug/../bsp/hbird-e200/stubs/write.c:20
      UART0_REG(UART_REG_TXFIFO) = current[jj];

      if (current[jj] == '\n') {
80003c66:	46a9                	li	a3,10
C:\NucleiStudio_workspace3\simple_world\Debug/../bsp/hbird-e200/stubs/write.c:22
        while (UART0_REG(UART_REG_TXFIFO) & 0x80000000) ;
        UART0_REG(UART_REG_TXFIFO) = '\r';
80003c68:	4635                	li	a2,13
C:\NucleiStudio_workspace3\simple_world\Debug/../bsp/hbird-e200/stubs/write.c:17 (discriminator 1)
      while (UART0_REG(UART_REG_TXFIFO) & 0x80000000) ;
80003c6a:	431c                	lw	a5,0(a4)
80003c6c:	fe07cfe3          	bltz	a5,80003c6a <_write+0x20>
C:\NucleiStudio_workspace3\simple_world\Debug/../bsp/hbird-e200/stubs/write.c:18
      UART0_REG(UART_REG_TXFIFO) = current[jj];
80003c70:	0005c783          	lbu	a5,0(a1)
80003c74:	c31c                	sw	a5,0(a4)
C:\NucleiStudio_workspace3\simple_world\Debug/../bsp/hbird-e200/stubs/write.c:20
      if (current[jj] == '\n') {
80003c76:	0005c783          	lbu	a5,0(a1)
80003c7a:	00d78b63          	beq	a5,a3,80003c90 <_write+0x46>
80003c7e:	0585                	addi	a1,a1,1
C:\NucleiStudio_workspace3\simple_world\Debug/../bsp/hbird-e200/stubs/write.c:16 (discriminator 2)
    for (size_t jj = 0; jj < len; jj++) {
80003c80:	ff0595e3          	bne	a1,a6,80003c6a <_write+0x20>
C:\NucleiStudio_workspace3\simple_world\Debug/../bsp/hbird-e200/stubs/write.c:25
      }
    }
    return len;
80003c84:	8526                	mv	a0,s1
C:\NucleiStudio_workspace3\simple_world\Debug/../bsp/hbird-e200/stubs/write.c:29
  }

  return _stub(EBADF);
}
80003c86:	40b2                	lw	ra,12(sp)
80003c88:	4422                	lw	s0,8(sp)
80003c8a:	4492                	lw	s1,4(sp)
80003c8c:	0141                	addi	sp,sp,16
80003c8e:	8082                	ret
C:\NucleiStudio_workspace3\simple_world\Debug/../bsp/hbird-e200/stubs/write.c:21 (discriminator 1)
        while (UART0_REG(UART_REG_TXFIFO) & 0x80000000) ;
80003c90:	431c                	lw	a5,0(a4)
80003c92:	fe07cfe3          	bltz	a5,80003c90 <_write+0x46>
C:\NucleiStudio_workspace3\simple_world\Debug/../bsp/hbird-e200/stubs/write.c:22
        UART0_REG(UART_REG_TXFIFO) = '\r';
80003c96:	c310                	sw	a2,0(a4)
80003c98:	b7dd                	j	80003c7e <_write+0x34>
C:\NucleiStudio_workspace3\simple_world\Debug/../bsp/hbird-e200/stubs/write.c:28
  return _stub(EBADF);
80003c9a:	557d                	li	a0,-1
80003c9c:	b7ed                	j	80003c86 <_write+0x3c>

80003c9e <write_hex>:
write_hex():
C:\NucleiStudio_workspace3\simple_world\Debug/../bsp/hbird-e200/stubs/write_hex.c:8
#include <stdint.h>
#include <unistd.h>
#include "platform.h"

void write_hex(int fd, unsigned long int hex)
{
80003c9e:	7179                	addi	sp,sp,-48
80003ca0:	ca56                	sw	s5,20(sp)
80003ca2:	8aae                	mv	s5,a1
C:\NucleiStudio_workspace3\simple_world\Debug/../bsp/hbird-e200/stubs/write_hex.c:12
  uint8_t ii;
  uint8_t jj;
  char towrite;
  write(fd , "0x", 2);
80003ca4:	900005b7          	lui	a1,0x90000
80003ca8:	4609                	li	a2,2
80003caa:	1dc58593          	addi	a1,a1,476 # 900001dc <_sp+0xffff01dc>
C:\NucleiStudio_workspace3\simple_world\Debug/../bsp/hbird-e200/stubs/write_hex.c:8
{
80003cae:	d422                	sw	s0,40(sp)
80003cb0:	d226                	sw	s1,36(sp)
80003cb2:	d04a                	sw	s2,32(sp)
80003cb4:	ce4e                	sw	s3,28(sp)
80003cb6:	cc52                	sw	s4,24(sp)
80003cb8:	d606                	sw	ra,44(sp)
80003cba:	8a2a                	mv	s4,a0
C:\NucleiStudio_workspace3\simple_world\Debug/../bsp/hbird-e200/stubs/write_hex.c:12
  write(fd , "0x", 2);
80003cbc:	4471                	li	s0,28
80003cbe:	2955                	jal	80004172 <write>
C:\NucleiStudio_workspace3\simple_world\Debug/../bsp/hbird-e200/stubs/write_hex.c:15
  for (ii = sizeof(unsigned long int) * 2 ; ii > 0; ii--) {
    jj = ii - 1;
    uint8_t digit = ((hex & (0xF << (jj*4))) >> (jj*4));
80003cc0:	49bd                	li	s3,15
C:\NucleiStudio_workspace3\simple_world\Debug/../bsp/hbird-e200/stubs/write_hex.c:16
    towrite = digit < 0xA ? ('0' + digit) : ('A' +  (digit - 0xA));
80003cc2:	4925                	li	s2,9
C:\NucleiStudio_workspace3\simple_world\Debug/../bsp/hbird-e200/stubs/write_hex.c:13
  for (ii = sizeof(unsigned long int) * 2 ; ii > 0; ii--) {
80003cc4:	54f1                	li	s1,-4
80003cc6:	a831                	j	80003ce2 <write_hex+0x44>
C:\NucleiStudio_workspace3\simple_world\Debug/../bsp/hbird-e200/stubs/write_hex.c:16 (discriminator 1)
    towrite = digit < 0xA ? ('0' + digit) : ('A' +  (digit - 0xA));
80003cc8:	01869793          	slli	a5,a3,0x18
80003ccc:	87e1                	srai	a5,a5,0x18
80003cce:	1471                	addi	s0,s0,-4
C:\NucleiStudio_workspace3\simple_world\Debug/../bsp/hbird-e200/stubs/write_hex.c:17 (discriminator 1)
    write(fd, &towrite, 1);
80003cd0:	4605                	li	a2,1
80003cd2:	00f10593          	addi	a1,sp,15
80003cd6:	8552                	mv	a0,s4
C:\NucleiStudio_workspace3\simple_world\Debug/../bsp/hbird-e200/stubs/write_hex.c:16 (discriminator 1)
    towrite = digit < 0xA ? ('0' + digit) : ('A' +  (digit - 0xA));
80003cd8:	00f107a3          	sb	a5,15(sp)
C:\NucleiStudio_workspace3\simple_world\Debug/../bsp/hbird-e200/stubs/write_hex.c:17 (discriminator 1)
    write(fd, &towrite, 1);
80003cdc:	2959                	jal	80004172 <write>
C:\NucleiStudio_workspace3\simple_world\Debug/../bsp/hbird-e200/stubs/write_hex.c:13 (discriminator 1)
  for (ii = sizeof(unsigned long int) * 2 ; ii > 0; ii--) {
80003cde:	02940d63          	beq	s0,s1,80003d18 <write_hex+0x7a>
C:\NucleiStudio_workspace3\simple_world\Debug/../bsp/hbird-e200/stubs/write_hex.c:15
    uint8_t digit = ((hex & (0xF << (jj*4))) >> (jj*4));
80003ce2:	008997b3          	sll	a5,s3,s0
80003ce6:	0157f7b3          	and	a5,a5,s5
80003cea:	0087d7b3          	srl	a5,a5,s0
80003cee:	0ff7f793          	andi	a5,a5,255
C:\NucleiStudio_workspace3\simple_world\Debug/../bsp/hbird-e200/stubs/write_hex.c:16
    towrite = digit < 0xA ? ('0' + digit) : ('A' +  (digit - 0xA));
80003cf2:	03078693          	addi	a3,a5,48
80003cf6:	03778713          	addi	a4,a5,55
80003cfa:	fcf977e3          	bgeu	s2,a5,80003cc8 <write_hex+0x2a>
C:\NucleiStudio_workspace3\simple_world\Debug/../bsp/hbird-e200/stubs/write_hex.c:16 (discriminator 2)
80003cfe:	01871793          	slli	a5,a4,0x18
80003d02:	87e1                	srai	a5,a5,0x18
80003d04:	1471                	addi	s0,s0,-4
C:\NucleiStudio_workspace3\simple_world\Debug/../bsp/hbird-e200/stubs/write_hex.c:17 (discriminator 2)
    write(fd, &towrite, 1);
80003d06:	4605                	li	a2,1
80003d08:	00f10593          	addi	a1,sp,15
80003d0c:	8552                	mv	a0,s4
C:\NucleiStudio_workspace3\simple_world\Debug/../bsp/hbird-e200/stubs/write_hex.c:16 (discriminator 2)
    towrite = digit < 0xA ? ('0' + digit) : ('A' +  (digit - 0xA));
80003d0e:	00f107a3          	sb	a5,15(sp)
C:\NucleiStudio_workspace3\simple_world\Debug/../bsp/hbird-e200/stubs/write_hex.c:17 (discriminator 2)
    write(fd, &towrite, 1);
80003d12:	2185                	jal	80004172 <write>
C:\NucleiStudio_workspace3\simple_world\Debug/../bsp/hbird-e200/stubs/write_hex.c:13 (discriminator 2)
  for (ii = sizeof(unsigned long int) * 2 ; ii > 0; ii--) {
80003d14:	fc9417e3          	bne	s0,s1,80003ce2 <write_hex+0x44>
C:\NucleiStudio_workspace3\simple_world\Debug/../bsp/hbird-e200/stubs/write_hex.c:19
  }
}
80003d18:	50b2                	lw	ra,44(sp)
80003d1a:	5422                	lw	s0,40(sp)
80003d1c:	5492                	lw	s1,36(sp)
80003d1e:	5902                	lw	s2,32(sp)
80003d20:	49f2                	lw	s3,28(sp)
80003d22:	4a62                	lw	s4,24(sp)
80003d24:	4ad2                	lw	s5,20(sp)
80003d26:	6145                	addi	sp,sp,48
80003d28:	8082                	ret
	...

80003d2c <trap_entry>:
trap_entry():
C:\NucleiStudio_workspace3\simple_world\Debug/../bsp/hbird-e200/env/entry.S:13

  .section      .text.entry	
  .align 2
  .global trap_entry
trap_entry:
  addi sp, sp, -32*REGBYTES
80003d2c:	7119                	addi	sp,sp,-128
C:\NucleiStudio_workspace3\simple_world\Debug/../bsp/hbird-e200/env/entry.S:15

  STORE x1, 1*REGBYTES(sp)
80003d2e:	c206                	sw	ra,4(sp)
C:\NucleiStudio_workspace3\simple_world\Debug/../bsp/hbird-e200/env/entry.S:16
  STORE x2, 2*REGBYTES(sp)
80003d30:	c40a                	sw	sp,8(sp)
C:\NucleiStudio_workspace3\simple_world\Debug/../bsp/hbird-e200/env/entry.S:17
  STORE x3, 3*REGBYTES(sp)
80003d32:	c60e                	sw	gp,12(sp)
C:\NucleiStudio_workspace3\simple_world\Debug/../bsp/hbird-e200/env/entry.S:18
  STORE x4, 4*REGBYTES(sp)
80003d34:	c812                	sw	tp,16(sp)
C:\NucleiStudio_workspace3\simple_world\Debug/../bsp/hbird-e200/env/entry.S:19
  STORE x5, 5*REGBYTES(sp)
80003d36:	ca16                	sw	t0,20(sp)
C:\NucleiStudio_workspace3\simple_world\Debug/../bsp/hbird-e200/env/entry.S:20
  STORE x6, 6*REGBYTES(sp)
80003d38:	cc1a                	sw	t1,24(sp)
C:\NucleiStudio_workspace3\simple_world\Debug/../bsp/hbird-e200/env/entry.S:21
  STORE x7, 7*REGBYTES(sp)
80003d3a:	ce1e                	sw	t2,28(sp)
C:\NucleiStudio_workspace3\simple_world\Debug/../bsp/hbird-e200/env/entry.S:22
  STORE x8, 8*REGBYTES(sp)
80003d3c:	d022                	sw	s0,32(sp)
C:\NucleiStudio_workspace3\simple_world\Debug/../bsp/hbird-e200/env/entry.S:23
  STORE x9, 9*REGBYTES(sp)
80003d3e:	d226                	sw	s1,36(sp)
C:\NucleiStudio_workspace3\simple_world\Debug/../bsp/hbird-e200/env/entry.S:24
  STORE x10, 10*REGBYTES(sp)
80003d40:	d42a                	sw	a0,40(sp)
C:\NucleiStudio_workspace3\simple_world\Debug/../bsp/hbird-e200/env/entry.S:25
  STORE x11, 11*REGBYTES(sp)
80003d42:	d62e                	sw	a1,44(sp)
C:\NucleiStudio_workspace3\simple_world\Debug/../bsp/hbird-e200/env/entry.S:26
  STORE x12, 12*REGBYTES(sp)
80003d44:	d832                	sw	a2,48(sp)
C:\NucleiStudio_workspace3\simple_world\Debug/../bsp/hbird-e200/env/entry.S:27
  STORE x13, 13*REGBYTES(sp)
80003d46:	da36                	sw	a3,52(sp)
C:\NucleiStudio_workspace3\simple_world\Debug/../bsp/hbird-e200/env/entry.S:28
  STORE x14, 14*REGBYTES(sp)
80003d48:	dc3a                	sw	a4,56(sp)
C:\NucleiStudio_workspace3\simple_world\Debug/../bsp/hbird-e200/env/entry.S:29
  STORE x15, 15*REGBYTES(sp)
80003d4a:	de3e                	sw	a5,60(sp)
C:\NucleiStudio_workspace3\simple_world\Debug/../bsp/hbird-e200/env/entry.S:30
  STORE x16, 16*REGBYTES(sp)
80003d4c:	c0c2                	sw	a6,64(sp)
C:\NucleiStudio_workspace3\simple_world\Debug/../bsp/hbird-e200/env/entry.S:31
  STORE x17, 17*REGBYTES(sp)
80003d4e:	c2c6                	sw	a7,68(sp)
C:\NucleiStudio_workspace3\simple_world\Debug/../bsp/hbird-e200/env/entry.S:32
  STORE x18, 18*REGBYTES(sp)
80003d50:	c4ca                	sw	s2,72(sp)
C:\NucleiStudio_workspace3\simple_world\Debug/../bsp/hbird-e200/env/entry.S:33
  STORE x19, 19*REGBYTES(sp)
80003d52:	c6ce                	sw	s3,76(sp)
C:\NucleiStudio_workspace3\simple_world\Debug/../bsp/hbird-e200/env/entry.S:34
  STORE x20, 20*REGBYTES(sp)
80003d54:	c8d2                	sw	s4,80(sp)
C:\NucleiStudio_workspace3\simple_world\Debug/../bsp/hbird-e200/env/entry.S:35
  STORE x21, 21*REGBYTES(sp)
80003d56:	cad6                	sw	s5,84(sp)
C:\NucleiStudio_workspace3\simple_world\Debug/../bsp/hbird-e200/env/entry.S:36
  STORE x22, 22*REGBYTES(sp)
80003d58:	ccda                	sw	s6,88(sp)
C:\NucleiStudio_workspace3\simple_world\Debug/../bsp/hbird-e200/env/entry.S:37
  STORE x23, 23*REGBYTES(sp)
80003d5a:	cede                	sw	s7,92(sp)
C:\NucleiStudio_workspace3\simple_world\Debug/../bsp/hbird-e200/env/entry.S:38
  STORE x24, 24*REGBYTES(sp)
80003d5c:	d0e2                	sw	s8,96(sp)
C:\NucleiStudio_workspace3\simple_world\Debug/../bsp/hbird-e200/env/entry.S:39
  STORE x25, 25*REGBYTES(sp)
80003d5e:	d2e6                	sw	s9,100(sp)
C:\NucleiStudio_workspace3\simple_world\Debug/../bsp/hbird-e200/env/entry.S:40
  STORE x26, 26*REGBYTES(sp)
80003d60:	d4ea                	sw	s10,104(sp)
C:\NucleiStudio_workspace3\simple_world\Debug/../bsp/hbird-e200/env/entry.S:41
  STORE x27, 27*REGBYTES(sp)
80003d62:	d6ee                	sw	s11,108(sp)
C:\NucleiStudio_workspace3\simple_world\Debug/../bsp/hbird-e200/env/entry.S:42
  STORE x28, 28*REGBYTES(sp)
80003d64:	d8f2                	sw	t3,112(sp)
C:\NucleiStudio_workspace3\simple_world\Debug/../bsp/hbird-e200/env/entry.S:43
  STORE x29, 29*REGBYTES(sp)
80003d66:	daf6                	sw	t4,116(sp)
C:\NucleiStudio_workspace3\simple_world\Debug/../bsp/hbird-e200/env/entry.S:44
  STORE x30, 30*REGBYTES(sp)
80003d68:	dcfa                	sw	t5,120(sp)
C:\NucleiStudio_workspace3\simple_world\Debug/../bsp/hbird-e200/env/entry.S:45
  STORE x31, 31*REGBYTES(sp)
80003d6a:	defe                	sw	t6,124(sp)
C:\NucleiStudio_workspace3\simple_world\Debug/../bsp/hbird-e200/env/entry.S:47

  csrr a0, mcause
80003d6c:	34202573          	csrr	a0,mcause
C:\NucleiStudio_workspace3\simple_world\Debug/../bsp/hbird-e200/env/entry.S:48
  csrr a1, mepc
80003d70:	341025f3          	csrr	a1,mepc
C:\NucleiStudio_workspace3\simple_world\Debug/../bsp/hbird-e200/env/entry.S:49
  mv a2, sp
80003d74:	860a                	mv	a2,sp
C:\NucleiStudio_workspace3\simple_world\Debug/../bsp/hbird-e200/env/entry.S:50
  call handle_trap
80003d76:	20c1                	jal	80003e36 <handle_trap>
C:\NucleiStudio_workspace3\simple_world\Debug/../bsp/hbird-e200/env/entry.S:51
  csrw mepc, a0
80003d78:	34151073          	csrw	mepc,a0
C:\NucleiStudio_workspace3\simple_world\Debug/../bsp/hbird-e200/env/entry.S:54

  # Remain in M-mode after mret
  li t0, MSTATUS_MPP
80003d7c:	000022b7          	lui	t0,0x2
80003d80:	80028293          	addi	t0,t0,-2048 # 1800 <__stack_size+0x1000>
C:\NucleiStudio_workspace3\simple_world\Debug/../bsp/hbird-e200/env/entry.S:55
  csrs mstatus, t0
80003d84:	3002a073          	csrs	mstatus,t0
C:\NucleiStudio_workspace3\simple_world\Debug/../bsp/hbird-e200/env/entry.S:57

  LOAD x1, 1*REGBYTES(sp)
80003d88:	4092                	lw	ra,4(sp)
C:\NucleiStudio_workspace3\simple_world\Debug/../bsp/hbird-e200/env/entry.S:58
  LOAD x2, 2*REGBYTES(sp)
80003d8a:	4122                	lw	sp,8(sp)
C:\NucleiStudio_workspace3\simple_world\Debug/../bsp/hbird-e200/env/entry.S:59
  LOAD x3, 3*REGBYTES(sp)
80003d8c:	41b2                	lw	gp,12(sp)
C:\NucleiStudio_workspace3\simple_world\Debug/../bsp/hbird-e200/env/entry.S:60
  LOAD x4, 4*REGBYTES(sp)
80003d8e:	4242                	lw	tp,16(sp)
C:\NucleiStudio_workspace3\simple_world\Debug/../bsp/hbird-e200/env/entry.S:61
  LOAD x5, 5*REGBYTES(sp)
80003d90:	42d2                	lw	t0,20(sp)
C:\NucleiStudio_workspace3\simple_world\Debug/../bsp/hbird-e200/env/entry.S:62
  LOAD x6, 6*REGBYTES(sp)
80003d92:	4362                	lw	t1,24(sp)
C:\NucleiStudio_workspace3\simple_world\Debug/../bsp/hbird-e200/env/entry.S:63
  LOAD x7, 7*REGBYTES(sp)
80003d94:	43f2                	lw	t2,28(sp)
C:\NucleiStudio_workspace3\simple_world\Debug/../bsp/hbird-e200/env/entry.S:64
  LOAD x8, 8*REGBYTES(sp)
80003d96:	5402                	lw	s0,32(sp)
C:\NucleiStudio_workspace3\simple_world\Debug/../bsp/hbird-e200/env/entry.S:65
  LOAD x9, 9*REGBYTES(sp)
80003d98:	5492                	lw	s1,36(sp)
C:\NucleiStudio_workspace3\simple_world\Debug/../bsp/hbird-e200/env/entry.S:66
  LOAD x10, 10*REGBYTES(sp)
80003d9a:	5522                	lw	a0,40(sp)
C:\NucleiStudio_workspace3\simple_world\Debug/../bsp/hbird-e200/env/entry.S:67
  LOAD x11, 11*REGBYTES(sp)
80003d9c:	55b2                	lw	a1,44(sp)
C:\NucleiStudio_workspace3\simple_world\Debug/../bsp/hbird-e200/env/entry.S:68
  LOAD x12, 12*REGBYTES(sp)
80003d9e:	5642                	lw	a2,48(sp)
C:\NucleiStudio_workspace3\simple_world\Debug/../bsp/hbird-e200/env/entry.S:69
  LOAD x13, 13*REGBYTES(sp)
80003da0:	56d2                	lw	a3,52(sp)
C:\NucleiStudio_workspace3\simple_world\Debug/../bsp/hbird-e200/env/entry.S:70
  LOAD x14, 14*REGBYTES(sp)
80003da2:	5762                	lw	a4,56(sp)
C:\NucleiStudio_workspace3\simple_world\Debug/../bsp/hbird-e200/env/entry.S:71
  LOAD x15, 15*REGBYTES(sp)
80003da4:	57f2                	lw	a5,60(sp)
C:\NucleiStudio_workspace3\simple_world\Debug/../bsp/hbird-e200/env/entry.S:72
  LOAD x16, 16*REGBYTES(sp)
80003da6:	4806                	lw	a6,64(sp)
C:\NucleiStudio_workspace3\simple_world\Debug/../bsp/hbird-e200/env/entry.S:73
  LOAD x17, 17*REGBYTES(sp)
80003da8:	4896                	lw	a7,68(sp)
C:\NucleiStudio_workspace3\simple_world\Debug/../bsp/hbird-e200/env/entry.S:74
  LOAD x18, 18*REGBYTES(sp)
80003daa:	4926                	lw	s2,72(sp)
C:\NucleiStudio_workspace3\simple_world\Debug/../bsp/hbird-e200/env/entry.S:75
  LOAD x19, 19*REGBYTES(sp)
80003dac:	49b6                	lw	s3,76(sp)
C:\NucleiStudio_workspace3\simple_world\Debug/../bsp/hbird-e200/env/entry.S:76
  LOAD x20, 20*REGBYTES(sp)
80003dae:	4a46                	lw	s4,80(sp)
C:\NucleiStudio_workspace3\simple_world\Debug/../bsp/hbird-e200/env/entry.S:77
  LOAD x21, 21*REGBYTES(sp)
80003db0:	4ad6                	lw	s5,84(sp)
C:\NucleiStudio_workspace3\simple_world\Debug/../bsp/hbird-e200/env/entry.S:78
  LOAD x22, 22*REGBYTES(sp)
80003db2:	4b66                	lw	s6,88(sp)
C:\NucleiStudio_workspace3\simple_world\Debug/../bsp/hbird-e200/env/entry.S:79
  LOAD x23, 23*REGBYTES(sp)
80003db4:	4bf6                	lw	s7,92(sp)
C:\NucleiStudio_workspace3\simple_world\Debug/../bsp/hbird-e200/env/entry.S:80
  LOAD x24, 24*REGBYTES(sp)
80003db6:	5c06                	lw	s8,96(sp)
C:\NucleiStudio_workspace3\simple_world\Debug/../bsp/hbird-e200/env/entry.S:81
  LOAD x25, 25*REGBYTES(sp)
80003db8:	5c96                	lw	s9,100(sp)
C:\NucleiStudio_workspace3\simple_world\Debug/../bsp/hbird-e200/env/entry.S:82
  LOAD x26, 26*REGBYTES(sp)
80003dba:	5d26                	lw	s10,104(sp)
C:\NucleiStudio_workspace3\simple_world\Debug/../bsp/hbird-e200/env/entry.S:83
  LOAD x27, 27*REGBYTES(sp)
80003dbc:	5db6                	lw	s11,108(sp)
C:\NucleiStudio_workspace3\simple_world\Debug/../bsp/hbird-e200/env/entry.S:84
  LOAD x28, 28*REGBYTES(sp)
80003dbe:	5e46                	lw	t3,112(sp)
C:\NucleiStudio_workspace3\simple_world\Debug/../bsp/hbird-e200/env/entry.S:85
  LOAD x29, 29*REGBYTES(sp)
80003dc0:	5ed6                	lw	t4,116(sp)
C:\NucleiStudio_workspace3\simple_world\Debug/../bsp/hbird-e200/env/entry.S:86
  LOAD x30, 30*REGBYTES(sp)
80003dc2:	5f66                	lw	t5,120(sp)
C:\NucleiStudio_workspace3\simple_world\Debug/../bsp/hbird-e200/env/entry.S:87
  LOAD x31, 31*REGBYTES(sp)
80003dc4:	5ff6                	lw	t6,124(sp)
C:\NucleiStudio_workspace3\simple_world\Debug/../bsp/hbird-e200/env/entry.S:89

  addi sp, sp, 32*REGBYTES
80003dc6:	6109                	addi	sp,sp,128
C:\NucleiStudio_workspace3\simple_world\Debug/../bsp/hbird-e200/env/entry.S:90
  mret
80003dc8:	30200073          	mret
C:\NucleiStudio_workspace3\simple_world\Debug/../bsp/hbird-e200/env/entry.S:95

.weak handle_trap
handle_trap:
1:
  j 1b
80003dcc:	a001                	j	80003dcc <trap_entry+0xa0>
	...

80003dd0 <measure_cpu_freq>:
mtime_lo():
C:\NucleiStudio_workspace3\simple_world\Debug/../bsp/hbird-e200/env/init.c:14
extern int main(int argc, char** argv);
extern void trap_entry();

static unsigned long mtime_lo(void)
{
  return *(volatile unsigned long *)(CLINT_CTRL_ADDR + CLINT_MTIME);
80003dd0:	0200c7b7          	lui	a5,0x200c
80003dd4:	ff87a683          	lw	a3,-8(a5) # 200bff8 <__stack_size+0x200b7f8>
C:\NucleiStudio_workspace3\simple_world\Debug/../bsp/hbird-e200/env/init.c:14 (discriminator 1)
80003dd8:	ff87a703          	lw	a4,-8(a5)
measure_cpu_freq():
C:\NucleiStudio_workspace3\simple_world\Debug/../bsp/hbird-e200/env/init.c:85 (discriminator 1)

  // Don't start measuruing until we see an mtime tick
  unsigned long tmp = mtime_lo();
  do {
    start_mtime = mtime_lo();
  } while (start_mtime == tmp);
80003ddc:	fee68ee3          	beq	a3,a4,80003dd8 <measure_cpu_freq+0x8>
C:\NucleiStudio_workspace3\simple_world\Debug/../bsp/hbird-e200/env/init.c:87

  unsigned long start_mcycle = read_csr(mcycle);
80003de0:	b0002673          	csrr	a2,mcycle
mtime_lo():
C:\NucleiStudio_workspace3\simple_world\Debug/../bsp/hbird-e200/env/init.c:14
  return *(volatile unsigned long *)(CLINT_CTRL_ADDR + CLINT_MTIME);
80003de4:	0200c6b7          	lui	a3,0x200c
C:\NucleiStudio_workspace3\simple_world\Debug/../bsp/hbird-e200/env/init.c:14 (discriminator 1)
80003de8:	ff86a783          	lw	a5,-8(a3) # 200bff8 <__stack_size+0x200b7f8>
measure_cpu_freq():
C:\NucleiStudio_workspace3\simple_world\Debug/../bsp/hbird-e200/env/init.c:90 (discriminator 1)

  do {
    delta_mtime = mtime_lo() - start_mtime;
80003dec:	8f99                	sub	a5,a5,a4
C:\NucleiStudio_workspace3\simple_world\Debug/../bsp/hbird-e200/env/init.c:91 (discriminator 1)
  } while (delta_mtime < n);
80003dee:	fea7ede3          	bltu	a5,a0,80003de8 <measure_cpu_freq+0x18>
C:\NucleiStudio_workspace3\simple_world\Debug/../bsp/hbird-e200/env/init.c:93

  unsigned long delta_mcycle = read_csr(mcycle) - start_mcycle;
80003df2:	b0002573          	csrr	a0,mcycle
80003df6:	8d11                	sub	a0,a0,a2
C:\NucleiStudio_workspace3\simple_world\Debug/../bsp/hbird-e200/env/init.c:96

  return (delta_mcycle / delta_mtime) * mtime_freq
         + ((delta_mcycle % delta_mtime) * mtime_freq) / delta_mtime;
80003df8:	02f57733          	remu	a4,a0,a5
C:\NucleiStudio_workspace3\simple_world\Debug/../bsp/hbird-e200/env/init.c:95
  return (delta_mcycle / delta_mtime) * mtime_freq
80003dfc:	02f55533          	divu	a0,a0,a5
C:\NucleiStudio_workspace3\simple_world\Debug/../bsp/hbird-e200/env/init.c:96
         + ((delta_mcycle % delta_mtime) * mtime_freq) / delta_mtime;
80003e00:	073e                	slli	a4,a4,0xf
80003e02:	02f757b3          	divu	a5,a4,a5
C:\NucleiStudio_workspace3\simple_world\Debug/../bsp/hbird-e200/env/init.c:95
  return (delta_mcycle / delta_mtime) * mtime_freq
80003e06:	053e                	slli	a0,a0,0xf
C:\NucleiStudio_workspace3\simple_world\Debug/../bsp/hbird-e200/env/init.c:97
}
80003e08:	953e                	add	a0,a0,a5
80003e0a:	8082                	ret

80003e0c <get_cpu_freq>:
get_cpu_freq():
C:\NucleiStudio_workspace3\simple_world\Debug/../bsp/hbird-e200/env/init.c:100

unsigned long get_cpu_freq()
{
80003e0c:	1141                	addi	sp,sp,-16
80003e0e:	c422                	sw	s0,8(sp)
C:\NucleiStudio_workspace3\simple_world\Debug/../bsp/hbird-e200/env/init.c:103
  static uint32_t cpu_freq;

  if (!cpu_freq) {
80003e10:	8bc18413          	addi	s0,gp,-1860 # 90000a0c <cpu_freq.2958>
80003e14:	4008                	lw	a0,0(s0)
C:\NucleiStudio_workspace3\simple_world\Debug/../bsp/hbird-e200/env/init.c:100
{
80003e16:	c606                	sw	ra,12(sp)
C:\NucleiStudio_workspace3\simple_world\Debug/../bsp/hbird-e200/env/init.c:103
  if (!cpu_freq) {
80003e18:	c509                	beqz	a0,80003e22 <get_cpu_freq+0x16>
C:\NucleiStudio_workspace3\simple_world\Debug/../bsp/hbird-e200/env/init.c:111
    // measure for real
    cpu_freq = measure_cpu_freq(100);
  }

  return cpu_freq;
}
80003e1a:	40b2                	lw	ra,12(sp)
80003e1c:	4422                	lw	s0,8(sp)
80003e1e:	0141                	addi	sp,sp,16
80003e20:	8082                	ret
C:\NucleiStudio_workspace3\simple_world\Debug/../bsp/hbird-e200/env/init.c:105
    measure_cpu_freq(1);
80003e22:	4505                	li	a0,1
80003e24:	3775                	jal	80003dd0 <measure_cpu_freq>
C:\NucleiStudio_workspace3\simple_world\Debug/../bsp/hbird-e200/env/init.c:107
    cpu_freq = measure_cpu_freq(100);
80003e26:	06400513          	li	a0,100
80003e2a:	375d                	jal	80003dd0 <measure_cpu_freq>
80003e2c:	c008                	sw	a0,0(s0)
C:\NucleiStudio_workspace3\simple_world\Debug/../bsp/hbird-e200/env/init.c:111
}
80003e2e:	40b2                	lw	ra,12(sp)
80003e30:	4422                	lw	s0,8(sp)
80003e32:	0141                	addi	sp,sp,16
80003e34:	8082                	ret

80003e36 <handle_trap>:
handle_trap():
C:\NucleiStudio_workspace3\simple_world\Debug/../bsp/hbird-e200/env/init.c:132
#ifdef USE_M_TIME
extern void handle_m_time_interrupt();
#endif

uintptr_t handle_trap(uintptr_t mcause, uintptr_t epc)
{
80003e36:	1141                	addi	sp,sp,-16
C:\NucleiStudio_workspace3\simple_world\Debug/../bsp/hbird-e200/env/init.c:146
  } else if ((mcause & MCAUSE_INT) && ((mcause & MCAUSE_CAUSE) == IRQ_M_TIMER)){
    handle_m_time_interrupt();
#endif
  }
  else {
    write(1, "trap\n", 5);
80003e38:	900005b7          	lui	a1,0x90000
C:\NucleiStudio_workspace3\simple_world\Debug/../bsp/hbird-e200/env/init.c:132
{
80003e3c:	c422                	sw	s0,8(sp)
C:\NucleiStudio_workspace3\simple_world\Debug/../bsp/hbird-e200/env/init.c:146
    write(1, "trap\n", 5);
80003e3e:	4615                	li	a2,5
C:\NucleiStudio_workspace3\simple_world\Debug/../bsp/hbird-e200/env/init.c:132
{
80003e40:	842a                	mv	s0,a0
C:\NucleiStudio_workspace3\simple_world\Debug/../bsp/hbird-e200/env/init.c:146
    write(1, "trap\n", 5);
80003e42:	1e058593          	addi	a1,a1,480 # 900001e0 <_sp+0xffff01e0>
80003e46:	4505                	li	a0,1
C:\NucleiStudio_workspace3\simple_world\Debug/../bsp/hbird-e200/env/init.c:132
{
80003e48:	c606                	sw	ra,12(sp)
C:\NucleiStudio_workspace3\simple_world\Debug/../bsp/hbird-e200/env/init.c:146
    write(1, "trap\n", 5);
80003e4a:	2625                	jal	80004172 <write>
C:\NucleiStudio_workspace3\simple_world\Debug/../bsp/hbird-e200/env/init.c:147
    _exit(1 + mcause);
80003e4c:	00140513          	addi	a0,s0,1
80003e50:	330d                	jal	80003b72 <_exit>

80003e52 <_init>:
uart_init():
C:\NucleiStudio_workspace3\simple_world\Debug/../bsp/hbird-e200/env/init.c:115
  GPIO_REG(GPIO_IOF_SEL) &= ~IOF0_UART0_MASK;
80003e52:	100127b7          	lui	a5,0x10012
80003e56:	5fd8                	lw	a4,60(a5)
80003e58:	fffd06b7          	lui	a3,0xfffd0
_init():
C:\NucleiStudio_workspace3\simple_world\Debug/../bsp/hbird-e200/env/init.c:153
  }
  return epc;
}

void _init()
{
80003e5c:	1141                	addi	sp,sp,-16
uart_init():
C:\NucleiStudio_workspace3\simple_world\Debug/../bsp/hbird-e200/env/init.c:115
  GPIO_REG(GPIO_IOF_SEL) &= ~IOF0_UART0_MASK;
80003e5e:	16fd                	addi	a3,a3,-1
_init():
C:\NucleiStudio_workspace3\simple_world\Debug/../bsp/hbird-e200/env/init.c:153
{
80003e60:	c606                	sw	ra,12(sp)
uart_init():
C:\NucleiStudio_workspace3\simple_world\Debug/../bsp/hbird-e200/env/init.c:115
  GPIO_REG(GPIO_IOF_SEL) &= ~IOF0_UART0_MASK;
80003e62:	8f75                	and	a4,a4,a3
80003e64:	dfd8                	sw	a4,60(a5)
C:\NucleiStudio_workspace3\simple_world\Debug/../bsp/hbird-e200/env/init.c:116
  GPIO_REG(GPIO_IOF_EN) |= IOF0_UART0_MASK;
80003e66:	5f98                	lw	a4,56(a5)
80003e68:	000306b7          	lui	a3,0x30
80003e6c:	8f55                	or	a4,a4,a3
80003e6e:	df98                	sw	a4,56(a5)
C:\NucleiStudio_workspace3\simple_world\Debug/../bsp/hbird-e200/env/init.c:117
  UART0_REG(UART_REG_DIV) = get_cpu_freq() / baud_rate - 1;
80003e70:	3f71                	jal	80003e0c <get_cpu_freq>
80003e72:	67f1                	lui	a5,0x1c
80003e74:	20078793          	addi	a5,a5,512 # 1c200 <__stack_size+0x1ba00>
80003e78:	02f55533          	divu	a0,a0,a5
80003e7c:	100137b7          	lui	a5,0x10013
80003e80:	157d                	addi	a0,a0,-1
80003e82:	cf88                	sw	a0,24(a5)
C:\NucleiStudio_workspace3\simple_world\Debug/../bsp/hbird-e200/env/init.c:118
  UART0_REG(UART_REG_TXCTRL) |= UART_TXEN;
80003e84:	4798                	lw	a4,8(a5)
80003e86:	00176713          	ori	a4,a4,1
80003e8a:	c798                	sw	a4,8(a5)
_init():
C:\NucleiStudio_workspace3\simple_world\Debug/../bsp/hbird-e200/env/init.c:159
  #ifndef NO_INIT
  uart_init(115200);

  //printf("Core freq at %d Hz\n", get_cpu_freq());

  write_csr(mtvec, &trap_entry);
80003e8c:	800047b7          	lui	a5,0x80004
80003e90:	d2c78793          	addi	a5,a5,-724 # 80003d2c <_sp+0xefff3d2c>
80003e94:	30579073          	csrw	mtvec,a5
C:\NucleiStudio_workspace3\simple_world\Debug/../bsp/hbird-e200/env/init.c:160
  if (read_csr(misa) & (1 << ('F' - 'A'))) { // if F extension is present
80003e98:	301027f3          	csrr	a5,misa
80003e9c:	0207f793          	andi	a5,a5,32
80003ea0:	c791                	beqz	a5,80003eac <_init+0x5a>
C:\NucleiStudio_workspace3\simple_world\Debug/../bsp/hbird-e200/env/init.c:161 (discriminator 2)
    write_csr(mstatus, MSTATUS_FS); // allow FPU instructions without trapping
80003ea2:	6799                	lui	a5,0x6
80003ea4:	30079073          	csrw	mstatus,a5
C:\NucleiStudio_workspace3\simple_world\Debug/../bsp/hbird-e200/env/init.c:162 (discriminator 2)
    write_csr(fcsr, 0); // initialize rounding mode, undefined at reset
80003ea8:	00305073          	csrwi	fcsr,0
C:\NucleiStudio_workspace3\simple_world\Debug/../bsp/hbird-e200/env/init.c:166
  }
  #endif
  
}
80003eac:	40b2                	lw	ra,12(sp)
80003eae:	0141                	addi	sp,sp,16
80003eb0:	8082                	ret

80003eb2 <_fini>:
_fini():
C:\NucleiStudio_workspace3\simple_world\Debug/../bsp/hbird-e200/env/init.c:170

void _fini()
{
}
80003eb2:	8082                	ret

80003eb4 <atexit>:
atexit():
80003eb4:	85aa                	mv	a1,a0
80003eb6:	4681                	li	a3,0
80003eb8:	4601                	li	a2,0
80003eba:	4501                	li	a0,0
80003ebc:	a1f9                	j	8000438a <__register_exitproc>

80003ebe <exit>:
exit():
80003ebe:	1141                	addi	sp,sp,-16
80003ec0:	c422                	sw	s0,8(sp)
80003ec2:	c606                	sw	ra,12(sp)
80003ec4:	00000797          	auipc	a5,0x0
80003ec8:	54a78793          	addi	a5,a5,1354 # 8000440e <__call_exitprocs>
80003ecc:	842a                	mv	s0,a0
80003ece:	c399                	beqz	a5,80003ed4 <exit+0x16>
80003ed0:	4581                	li	a1,0
80003ed2:	2b35                	jal	8000440e <__call_exitprocs>
80003ed4:	00001797          	auipc	a5,0x1
80003ed8:	5ac78793          	addi	a5,a5,1452 # 80005480 <_global_impure_ptr>
80003edc:	4388                	lw	a0,0(a5)
80003ede:	551c                	lw	a5,40(a0)
80003ee0:	c391                	beqz	a5,80003ee4 <exit+0x26>
80003ee2:	9782                	jalr	a5
80003ee4:	8522                	mv	a0,s0
80003ee6:	3171                	jal	80003b72 <_exit>

80003ee8 <__libc_fini_array>:
__libc_fini_array():
80003ee8:	1141                	addi	sp,sp,-16
80003eea:	a0001797          	auipc	a5,0xa0001
80003eee:	64c78793          	addi	a5,a5,1612 # 20005536 <__fini_array_end>
80003ef2:	c422                	sw	s0,8(sp)
80003ef4:	a0001417          	auipc	s0,0xa0001
80003ef8:	64240413          	addi	s0,s0,1602 # 20005536 <__fini_array_end>
80003efc:	8c1d                	sub	s0,s0,a5
80003efe:	c226                	sw	s1,4(sp)
80003f00:	c606                	sw	ra,12(sp)
80003f02:	8409                	srai	s0,s0,0x2
80003f04:	84be                	mv	s1,a5
80003f06:	e411                	bnez	s0,80003f12 <__libc_fini_array+0x2a>
80003f08:	4422                	lw	s0,8(sp)
80003f0a:	40b2                	lw	ra,12(sp)
80003f0c:	4492                	lw	s1,4(sp)
80003f0e:	0141                	addi	sp,sp,16
80003f10:	b74d                	j	80003eb2 <_fini>
80003f12:	147d                	addi	s0,s0,-1
80003f14:	00241793          	slli	a5,s0,0x2
80003f18:	97a6                	add	a5,a5,s1
80003f1a:	439c                	lw	a5,0(a5)
80003f1c:	9782                	jalr	a5
80003f1e:	b7e5                	j	80003f06 <__libc_fini_array+0x1e>

80003f20 <__libc_init_array>:
__libc_init_array():
80003f20:	1141                	addi	sp,sp,-16
80003f22:	a0001797          	auipc	a5,0xa0001
80003f26:	61478793          	addi	a5,a5,1556 # 20005536 <__fini_array_end>
80003f2a:	c422                	sw	s0,8(sp)
80003f2c:	a0001417          	auipc	s0,0xa0001
80003f30:	60a40413          	addi	s0,s0,1546 # 20005536 <__fini_array_end>
80003f34:	8c1d                	sub	s0,s0,a5
80003f36:	c226                	sw	s1,4(sp)
80003f38:	c04a                	sw	s2,0(sp)
80003f3a:	c606                	sw	ra,12(sp)
80003f3c:	8409                	srai	s0,s0,0x2
80003f3e:	4481                	li	s1,0
80003f40:	893e                	mv	s2,a5
80003f42:	02849763          	bne	s1,s0,80003f70 <__libc_init_array+0x50>
80003f46:	3731                	jal	80003e52 <_init>
80003f48:	a0001797          	auipc	a5,0xa0001
80003f4c:	5ee78793          	addi	a5,a5,1518 # 20005536 <__fini_array_end>
80003f50:	a0001417          	auipc	s0,0xa0001
80003f54:	5e640413          	addi	s0,s0,1510 # 20005536 <__fini_array_end>
80003f58:	8c1d                	sub	s0,s0,a5
80003f5a:	8409                	srai	s0,s0,0x2
80003f5c:	4481                	li	s1,0
80003f5e:	893e                	mv	s2,a5
80003f60:	00849f63          	bne	s1,s0,80003f7e <__libc_init_array+0x5e>
80003f64:	40b2                	lw	ra,12(sp)
80003f66:	4422                	lw	s0,8(sp)
80003f68:	4492                	lw	s1,4(sp)
80003f6a:	4902                	lw	s2,0(sp)
80003f6c:	0141                	addi	sp,sp,16
80003f6e:	8082                	ret
80003f70:	00249793          	slli	a5,s1,0x2
80003f74:	97ca                	add	a5,a5,s2
80003f76:	439c                	lw	a5,0(a5)
80003f78:	0485                	addi	s1,s1,1
80003f7a:	9782                	jalr	a5
80003f7c:	b7d9                	j	80003f42 <__libc_init_array+0x22>
80003f7e:	00249793          	slli	a5,s1,0x2
80003f82:	97ca                	add	a5,a5,s2
80003f84:	439c                	lw	a5,0(a5)
80003f86:	0485                	addi	s1,s1,1
80003f88:	9782                	jalr	a5
80003f8a:	bfd9                	j	80003f60 <__libc_init_array+0x40>

80003f8c <memcpy>:
memcpy():
80003f8c:	00a5c7b3          	xor	a5,a1,a0
80003f90:	8b8d                	andi	a5,a5,3
80003f92:	00c50733          	add	a4,a0,a2
80003f96:	e781                	bnez	a5,80003f9e <memcpy+0x12>
80003f98:	478d                	li	a5,3
80003f9a:	00c7ee63          	bltu	a5,a2,80003fb6 <memcpy+0x2a>
80003f9e:	87aa                	mv	a5,a0
80003fa0:	0ae57063          	bgeu	a0,a4,80004040 <memcpy+0xb4>
80003fa4:	0005c683          	lbu	a3,0(a1)
80003fa8:	0785                	addi	a5,a5,1
80003faa:	0585                	addi	a1,a1,1
80003fac:	fed78fa3          	sb	a3,-1(a5)
80003fb0:	fee7eae3          	bltu	a5,a4,80003fa4 <memcpy+0x18>
80003fb4:	8082                	ret
80003fb6:	00357693          	andi	a3,a0,3
80003fba:	87aa                	mv	a5,a0
80003fbc:	ca91                	beqz	a3,80003fd0 <memcpy+0x44>
80003fbe:	0005c683          	lbu	a3,0(a1)
80003fc2:	0785                	addi	a5,a5,1
80003fc4:	0585                	addi	a1,a1,1
80003fc6:	fed78fa3          	sb	a3,-1(a5)
80003fca:	0037f693          	andi	a3,a5,3
80003fce:	b7fd                	j	80003fbc <memcpy+0x30>
80003fd0:	ffc77693          	andi	a3,a4,-4
80003fd4:	fe068613          	addi	a2,a3,-32 # 2ffe0 <__stack_size+0x2f7e0>
80003fd8:	06c7f063          	bgeu	a5,a2,80004038 <memcpy+0xac>
80003fdc:	0005a383          	lw	t2,0(a1)
80003fe0:	0045a283          	lw	t0,4(a1)
80003fe4:	0085af83          	lw	t6,8(a1)
80003fe8:	00c5af03          	lw	t5,12(a1)
80003fec:	0105ae83          	lw	t4,16(a1)
80003ff0:	0145ae03          	lw	t3,20(a1)
80003ff4:	0185a303          	lw	t1,24(a1)
80003ff8:	01c5a883          	lw	a7,28(a1)
80003ffc:	02458593          	addi	a1,a1,36
80004000:	0077a023          	sw	t2,0(a5)
80004004:	ffc5a803          	lw	a6,-4(a1)
80004008:	0057a223          	sw	t0,4(a5)
8000400c:	01f7a423          	sw	t6,8(a5)
80004010:	01e7a623          	sw	t5,12(a5)
80004014:	01d7a823          	sw	t4,16(a5)
80004018:	01c7aa23          	sw	t3,20(a5)
8000401c:	0067ac23          	sw	t1,24(a5)
80004020:	0117ae23          	sw	a7,28(a5)
80004024:	02478793          	addi	a5,a5,36
80004028:	ff07ae23          	sw	a6,-4(a5)
8000402c:	b775                	j	80003fd8 <memcpy+0x4c>
8000402e:	4190                	lw	a2,0(a1)
80004030:	0791                	addi	a5,a5,4
80004032:	0591                	addi	a1,a1,4
80004034:	fec7ae23          	sw	a2,-4(a5)
80004038:	fed7ebe3          	bltu	a5,a3,8000402e <memcpy+0xa2>
8000403c:	f6e7e4e3          	bltu	a5,a4,80003fa4 <memcpy+0x18>
80004040:	8082                	ret

80004042 <iprintf>:
printf():
80004042:	7139                	addi	sp,sp,-64
80004044:	da3e                	sw	a5,52(sp)
80004046:	d22e                	sw	a1,36(sp)
80004048:	d432                	sw	a2,40(sp)
8000404a:	d636                	sw	a3,44(sp)
8000404c:	d83a                	sw	a4,48(sp)
8000404e:	dc42                	sw	a6,56(sp)
80004050:	de46                	sw	a7,60(sp)
80004052:	0fffd797          	auipc	a5,0xfffd
80004056:	90278793          	addi	a5,a5,-1790 # 90000954 <_impure_ptr>
8000405a:	cc22                	sw	s0,24(sp)
8000405c:	4380                	lw	s0,0(a5)
8000405e:	ca26                	sw	s1,20(sp)
80004060:	ce06                	sw	ra,28(sp)
80004062:	84aa                	mv	s1,a0
80004064:	c409                	beqz	s0,8000406e <iprintf+0x2c>
80004066:	4c1c                	lw	a5,24(s0)
80004068:	e399                	bnez	a5,8000406e <iprintf+0x2c>
8000406a:	8522                	mv	a0,s0
8000406c:	2d75                	jal	80004728 <__sinit>
8000406e:	440c                	lw	a1,8(s0)
80004070:	1054                	addi	a3,sp,36
80004072:	8626                	mv	a2,s1
80004074:	8522                	mv	a0,s0
80004076:	c636                	sw	a3,12(sp)
80004078:	3ad000ef          	jal	ra,80004c24 <_vfiprintf_r>
8000407c:	40f2                	lw	ra,28(sp)
8000407e:	4462                	lw	s0,24(sp)
80004080:	44d2                	lw	s1,20(sp)
80004082:	6121                	addi	sp,sp,64
80004084:	8082                	ret

80004086 <_puts_r>:
_puts_r():
80004086:	1101                	addi	sp,sp,-32
80004088:	ca26                	sw	s1,20(sp)
8000408a:	c84a                	sw	s2,16(sp)
8000408c:	ce06                	sw	ra,28(sp)
8000408e:	cc22                	sw	s0,24(sp)
80004090:	c64e                	sw	s3,12(sp)
80004092:	c452                	sw	s4,8(sp)
80004094:	84aa                	mv	s1,a0
80004096:	892e                	mv	s2,a1
80004098:	c501                	beqz	a0,800040a0 <_puts_r+0x1a>
8000409a:	4d1c                	lw	a5,24(a0)
8000409c:	e391                	bnez	a5,800040a0 <_puts_r+0x1a>
8000409e:	2569                	jal	80004728 <__sinit>
800040a0:	4c9c                	lw	a5,24(s1)
800040a2:	4480                	lw	s0,8(s1)
800040a4:	e399                	bnez	a5,800040aa <_puts_r+0x24>
800040a6:	8526                	mv	a0,s1
800040a8:	2541                	jal	80004728 <__sinit>
800040aa:	0fffc797          	auipc	a5,0xfffc
800040ae:	15e78793          	addi	a5,a5,350 # 90000208 <__sf_fake_stdin>
800040b2:	02f41c63          	bne	s0,a5,800040ea <_puts_r+0x64>
800040b6:	40c0                	lw	s0,4(s1)
800040b8:	00c45783          	lhu	a5,12(s0)
800040bc:	8ba1                	andi	a5,a5,8
800040be:	c7b1                	beqz	a5,8000410a <_puts_r+0x84>
800040c0:	481c                	lw	a5,16(s0)
800040c2:	c7a1                	beqz	a5,8000410a <_puts_r+0x84>
800040c4:	59fd                	li	s3,-1
800040c6:	4a29                	li	s4,10
800040c8:	441c                	lw	a5,8(s0)
800040ca:	00094583          	lbu	a1,0(s2)
800040ce:	17fd                	addi	a5,a5,-1
800040d0:	e9b1                	bnez	a1,80004124 <_puts_r+0x9e>
800040d2:	c41c                	sw	a5,8(s0)
800040d4:	0607de63          	bgez	a5,80004150 <_puts_r+0xca>
800040d8:	8622                	mv	a2,s0
800040da:	45a9                	li	a1,10
800040dc:	8526                	mv	a0,s1
800040de:	205d                	jal	80004184 <__swbuf_r>
800040e0:	57fd                	li	a5,-1
800040e2:	02f50863          	beq	a0,a5,80004112 <_puts_r+0x8c>
800040e6:	4529                	li	a0,10
800040e8:	a035                	j	80004114 <_puts_r+0x8e>
800040ea:	0fffc797          	auipc	a5,0xfffc
800040ee:	13e78793          	addi	a5,a5,318 # 90000228 <__sf_fake_stdout>
800040f2:	00f41463          	bne	s0,a5,800040fa <_puts_r+0x74>
800040f6:	4480                	lw	s0,8(s1)
800040f8:	b7c1                	j	800040b8 <_puts_r+0x32>
800040fa:	0fffc797          	auipc	a5,0xfffc
800040fe:	0ee78793          	addi	a5,a5,238 # 900001e8 <__sf_fake_stderr>
80004102:	faf41be3          	bne	s0,a5,800040b8 <_puts_r+0x32>
80004106:	44c0                	lw	s0,12(s1)
80004108:	bf45                	j	800040b8 <_puts_r+0x32>
8000410a:	85a2                	mv	a1,s0
8000410c:	8526                	mv	a0,s1
8000410e:	22b5                	jal	8000427a <__swsetup_r>
80004110:	d955                	beqz	a0,800040c4 <_puts_r+0x3e>
80004112:	557d                	li	a0,-1
80004114:	40f2                	lw	ra,28(sp)
80004116:	4462                	lw	s0,24(sp)
80004118:	44d2                	lw	s1,20(sp)
8000411a:	4942                	lw	s2,16(sp)
8000411c:	49b2                	lw	s3,12(sp)
8000411e:	4a22                	lw	s4,8(sp)
80004120:	6105                	addi	sp,sp,32
80004122:	8082                	ret
80004124:	c41c                	sw	a5,8(s0)
80004126:	0905                	addi	s2,s2,1
80004128:	0007d763          	bgez	a5,80004136 <_puts_r+0xb0>
8000412c:	4c18                	lw	a4,24(s0)
8000412e:	00e7cb63          	blt	a5,a4,80004144 <_puts_r+0xbe>
80004132:	01458963          	beq	a1,s4,80004144 <_puts_r+0xbe>
80004136:	401c                	lw	a5,0(s0)
80004138:	00178713          	addi	a4,a5,1
8000413c:	c018                	sw	a4,0(s0)
8000413e:	00b78023          	sb	a1,0(a5)
80004142:	b759                	j	800040c8 <_puts_r+0x42>
80004144:	8622                	mv	a2,s0
80004146:	8526                	mv	a0,s1
80004148:	2835                	jal	80004184 <__swbuf_r>
8000414a:	f7351fe3          	bne	a0,s3,800040c8 <_puts_r+0x42>
8000414e:	b7d1                	j	80004112 <_puts_r+0x8c>
80004150:	401c                	lw	a5,0(s0)
80004152:	00178713          	addi	a4,a5,1
80004156:	c018                	sw	a4,0(s0)
80004158:	4729                	li	a4,10
8000415a:	00e78023          	sb	a4,0(a5)
8000415e:	b761                	j	800040e6 <_puts_r+0x60>

80004160 <puts>:
puts():
80004160:	0fffc797          	auipc	a5,0xfffc
80004164:	7f478793          	addi	a5,a5,2036 # 90000954 <_impure_ptr>
80004168:	85aa                	mv	a1,a0
8000416a:	4388                	lw	a0,0(a5)
8000416c:	bf29                	j	80004086 <_puts_r>

8000416e <isatty>:
isatty():
8000416e:	a8dff06f          	j	80003bfa <_isatty>

80004172 <write>:
write():
80004172:	0fffc797          	auipc	a5,0xfffc
80004176:	7e278793          	addi	a5,a5,2018 # 90000954 <_impure_ptr>
8000417a:	86b2                	mv	a3,a2
8000417c:	862e                	mv	a2,a1
8000417e:	85aa                	mv	a1,a0
80004180:	4388                	lw	a0,0(a5)
80004182:	a0c9                	j	80004244 <_write_r>

80004184 <__swbuf_r>:
__swbuf_r():
80004184:	1101                	addi	sp,sp,-32
80004186:	cc22                	sw	s0,24(sp)
80004188:	ca26                	sw	s1,20(sp)
8000418a:	c84a                	sw	s2,16(sp)
8000418c:	ce06                	sw	ra,28(sp)
8000418e:	c64e                	sw	s3,12(sp)
80004190:	84aa                	mv	s1,a0
80004192:	892e                	mv	s2,a1
80004194:	8432                	mv	s0,a2
80004196:	c501                	beqz	a0,8000419e <__swbuf_r+0x1a>
80004198:	4d1c                	lw	a5,24(a0)
8000419a:	e391                	bnez	a5,8000419e <__swbuf_r+0x1a>
8000419c:	2371                	jal	80004728 <__sinit>
8000419e:	0fffc797          	auipc	a5,0xfffc
800041a2:	06a78793          	addi	a5,a5,106 # 90000208 <__sf_fake_stdin>
800041a6:	06f41963          	bne	s0,a5,80004218 <__swbuf_r+0x94>
800041aa:	40c0                	lw	s0,4(s1)
800041ac:	4c1c                	lw	a5,24(s0)
800041ae:	c41c                	sw	a5,8(s0)
800041b0:	00c45783          	lhu	a5,12(s0)
800041b4:	8ba1                	andi	a5,a5,8
800041b6:	c3c9                	beqz	a5,80004238 <__swbuf_r+0xb4>
800041b8:	481c                	lw	a5,16(s0)
800041ba:	cfbd                	beqz	a5,80004238 <__swbuf_r+0xb4>
800041bc:	481c                	lw	a5,16(s0)
800041be:	4008                	lw	a0,0(s0)
800041c0:	0ff97993          	andi	s3,s2,255
800041c4:	0ff97913          	andi	s2,s2,255
800041c8:	8d1d                	sub	a0,a0,a5
800041ca:	485c                	lw	a5,20(s0)
800041cc:	00f54663          	blt	a0,a5,800041d8 <__swbuf_r+0x54>
800041d0:	85a2                	mv	a1,s0
800041d2:	8526                	mv	a0,s1
800041d4:	292d                	jal	8000460e <_fflush_r>
800041d6:	e52d                	bnez	a0,80004240 <__swbuf_r+0xbc>
800041d8:	441c                	lw	a5,8(s0)
800041da:	0505                	addi	a0,a0,1
800041dc:	17fd                	addi	a5,a5,-1
800041de:	c41c                	sw	a5,8(s0)
800041e0:	401c                	lw	a5,0(s0)
800041e2:	00178713          	addi	a4,a5,1
800041e6:	c018                	sw	a4,0(s0)
800041e8:	01378023          	sb	s3,0(a5)
800041ec:	485c                	lw	a5,20(s0)
800041ee:	00a78963          	beq	a5,a0,80004200 <__swbuf_r+0x7c>
800041f2:	00c45783          	lhu	a5,12(s0)
800041f6:	8b85                	andi	a5,a5,1
800041f8:	cb81                	beqz	a5,80004208 <__swbuf_r+0x84>
800041fa:	47a9                	li	a5,10
800041fc:	00f91663          	bne	s2,a5,80004208 <__swbuf_r+0x84>
80004200:	85a2                	mv	a1,s0
80004202:	8526                	mv	a0,s1
80004204:	2129                	jal	8000460e <_fflush_r>
80004206:	ed0d                	bnez	a0,80004240 <__swbuf_r+0xbc>
80004208:	40f2                	lw	ra,28(sp)
8000420a:	4462                	lw	s0,24(sp)
8000420c:	854a                	mv	a0,s2
8000420e:	44d2                	lw	s1,20(sp)
80004210:	4942                	lw	s2,16(sp)
80004212:	49b2                	lw	s3,12(sp)
80004214:	6105                	addi	sp,sp,32
80004216:	8082                	ret
80004218:	0fffc797          	auipc	a5,0xfffc
8000421c:	01078793          	addi	a5,a5,16 # 90000228 <__sf_fake_stdout>
80004220:	00f41463          	bne	s0,a5,80004228 <__swbuf_r+0xa4>
80004224:	4480                	lw	s0,8(s1)
80004226:	b759                	j	800041ac <__swbuf_r+0x28>
80004228:	0fffc797          	auipc	a5,0xfffc
8000422c:	fc078793          	addi	a5,a5,-64 # 900001e8 <__sf_fake_stderr>
80004230:	f6f41ee3          	bne	s0,a5,800041ac <__swbuf_r+0x28>
80004234:	44c0                	lw	s0,12(s1)
80004236:	bf9d                	j	800041ac <__swbuf_r+0x28>
80004238:	85a2                	mv	a1,s0
8000423a:	8526                	mv	a0,s1
8000423c:	283d                	jal	8000427a <__swsetup_r>
8000423e:	dd3d                	beqz	a0,800041bc <__swbuf_r+0x38>
80004240:	597d                	li	s2,-1
80004242:	b7d9                	j	80004208 <__swbuf_r+0x84>

80004244 <_write_r>:
_write_r():
80004244:	1141                	addi	sp,sp,-16
80004246:	c422                	sw	s0,8(sp)
80004248:	842a                	mv	s0,a0
8000424a:	852e                	mv	a0,a1
8000424c:	85b2                	mv	a1,a2
8000424e:	8636                	mv	a2,a3
80004250:	10007797          	auipc	a5,0x10007
80004254:	e207ac23          	sw	zero,-456(a5) # 9000b088 <errno>
80004258:	c606                	sw	ra,12(sp)
8000425a:	9f1ff0ef          	jal	ra,80003c4a <_write>
8000425e:	57fd                	li	a5,-1
80004260:	00f51963          	bne	a0,a5,80004272 <_write_r+0x2e>
80004264:	10007797          	auipc	a5,0x10007
80004268:	e2478793          	addi	a5,a5,-476 # 9000b088 <errno>
8000426c:	439c                	lw	a5,0(a5)
8000426e:	c391                	beqz	a5,80004272 <_write_r+0x2e>
80004270:	c01c                	sw	a5,0(s0)
80004272:	40b2                	lw	ra,12(sp)
80004274:	4422                	lw	s0,8(sp)
80004276:	0141                	addi	sp,sp,16
80004278:	8082                	ret

8000427a <__swsetup_r>:
__swsetup_r():
8000427a:	1141                	addi	sp,sp,-16
8000427c:	0fffc797          	auipc	a5,0xfffc
80004280:	6d878793          	addi	a5,a5,1752 # 90000954 <_impure_ptr>
80004284:	c226                	sw	s1,4(sp)
80004286:	4384                	lw	s1,0(a5)
80004288:	c422                	sw	s0,8(sp)
8000428a:	c04a                	sw	s2,0(sp)
8000428c:	c606                	sw	ra,12(sp)
8000428e:	892a                	mv	s2,a0
80004290:	842e                	mv	s0,a1
80004292:	c489                	beqz	s1,8000429c <__swsetup_r+0x22>
80004294:	4c9c                	lw	a5,24(s1)
80004296:	e399                	bnez	a5,8000429c <__swsetup_r+0x22>
80004298:	8526                	mv	a0,s1
8000429a:	2179                	jal	80004728 <__sinit>
8000429c:	0fffc797          	auipc	a5,0xfffc
800042a0:	f6c78793          	addi	a5,a5,-148 # 90000208 <__sf_fake_stdin>
800042a4:	02f41c63          	bne	s0,a5,800042dc <__swsetup_r+0x62>
800042a8:	40c0                	lw	s0,4(s1)
800042aa:	00c41703          	lh	a4,12(s0)
800042ae:	01071793          	slli	a5,a4,0x10
800042b2:	83c1                	srli	a5,a5,0x10
800042b4:	0087f693          	andi	a3,a5,8
800042b8:	eeb5                	bnez	a3,80004334 <__swsetup_r+0xba>
800042ba:	0107f693          	andi	a3,a5,16
800042be:	ee9d                	bnez	a3,800042fc <__swsetup_r+0x82>
800042c0:	47a5                	li	a5,9
800042c2:	00f92023          	sw	a5,0(s2)
800042c6:	04076713          	ori	a4,a4,64
800042ca:	00e41623          	sh	a4,12(s0)
800042ce:	557d                	li	a0,-1
800042d0:	40b2                	lw	ra,12(sp)
800042d2:	4422                	lw	s0,8(sp)
800042d4:	4492                	lw	s1,4(sp)
800042d6:	4902                	lw	s2,0(sp)
800042d8:	0141                	addi	sp,sp,16
800042da:	8082                	ret
800042dc:	0fffc797          	auipc	a5,0xfffc
800042e0:	f4c78793          	addi	a5,a5,-180 # 90000228 <__sf_fake_stdout>
800042e4:	00f41463          	bne	s0,a5,800042ec <__swsetup_r+0x72>
800042e8:	4480                	lw	s0,8(s1)
800042ea:	b7c1                	j	800042aa <__swsetup_r+0x30>
800042ec:	0fffc797          	auipc	a5,0xfffc
800042f0:	efc78793          	addi	a5,a5,-260 # 900001e8 <__sf_fake_stderr>
800042f4:	faf41be3          	bne	s0,a5,800042aa <__swsetup_r+0x30>
800042f8:	44c0                	lw	s0,12(s1)
800042fa:	bf45                	j	800042aa <__swsetup_r+0x30>
800042fc:	8b91                	andi	a5,a5,4
800042fe:	c78d                	beqz	a5,80004328 <__swsetup_r+0xae>
80004300:	584c                	lw	a1,52(s0)
80004302:	c989                	beqz	a1,80004314 <__swsetup_r+0x9a>
80004304:	04440793          	addi	a5,s0,68
80004308:	00f58463          	beq	a1,a5,80004310 <__swsetup_r+0x96>
8000430c:	854a                	mv	a0,s2
8000430e:	273d                	jal	80004a3c <_free_r>
80004310:	02042a23          	sw	zero,52(s0)
80004314:	00c45783          	lhu	a5,12(s0)
80004318:	00042223          	sw	zero,4(s0)
8000431c:	fdb7f793          	andi	a5,a5,-37
80004320:	00f41623          	sh	a5,12(s0)
80004324:	481c                	lw	a5,16(s0)
80004326:	c01c                	sw	a5,0(s0)
80004328:	00c45783          	lhu	a5,12(s0)
8000432c:	0087e793          	ori	a5,a5,8
80004330:	00f41623          	sh	a5,12(s0)
80004334:	481c                	lw	a5,16(s0)
80004336:	ef81                	bnez	a5,8000434e <__swsetup_r+0xd4>
80004338:	00c45783          	lhu	a5,12(s0)
8000433c:	20000713          	li	a4,512
80004340:	2807f793          	andi	a5,a5,640
80004344:	00e78563          	beq	a5,a4,8000434e <__swsetup_r+0xd4>
80004348:	85a2                	mv	a1,s0
8000434a:	854a                	mv	a0,s2
8000434c:	236d                	jal	800048f6 <__smakebuf_r>
8000434e:	00c45783          	lhu	a5,12(s0)
80004352:	0017f713          	andi	a4,a5,1
80004356:	c705                	beqz	a4,8000437e <__swsetup_r+0x104>
80004358:	485c                	lw	a5,20(s0)
8000435a:	00042423          	sw	zero,8(s0)
8000435e:	40f007b3          	neg	a5,a5
80004362:	cc1c                	sw	a5,24(s0)
80004364:	481c                	lw	a5,16(s0)
80004366:	4501                	li	a0,0
80004368:	f7a5                	bnez	a5,800042d0 <__swsetup_r+0x56>
8000436a:	00c41783          	lh	a5,12(s0)
8000436e:	0807f713          	andi	a4,a5,128
80004372:	df39                	beqz	a4,800042d0 <__swsetup_r+0x56>
80004374:	0407e793          	ori	a5,a5,64
80004378:	00f41623          	sh	a5,12(s0)
8000437c:	bf89                	j	800042ce <__swsetup_r+0x54>
8000437e:	8b89                	andi	a5,a5,2
80004380:	4701                	li	a4,0
80004382:	e391                	bnez	a5,80004386 <__swsetup_r+0x10c>
80004384:	4858                	lw	a4,20(s0)
80004386:	c418                	sw	a4,8(s0)
80004388:	bff1                	j	80004364 <__swsetup_r+0xea>

8000438a <__register_exitproc>:
__register_exitproc():
8000438a:	8c018793          	addi	a5,gp,-1856 # 90000a10 <_global_atexit>
8000438e:	439c                	lw	a5,0(a5)
80004390:	8e2a                	mv	t3,a0
80004392:	e39d                	bnez	a5,800043b8 <__register_exitproc+0x2e>
80004394:	10007717          	auipc	a4,0x10007
80004398:	c6870713          	addi	a4,a4,-920 # 9000affc <_global_atexit0>
8000439c:	8ce1a023          	sw	a4,-1856(gp) # 90000a10 <_global_atexit>
800043a0:	7fffc517          	auipc	a0,0x7fffc
800043a4:	c6050513          	addi	a0,a0,-928 # 0 <_sp+0x6fff0000>
800043a8:	87ba                	mv	a5,a4
800043aa:	c519                	beqz	a0,800043b8 <__register_exitproc+0x2e>
800043ac:	411c                	lw	a5,0(a0)
800043ae:	10007517          	auipc	a0,0x10007
800043b2:	ccf52b23          	sw	a5,-810(a0) # 9000b084 <_global_atexit0+0x88>
800043b6:	87ba                	mv	a5,a4
800043b8:	43d8                	lw	a4,4(a5)
800043ba:	487d                	li	a6,31
800043bc:	557d                	li	a0,-1
800043be:	04e84763          	blt	a6,a4,8000440c <__register_exitproc+0x82>
800043c2:	020e0e63          	beqz	t3,800043fe <__register_exitproc+0x74>
800043c6:	0887a803          	lw	a6,136(a5)
800043ca:	04080163          	beqz	a6,8000440c <__register_exitproc+0x82>
800043ce:	00271893          	slli	a7,a4,0x2
800043d2:	98c2                	add	a7,a7,a6
800043d4:	00c8a023          	sw	a2,0(a7)
800043d8:	10082303          	lw	t1,256(a6)
800043dc:	4605                	li	a2,1
800043de:	00e61633          	sll	a2,a2,a4
800043e2:	00c36333          	or	t1,t1,a2
800043e6:	10682023          	sw	t1,256(a6)
800043ea:	08d8a023          	sw	a3,128(a7)
800043ee:	4689                	li	a3,2
800043f0:	00de1763          	bne	t3,a3,800043fe <__register_exitproc+0x74>
800043f4:	10482683          	lw	a3,260(a6)
800043f8:	8e55                	or	a2,a2,a3
800043fa:	10c82223          	sw	a2,260(a6)
800043fe:	00170693          	addi	a3,a4,1
80004402:	070a                	slli	a4,a4,0x2
80004404:	c3d4                	sw	a3,4(a5)
80004406:	97ba                	add	a5,a5,a4
80004408:	c78c                	sw	a1,8(a5)
8000440a:	4501                	li	a0,0
8000440c:	8082                	ret

8000440e <__call_exitprocs>:
__call_exitprocs():
8000440e:	7179                	addi	sp,sp,-48
80004410:	cc52                	sw	s4,24(sp)
80004412:	ca56                	sw	s5,20(sp)
80004414:	c85a                	sw	s6,16(sp)
80004416:	c65e                	sw	s7,12(sp)
80004418:	d606                	sw	ra,44(sp)
8000441a:	d422                	sw	s0,40(sp)
8000441c:	d226                	sw	s1,36(sp)
8000441e:	d04a                	sw	s2,32(sp)
80004420:	ce4e                	sw	s3,28(sp)
80004422:	c462                	sw	s8,8(sp)
80004424:	8b2a                	mv	s6,a0
80004426:	8a2e                	mv	s4,a1
80004428:	8c018a93          	addi	s5,gp,-1856 # 90000a10 <_global_atexit>
8000442c:	4b85                	li	s7,1
8000442e:	000aa403          	lw	s0,0(s5)
80004432:	c811                	beqz	s0,80004446 <__call_exitprocs+0x38>
80004434:	4044                	lw	s1,4(s0)
80004436:	08842983          	lw	s3,136(s0)
8000443a:	fff48913          	addi	s2,s1,-1
8000443e:	048a                	slli	s1,s1,0x2
80004440:	94a2                	add	s1,s1,s0
80004442:	00095e63          	bgez	s2,8000445e <__call_exitprocs+0x50>
80004446:	50b2                	lw	ra,44(sp)
80004448:	5422                	lw	s0,40(sp)
8000444a:	5492                	lw	s1,36(sp)
8000444c:	5902                	lw	s2,32(sp)
8000444e:	49f2                	lw	s3,28(sp)
80004450:	4a62                	lw	s4,24(sp)
80004452:	4ad2                	lw	s5,20(sp)
80004454:	4b42                	lw	s6,16(sp)
80004456:	4bb2                	lw	s7,12(sp)
80004458:	4c22                	lw	s8,8(sp)
8000445a:	6145                	addi	sp,sp,48
8000445c:	8082                	ret
8000445e:	000a0e63          	beqz	s4,8000447a <__call_exitprocs+0x6c>
80004462:	00099563          	bnez	s3,8000446c <__call_exitprocs+0x5e>
80004466:	197d                	addi	s2,s2,-1
80004468:	14f1                	addi	s1,s1,-4
8000446a:	bfe1                	j	80004442 <__call_exitprocs+0x34>
8000446c:	00291793          	slli	a5,s2,0x2
80004470:	97ce                	add	a5,a5,s3
80004472:	0807a783          	lw	a5,128(a5)
80004476:	ff4798e3          	bne	a5,s4,80004466 <__call_exitprocs+0x58>
8000447a:	4058                	lw	a4,4(s0)
8000447c:	40dc                	lw	a5,4(s1)
8000447e:	177d                	addi	a4,a4,-1
80004480:	03271863          	bne	a4,s2,800044b0 <__call_exitprocs+0xa2>
80004484:	01242223          	sw	s2,4(s0)
80004488:	dff9                	beqz	a5,80004466 <__call_exitprocs+0x58>
8000448a:	00442c03          	lw	s8,4(s0)
8000448e:	00098863          	beqz	s3,8000449e <__call_exitprocs+0x90>
80004492:	1009a683          	lw	a3,256(s3)
80004496:	012b9733          	sll	a4,s7,s2
8000449a:	8ef9                	and	a3,a3,a4
8000449c:	ee89                	bnez	a3,800044b6 <__call_exitprocs+0xa8>
8000449e:	9782                	jalr	a5
800044a0:	4058                	lw	a4,4(s0)
800044a2:	000aa783          	lw	a5,0(s5)
800044a6:	f98714e3          	bne	a4,s8,8000442e <__call_exitprocs+0x20>
800044aa:	faf40ee3          	beq	s0,a5,80004466 <__call_exitprocs+0x58>
800044ae:	b741                	j	8000442e <__call_exitprocs+0x20>
800044b0:	0004a223          	sw	zero,4(s1)
800044b4:	bfd1                	j	80004488 <__call_exitprocs+0x7a>
800044b6:	00291693          	slli	a3,s2,0x2
800044ba:	96ce                	add	a3,a3,s3
800044bc:	428c                	lw	a1,0(a3)
800044be:	1049a683          	lw	a3,260(s3)
800044c2:	8f75                	and	a4,a4,a3
800044c4:	e701                	bnez	a4,800044cc <__call_exitprocs+0xbe>
800044c6:	855a                	mv	a0,s6
800044c8:	9782                	jalr	a5
800044ca:	bfd9                	j	800044a0 <__call_exitprocs+0x92>
800044cc:	852e                	mv	a0,a1
800044ce:	9782                	jalr	a5
800044d0:	bfc1                	j	800044a0 <__call_exitprocs+0x92>

800044d2 <__sflush_r>:
__sflush_r():
800044d2:	00c5d783          	lhu	a5,12(a1)
800044d6:	1101                	addi	sp,sp,-32
800044d8:	cc22                	sw	s0,24(sp)
800044da:	ca26                	sw	s1,20(sp)
800044dc:	ce06                	sw	ra,28(sp)
800044de:	c84a                	sw	s2,16(sp)
800044e0:	c64e                	sw	s3,12(sp)
800044e2:	0087f713          	andi	a4,a5,8
800044e6:	84aa                	mv	s1,a0
800044e8:	842e                	mv	s0,a1
800044ea:	ef71                	bnez	a4,800045c6 <__sflush_r+0xf4>
800044ec:	41d8                	lw	a4,4(a1)
800044ee:	00e04d63          	bgtz	a4,80004508 <__sflush_r+0x36>
800044f2:	41b8                	lw	a4,64(a1)
800044f4:	00e04a63          	bgtz	a4,80004508 <__sflush_r+0x36>
800044f8:	4501                	li	a0,0
800044fa:	40f2                	lw	ra,28(sp)
800044fc:	4462                	lw	s0,24(sp)
800044fe:	44d2                	lw	s1,20(sp)
80004500:	4942                	lw	s2,16(sp)
80004502:	49b2                	lw	s3,12(sp)
80004504:	6105                	addi	sp,sp,32
80004506:	8082                	ret
80004508:	5458                	lw	a4,44(s0)
8000450a:	d77d                	beqz	a4,800044f8 <__sflush_r+0x26>
8000450c:	0004a903          	lw	s2,0(s1)
80004510:	01379693          	slli	a3,a5,0x13
80004514:	0004a023          	sw	zero,0(s1)
80004518:	0606dd63          	bgez	a3,80004592 <__sflush_r+0xc0>
8000451c:	4870                	lw	a2,84(s0)
8000451e:	00c45783          	lhu	a5,12(s0)
80004522:	8b91                	andi	a5,a5,4
80004524:	c799                	beqz	a5,80004532 <__sflush_r+0x60>
80004526:	405c                	lw	a5,4(s0)
80004528:	8e1d                	sub	a2,a2,a5
8000452a:	585c                	lw	a5,52(s0)
8000452c:	c399                	beqz	a5,80004532 <__sflush_r+0x60>
8000452e:	403c                	lw	a5,64(s0)
80004530:	8e1d                	sub	a2,a2,a5
80004532:	545c                	lw	a5,44(s0)
80004534:	500c                	lw	a1,32(s0)
80004536:	4681                	li	a3,0
80004538:	8526                	mv	a0,s1
8000453a:	9782                	jalr	a5
8000453c:	57fd                	li	a5,-1
8000453e:	00c45703          	lhu	a4,12(s0)
80004542:	00f51d63          	bne	a0,a5,8000455c <__sflush_r+0x8a>
80004546:	4094                	lw	a3,0(s1)
80004548:	47f5                	li	a5,29
8000454a:	06d7e863          	bltu	a5,a3,800045ba <__sflush_r+0xe8>
8000454e:	204007b7          	lui	a5,0x20400
80004552:	0785                	addi	a5,a5,1
80004554:	00d7d7b3          	srl	a5,a5,a3
80004558:	8b85                	andi	a5,a5,1
8000455a:	c3a5                	beqz	a5,800045ba <__sflush_r+0xe8>
8000455c:	481c                	lw	a5,16(s0)
8000455e:	00042223          	sw	zero,4(s0)
80004562:	c01c                	sw	a5,0(s0)
80004564:	01371793          	slli	a5,a4,0x13
80004568:	0007d863          	bgez	a5,80004578 <__sflush_r+0xa6>
8000456c:	57fd                	li	a5,-1
8000456e:	00f51463          	bne	a0,a5,80004576 <__sflush_r+0xa4>
80004572:	409c                	lw	a5,0(s1)
80004574:	e391                	bnez	a5,80004578 <__sflush_r+0xa6>
80004576:	c868                	sw	a0,84(s0)
80004578:	584c                	lw	a1,52(s0)
8000457a:	0124a023          	sw	s2,0(s1)
8000457e:	ddad                	beqz	a1,800044f8 <__sflush_r+0x26>
80004580:	04440793          	addi	a5,s0,68
80004584:	00f58463          	beq	a1,a5,8000458c <__sflush_r+0xba>
80004588:	8526                	mv	a0,s1
8000458a:	294d                	jal	80004a3c <_free_r>
8000458c:	02042a23          	sw	zero,52(s0)
80004590:	b7a5                	j	800044f8 <__sflush_r+0x26>
80004592:	500c                	lw	a1,32(s0)
80004594:	4601                	li	a2,0
80004596:	4685                	li	a3,1
80004598:	8526                	mv	a0,s1
8000459a:	9702                	jalr	a4
8000459c:	57fd                	li	a5,-1
8000459e:	862a                	mv	a2,a0
800045a0:	f6f51fe3          	bne	a0,a5,8000451e <__sflush_r+0x4c>
800045a4:	409c                	lw	a5,0(s1)
800045a6:	dfa5                	beqz	a5,8000451e <__sflush_r+0x4c>
800045a8:	4775                	li	a4,29
800045aa:	00e78563          	beq	a5,a4,800045b4 <__sflush_r+0xe2>
800045ae:	4759                	li	a4,22
800045b0:	04e79463          	bne	a5,a4,800045f8 <__sflush_r+0x126>
800045b4:	0124a023          	sw	s2,0(s1)
800045b8:	b781                	j	800044f8 <__sflush_r+0x26>
800045ba:	04076713          	ori	a4,a4,64
800045be:	00e41623          	sh	a4,12(s0)
800045c2:	557d                	li	a0,-1
800045c4:	bf1d                	j	800044fa <__sflush_r+0x28>
800045c6:	0105a983          	lw	s3,16(a1)
800045ca:	f20987e3          	beqz	s3,800044f8 <__sflush_r+0x26>
800045ce:	0005a903          	lw	s2,0(a1)
800045d2:	8b8d                	andi	a5,a5,3
800045d4:	0135a023          	sw	s3,0(a1)
800045d8:	41390933          	sub	s2,s2,s3
800045dc:	4701                	li	a4,0
800045de:	e391                	bnez	a5,800045e2 <__sflush_r+0x110>
800045e0:	49d8                	lw	a4,20(a1)
800045e2:	c418                	sw	a4,8(s0)
800045e4:	f1205ae3          	blez	s2,800044f8 <__sflush_r+0x26>
800045e8:	541c                	lw	a5,40(s0)
800045ea:	500c                	lw	a1,32(s0)
800045ec:	86ca                	mv	a3,s2
800045ee:	864e                	mv	a2,s3
800045f0:	8526                	mv	a0,s1
800045f2:	9782                	jalr	a5
800045f4:	00a04963          	bgtz	a0,80004606 <__sflush_r+0x134>
800045f8:	00c45783          	lhu	a5,12(s0)
800045fc:	0407e793          	ori	a5,a5,64
80004600:	00f41623          	sh	a5,12(s0)
80004604:	bf7d                	j	800045c2 <__sflush_r+0xf0>
80004606:	99aa                	add	s3,s3,a0
80004608:	40a90933          	sub	s2,s2,a0
8000460c:	bfe1                	j	800045e4 <__sflush_r+0x112>

8000460e <_fflush_r>:
_fflush_r():
8000460e:	499c                	lw	a5,16(a1)
80004610:	cfb9                	beqz	a5,8000466e <_fflush_r+0x60>
80004612:	1101                	addi	sp,sp,-32
80004614:	cc22                	sw	s0,24(sp)
80004616:	ce06                	sw	ra,28(sp)
80004618:	842a                	mv	s0,a0
8000461a:	c511                	beqz	a0,80004626 <_fflush_r+0x18>
8000461c:	4d1c                	lw	a5,24(a0)
8000461e:	e781                	bnez	a5,80004626 <_fflush_r+0x18>
80004620:	c62e                	sw	a1,12(sp)
80004622:	2219                	jal	80004728 <__sinit>
80004624:	45b2                	lw	a1,12(sp)
80004626:	0fffc797          	auipc	a5,0xfffc
8000462a:	be278793          	addi	a5,a5,-1054 # 90000208 <__sf_fake_stdin>
8000462e:	00f59b63          	bne	a1,a5,80004644 <_fflush_r+0x36>
80004632:	404c                	lw	a1,4(s0)
80004634:	00c59783          	lh	a5,12(a1)
80004638:	c795                	beqz	a5,80004664 <_fflush_r+0x56>
8000463a:	8522                	mv	a0,s0
8000463c:	4462                	lw	s0,24(sp)
8000463e:	40f2                	lw	ra,28(sp)
80004640:	6105                	addi	sp,sp,32
80004642:	bd41                	j	800044d2 <__sflush_r>
80004644:	0fffc797          	auipc	a5,0xfffc
80004648:	be478793          	addi	a5,a5,-1052 # 90000228 <__sf_fake_stdout>
8000464c:	00f59463          	bne	a1,a5,80004654 <_fflush_r+0x46>
80004650:	440c                	lw	a1,8(s0)
80004652:	b7cd                	j	80004634 <_fflush_r+0x26>
80004654:	0fffc797          	auipc	a5,0xfffc
80004658:	b9478793          	addi	a5,a5,-1132 # 900001e8 <__sf_fake_stderr>
8000465c:	fcf59ce3          	bne	a1,a5,80004634 <_fflush_r+0x26>
80004660:	444c                	lw	a1,12(s0)
80004662:	bfc9                	j	80004634 <_fflush_r+0x26>
80004664:	40f2                	lw	ra,28(sp)
80004666:	4462                	lw	s0,24(sp)
80004668:	4501                	li	a0,0
8000466a:	6105                	addi	sp,sp,32
8000466c:	8082                	ret
8000466e:	4501                	li	a0,0
80004670:	8082                	ret

80004672 <std>:
std():
80004672:	1141                	addi	sp,sp,-16
80004674:	c422                	sw	s0,8(sp)
80004676:	c606                	sw	ra,12(sp)
80004678:	842a                	mv	s0,a0
8000467a:	00b51623          	sh	a1,12(a0)
8000467e:	00c51723          	sh	a2,14(a0)
80004682:	00052023          	sw	zero,0(a0)
80004686:	00052223          	sw	zero,4(a0)
8000468a:	00052423          	sw	zero,8(a0)
8000468e:	06052223          	sw	zero,100(a0)
80004692:	00052823          	sw	zero,16(a0)
80004696:	00052a23          	sw	zero,20(a0)
8000469a:	00052c23          	sw	zero,24(a0)
8000469e:	4621                	li	a2,8
800046a0:	4581                	li	a1,0
800046a2:	05c50513          	addi	a0,a0,92
800046a6:	24fd                	jal	80004994 <memset>
800046a8:	00001797          	auipc	a5,0x1
800046ac:	bf878793          	addi	a5,a5,-1032 # 800052a0 <__sread>
800046b0:	d05c                	sw	a5,36(s0)
800046b2:	00001797          	auipc	a5,0x1
800046b6:	c1e78793          	addi	a5,a5,-994 # 800052d0 <__swrite>
800046ba:	d41c                	sw	a5,40(s0)
800046bc:	00001797          	auipc	a5,0x1
800046c0:	c6478793          	addi	a5,a5,-924 # 80005320 <__sseek>
800046c4:	d45c                	sw	a5,44(s0)
800046c6:	00001797          	auipc	a5,0x1
800046ca:	c9078793          	addi	a5,a5,-880 # 80005356 <__sclose>
800046ce:	d000                	sw	s0,32(s0)
800046d0:	d81c                	sw	a5,48(s0)
800046d2:	40b2                	lw	ra,12(sp)
800046d4:	4422                	lw	s0,8(sp)
800046d6:	0141                	addi	sp,sp,16
800046d8:	8082                	ret

800046da <_cleanup_r>:
_cleanup_r():
800046da:	00000597          	auipc	a1,0x0
800046de:	f3458593          	addi	a1,a1,-204 # 8000460e <_fflush_r>
800046e2:	a2b9                	j	80004830 <_fwalk_reent>

800046e4 <__sfmoreglue>:
__sfmoreglue():
800046e4:	1141                	addi	sp,sp,-16
800046e6:	c226                	sw	s1,4(sp)
800046e8:	06800613          	li	a2,104
800046ec:	fff58493          	addi	s1,a1,-1
800046f0:	02c484b3          	mul	s1,s1,a2
800046f4:	c04a                	sw	s2,0(sp)
800046f6:	892e                	mv	s2,a1
800046f8:	c422                	sw	s0,8(sp)
800046fa:	c606                	sw	ra,12(sp)
800046fc:	07448593          	addi	a1,s1,116
80004700:	26d5                	jal	80004ae4 <_malloc_r>
80004702:	842a                	mv	s0,a0
80004704:	c919                	beqz	a0,8000471a <__sfmoreglue+0x36>
80004706:	00052023          	sw	zero,0(a0)
8000470a:	01252223          	sw	s2,4(a0)
8000470e:	0531                	addi	a0,a0,12
80004710:	c408                	sw	a0,8(s0)
80004712:	06848613          	addi	a2,s1,104
80004716:	4581                	li	a1,0
80004718:	2cb5                	jal	80004994 <memset>
8000471a:	8522                	mv	a0,s0
8000471c:	40b2                	lw	ra,12(sp)
8000471e:	4422                	lw	s0,8(sp)
80004720:	4492                	lw	s1,4(sp)
80004722:	4902                	lw	s2,0(sp)
80004724:	0141                	addi	sp,sp,16
80004726:	8082                	ret

80004728 <__sinit>:
__sinit():
80004728:	4d1c                	lw	a5,24(a0)
8000472a:	e3bd                	bnez	a5,80004790 <__sinit+0x68>
8000472c:	1141                	addi	sp,sp,-16
8000472e:	c606                	sw	ra,12(sp)
80004730:	c422                	sw	s0,8(sp)
80004732:	00000797          	auipc	a5,0x0
80004736:	fa878793          	addi	a5,a5,-88 # 800046da <_cleanup_r>
8000473a:	d51c                	sw	a5,40(a0)
8000473c:	00001797          	auipc	a5,0x1
80004740:	d4478793          	addi	a5,a5,-700 # 80005480 <_global_impure_ptr>
80004744:	439c                	lw	a5,0(a5)
80004746:	04052423          	sw	zero,72(a0)
8000474a:	04052623          	sw	zero,76(a0)
8000474e:	04052823          	sw	zero,80(a0)
80004752:	00f51463          	bne	a0,a5,8000475a <__sinit+0x32>
80004756:	4785                	li	a5,1
80004758:	cd1c                	sw	a5,24(a0)
8000475a:	842a                	mv	s0,a0
8000475c:	281d                	jal	80004792 <__sfp>
8000475e:	c048                	sw	a0,4(s0)
80004760:	8522                	mv	a0,s0
80004762:	2805                	jal	80004792 <__sfp>
80004764:	c408                	sw	a0,8(s0)
80004766:	8522                	mv	a0,s0
80004768:	202d                	jal	80004792 <__sfp>
8000476a:	c448                	sw	a0,12(s0)
8000476c:	4048                	lw	a0,4(s0)
8000476e:	4601                	li	a2,0
80004770:	4591                	li	a1,4
80004772:	3701                	jal	80004672 <std>
80004774:	4408                	lw	a0,8(s0)
80004776:	4605                	li	a2,1
80004778:	45a5                	li	a1,9
8000477a:	3de5                	jal	80004672 <std>
8000477c:	4448                	lw	a0,12(s0)
8000477e:	4609                	li	a2,2
80004780:	45c9                	li	a1,18
80004782:	3dc5                	jal	80004672 <std>
80004784:	4785                	li	a5,1
80004786:	cc1c                	sw	a5,24(s0)
80004788:	40b2                	lw	ra,12(sp)
8000478a:	4422                	lw	s0,8(sp)
8000478c:	0141                	addi	sp,sp,16
8000478e:	8082                	ret
80004790:	8082                	ret

80004792 <__sfp>:
__sfp():
80004792:	1141                	addi	sp,sp,-16
80004794:	00001797          	auipc	a5,0x1
80004798:	cec78793          	addi	a5,a5,-788 # 80005480 <_global_impure_ptr>
8000479c:	c226                	sw	s1,4(sp)
8000479e:	4384                	lw	s1,0(a5)
800047a0:	c04a                	sw	s2,0(sp)
800047a2:	c606                	sw	ra,12(sp)
800047a4:	4c9c                	lw	a5,24(s1)
800047a6:	c422                	sw	s0,8(sp)
800047a8:	892a                	mv	s2,a0
800047aa:	e399                	bnez	a5,800047b0 <__sfp+0x1e>
800047ac:	8526                	mv	a0,s1
800047ae:	3fad                	jal	80004728 <__sinit>
800047b0:	04848493          	addi	s1,s1,72
800047b4:	4480                	lw	s0,8(s1)
800047b6:	40dc                	lw	a5,4(s1)
800047b8:	17fd                	addi	a5,a5,-1
800047ba:	0007d663          	bgez	a5,800047c6 <__sfp+0x34>
800047be:	409c                	lw	a5,0(s1)
800047c0:	cfb1                	beqz	a5,8000481c <__sfp+0x8a>
800047c2:	4084                	lw	s1,0(s1)
800047c4:	bfc5                	j	800047b4 <__sfp+0x22>
800047c6:	00c41703          	lh	a4,12(s0)
800047ca:	e731                	bnez	a4,80004816 <__sfp+0x84>
800047cc:	77c1                	lui	a5,0xffff0
800047ce:	0785                	addi	a5,a5,1
800047d0:	06042223          	sw	zero,100(s0)
800047d4:	00042023          	sw	zero,0(s0)
800047d8:	00042223          	sw	zero,4(s0)
800047dc:	00042423          	sw	zero,8(s0)
800047e0:	c45c                	sw	a5,12(s0)
800047e2:	00042823          	sw	zero,16(s0)
800047e6:	00042a23          	sw	zero,20(s0)
800047ea:	00042c23          	sw	zero,24(s0)
800047ee:	4621                	li	a2,8
800047f0:	4581                	li	a1,0
800047f2:	05c40513          	addi	a0,s0,92
800047f6:	2a79                	jal	80004994 <memset>
800047f8:	02042a23          	sw	zero,52(s0)
800047fc:	02042c23          	sw	zero,56(s0)
80004800:	04042423          	sw	zero,72(s0)
80004804:	04042623          	sw	zero,76(s0)
80004808:	8522                	mv	a0,s0
8000480a:	40b2                	lw	ra,12(sp)
8000480c:	4422                	lw	s0,8(sp)
8000480e:	4492                	lw	s1,4(sp)
80004810:	4902                	lw	s2,0(sp)
80004812:	0141                	addi	sp,sp,16
80004814:	8082                	ret
80004816:	06840413          	addi	s0,s0,104
8000481a:	bf79                	j	800047b8 <__sfp+0x26>
8000481c:	4591                	li	a1,4
8000481e:	854a                	mv	a0,s2
80004820:	35d1                	jal	800046e4 <__sfmoreglue>
80004822:	c088                	sw	a0,0(s1)
80004824:	fd59                	bnez	a0,800047c2 <__sfp+0x30>
80004826:	47b1                	li	a5,12
80004828:	00f92023          	sw	a5,0(s2)
8000482c:	4401                	li	s0,0
8000482e:	bfe9                	j	80004808 <__sfp+0x76>

80004830 <_fwalk_reent>:
_fwalk_reent():
80004830:	7179                	addi	sp,sp,-48
80004832:	d422                	sw	s0,40(sp)
80004834:	d04a                	sw	s2,32(sp)
80004836:	cc52                	sw	s4,24(sp)
80004838:	ca56                	sw	s5,20(sp)
8000483a:	c85a                	sw	s6,16(sp)
8000483c:	c65e                	sw	s7,12(sp)
8000483e:	d606                	sw	ra,44(sp)
80004840:	d226                	sw	s1,36(sp)
80004842:	ce4e                	sw	s3,28(sp)
80004844:	8a2a                	mv	s4,a0
80004846:	8aae                	mv	s5,a1
80004848:	04850413          	addi	s0,a0,72
8000484c:	4901                	li	s2,0
8000484e:	4b05                	li	s6,1
80004850:	5bfd                	li	s7,-1
80004852:	ec09                	bnez	s0,8000486c <_fwalk_reent+0x3c>
80004854:	50b2                	lw	ra,44(sp)
80004856:	5422                	lw	s0,40(sp)
80004858:	854a                	mv	a0,s2
8000485a:	5492                	lw	s1,36(sp)
8000485c:	5902                	lw	s2,32(sp)
8000485e:	49f2                	lw	s3,28(sp)
80004860:	4a62                	lw	s4,24(sp)
80004862:	4ad2                	lw	s5,20(sp)
80004864:	4b42                	lw	s6,16(sp)
80004866:	4bb2                	lw	s7,12(sp)
80004868:	6145                	addi	sp,sp,48
8000486a:	8082                	ret
8000486c:	4404                	lw	s1,8(s0)
8000486e:	00442983          	lw	s3,4(s0)
80004872:	19fd                	addi	s3,s3,-1
80004874:	0009d463          	bgez	s3,8000487c <_fwalk_reent+0x4c>
80004878:	4000                	lw	s0,0(s0)
8000487a:	bfe1                	j	80004852 <_fwalk_reent+0x22>
8000487c:	00c4d783          	lhu	a5,12(s1)
80004880:	00fb7b63          	bgeu	s6,a5,80004896 <_fwalk_reent+0x66>
80004884:	00e49783          	lh	a5,14(s1)
80004888:	01778763          	beq	a5,s7,80004896 <_fwalk_reent+0x66>
8000488c:	85a6                	mv	a1,s1
8000488e:	8552                	mv	a0,s4
80004890:	9a82                	jalr	s5
80004892:	00a96933          	or	s2,s2,a0
80004896:	06848493          	addi	s1,s1,104
8000489a:	bfe1                	j	80004872 <_fwalk_reent+0x42>

8000489c <__swhatbuf_r>:
__swhatbuf_r():
8000489c:	7119                	addi	sp,sp,-128
8000489e:	daa6                	sw	s1,116(sp)
800048a0:	84ae                	mv	s1,a1
800048a2:	00e59583          	lh	a1,14(a1)
800048a6:	dca2                	sw	s0,120(sp)
800048a8:	de86                	sw	ra,124(sp)
800048aa:	8432                	mv	s0,a2
800048ac:	0005dc63          	bgez	a1,800048c4 <__swhatbuf_r+0x28>
800048b0:	00c4d783          	lhu	a5,12(s1)
800048b4:	0006a023          	sw	zero,0(a3)
800048b8:	0807f793          	andi	a5,a5,128
800048bc:	e785                	bnez	a5,800048e4 <__swhatbuf_r+0x48>
800048be:	40000793          	li	a5,1024
800048c2:	a01d                	j	800048e8 <__swhatbuf_r+0x4c>
800048c4:	0830                	addi	a2,sp,24
800048c6:	c636                	sw	a3,12(sp)
800048c8:	2c7000ef          	jal	ra,8000538e <_fstat_r>
800048cc:	46b2                	lw	a3,12(sp)
800048ce:	fe0541e3          	bltz	a0,800048b0 <__swhatbuf_r+0x14>
800048d2:	4772                	lw	a4,28(sp)
800048d4:	67bd                	lui	a5,0xf
800048d6:	8ff9                	and	a5,a5,a4
800048d8:	7779                	lui	a4,0xffffe
800048da:	97ba                	add	a5,a5,a4
800048dc:	0017b793          	seqz	a5,a5
800048e0:	c29c                	sw	a5,0(a3)
800048e2:	bff1                	j	800048be <__swhatbuf_r+0x22>
800048e4:	04000793          	li	a5,64
800048e8:	c01c                	sw	a5,0(s0)
800048ea:	50f6                	lw	ra,124(sp)
800048ec:	5466                	lw	s0,120(sp)
800048ee:	54d6                	lw	s1,116(sp)
800048f0:	4501                	li	a0,0
800048f2:	6109                	addi	sp,sp,128
800048f4:	8082                	ret

800048f6 <__smakebuf_r>:
__smakebuf_r():
800048f6:	00c5d783          	lhu	a5,12(a1)
800048fa:	1101                	addi	sp,sp,-32
800048fc:	cc22                	sw	s0,24(sp)
800048fe:	ce06                	sw	ra,28(sp)
80004900:	ca26                	sw	s1,20(sp)
80004902:	c84a                	sw	s2,16(sp)
80004904:	8b89                	andi	a5,a5,2
80004906:	842e                	mv	s0,a1
80004908:	cf89                	beqz	a5,80004922 <__smakebuf_r+0x2c>
8000490a:	04740793          	addi	a5,s0,71
8000490e:	c01c                	sw	a5,0(s0)
80004910:	c81c                	sw	a5,16(s0)
80004912:	4785                	li	a5,1
80004914:	c85c                	sw	a5,20(s0)
80004916:	40f2                	lw	ra,28(sp)
80004918:	4462                	lw	s0,24(sp)
8000491a:	44d2                	lw	s1,20(sp)
8000491c:	4942                	lw	s2,16(sp)
8000491e:	6105                	addi	sp,sp,32
80004920:	8082                	ret
80004922:	0074                	addi	a3,sp,12
80004924:	0030                	addi	a2,sp,8
80004926:	84aa                	mv	s1,a0
80004928:	3f95                	jal	8000489c <__swhatbuf_r>
8000492a:	45a2                	lw	a1,8(sp)
8000492c:	892a                	mv	s2,a0
8000492e:	8526                	mv	a0,s1
80004930:	2a55                	jal	80004ae4 <_malloc_r>
80004932:	ed01                	bnez	a0,8000494a <__smakebuf_r+0x54>
80004934:	00c41783          	lh	a5,12(s0)
80004938:	2007f713          	andi	a4,a5,512
8000493c:	ff69                	bnez	a4,80004916 <__smakebuf_r+0x20>
8000493e:	9bf1                	andi	a5,a5,-4
80004940:	0027e793          	ori	a5,a5,2
80004944:	00f41623          	sh	a5,12(s0)
80004948:	b7c9                	j	8000490a <__smakebuf_r+0x14>
8000494a:	00000797          	auipc	a5,0x0
8000494e:	d9078793          	addi	a5,a5,-624 # 800046da <_cleanup_r>
80004952:	d49c                	sw	a5,40(s1)
80004954:	00c45783          	lhu	a5,12(s0)
80004958:	c008                	sw	a0,0(s0)
8000495a:	c808                	sw	a0,16(s0)
8000495c:	0807e793          	ori	a5,a5,128
80004960:	00f41623          	sh	a5,12(s0)
80004964:	47a2                	lw	a5,8(sp)
80004966:	c85c                	sw	a5,20(s0)
80004968:	47b2                	lw	a5,12(sp)
8000496a:	cf91                	beqz	a5,80004986 <__smakebuf_r+0x90>
8000496c:	00e41583          	lh	a1,14(s0)
80004970:	8526                	mv	a0,s1
80004972:	251000ef          	jal	ra,800053c2 <_isatty_r>
80004976:	c901                	beqz	a0,80004986 <__smakebuf_r+0x90>
80004978:	00c45783          	lhu	a5,12(s0)
8000497c:	9bf1                	andi	a5,a5,-4
8000497e:	0017e793          	ori	a5,a5,1
80004982:	00f41623          	sh	a5,12(s0)
80004986:	00c45783          	lhu	a5,12(s0)
8000498a:	00f96933          	or	s2,s2,a5
8000498e:	01241623          	sh	s2,12(s0)
80004992:	b751                	j	80004916 <__smakebuf_r+0x20>

80004994 <memset>:
memset():
80004994:	433d                	li	t1,15
80004996:	872a                	mv	a4,a0
80004998:	02c37363          	bgeu	t1,a2,800049be <memset+0x2a>
8000499c:	00f77793          	andi	a5,a4,15
800049a0:	efbd                	bnez	a5,80004a1e <memset+0x8a>
800049a2:	e5ad                	bnez	a1,80004a0c <memset+0x78>
800049a4:	ff067693          	andi	a3,a2,-16
800049a8:	8a3d                	andi	a2,a2,15
800049aa:	96ba                	add	a3,a3,a4
800049ac:	c30c                	sw	a1,0(a4)
800049ae:	c34c                	sw	a1,4(a4)
800049b0:	c70c                	sw	a1,8(a4)
800049b2:	c74c                	sw	a1,12(a4)
800049b4:	0741                	addi	a4,a4,16
800049b6:	fed76be3          	bltu	a4,a3,800049ac <memset+0x18>
800049ba:	e211                	bnez	a2,800049be <memset+0x2a>
800049bc:	8082                	ret
800049be:	40c306b3          	sub	a3,t1,a2
800049c2:	068a                	slli	a3,a3,0x2
800049c4:	00000297          	auipc	t0,0x0
800049c8:	9696                	add	a3,a3,t0
800049ca:	00a68067          	jr	10(a3)
800049ce:	00b70723          	sb	a1,14(a4) # ffffe00e <_sp+0x6ffee00e>
800049d2:	00b706a3          	sb	a1,13(a4)
800049d6:	00b70623          	sb	a1,12(a4)
800049da:	00b705a3          	sb	a1,11(a4)
800049de:	00b70523          	sb	a1,10(a4)
800049e2:	00b704a3          	sb	a1,9(a4)
800049e6:	00b70423          	sb	a1,8(a4)
800049ea:	00b703a3          	sb	a1,7(a4)
800049ee:	00b70323          	sb	a1,6(a4)
800049f2:	00b702a3          	sb	a1,5(a4)
800049f6:	00b70223          	sb	a1,4(a4)
800049fa:	00b701a3          	sb	a1,3(a4)
800049fe:	00b70123          	sb	a1,2(a4)
80004a02:	00b700a3          	sb	a1,1(a4)
80004a06:	00b70023          	sb	a1,0(a4)
80004a0a:	8082                	ret
80004a0c:	0ff5f593          	andi	a1,a1,255
80004a10:	00859693          	slli	a3,a1,0x8
80004a14:	8dd5                	or	a1,a1,a3
80004a16:	01059693          	slli	a3,a1,0x10
80004a1a:	8dd5                	or	a1,a1,a3
80004a1c:	b761                	j	800049a4 <memset+0x10>
80004a1e:	00279693          	slli	a3,a5,0x2
80004a22:	00000297          	auipc	t0,0x0
80004a26:	9696                	add	a3,a3,t0
80004a28:	8286                	mv	t0,ra
80004a2a:	fa8680e7          	jalr	-88(a3)
80004a2e:	8096                	mv	ra,t0
80004a30:	17c1                	addi	a5,a5,-16
80004a32:	8f1d                	sub	a4,a4,a5
80004a34:	963e                	add	a2,a2,a5
80004a36:	f8c374e3          	bgeu	t1,a2,800049be <memset+0x2a>
80004a3a:	b7a5                	j	800049a2 <memset+0xe>

80004a3c <_free_r>:
_free_r():
80004a3c:	c1dd                	beqz	a1,80004ae2 <_free_r+0xa6>
80004a3e:	ffc5a783          	lw	a5,-4(a1)
80004a42:	1141                	addi	sp,sp,-16
80004a44:	c422                	sw	s0,8(sp)
80004a46:	c606                	sw	ra,12(sp)
80004a48:	c226                	sw	s1,4(sp)
80004a4a:	ffc58413          	addi	s0,a1,-4
80004a4e:	0007d363          	bgez	a5,80004a54 <_free_r+0x18>
80004a52:	943e                	add	s0,s0,a5
80004a54:	84aa                	mv	s1,a0
80004a56:	1ef000ef          	jal	ra,80005444 <__malloc_lock>
80004a5a:	8c418793          	addi	a5,gp,-1852 # 90000a14 <__malloc_free_list>
80004a5e:	439c                	lw	a5,0(a5)
80004a60:	ef81                	bnez	a5,80004a78 <_free_r+0x3c>
80004a62:	00042223          	sw	zero,4(s0)
80004a66:	8c81a223          	sw	s0,-1852(gp) # 90000a14 <__malloc_free_list>
80004a6a:	4422                	lw	s0,8(sp)
80004a6c:	40b2                	lw	ra,12(sp)
80004a6e:	8526                	mv	a0,s1
80004a70:	4492                	lw	s1,4(sp)
80004a72:	0141                	addi	sp,sp,16
80004a74:	1d30006f          	j	80005446 <__malloc_unlock>
80004a78:	00f47e63          	bgeu	s0,a5,80004a94 <_free_r+0x58>
80004a7c:	4014                	lw	a3,0(s0)
80004a7e:	00d40733          	add	a4,s0,a3
80004a82:	00e79663          	bne	a5,a4,80004a8e <_free_r+0x52>
80004a86:	4398                	lw	a4,0(a5)
80004a88:	43dc                	lw	a5,4(a5)
80004a8a:	9736                	add	a4,a4,a3
80004a8c:	c018                	sw	a4,0(s0)
80004a8e:	c05c                	sw	a5,4(s0)
80004a90:	bfd9                	j	80004a66 <_free_r+0x2a>
80004a92:	87ba                	mv	a5,a4
80004a94:	43d8                	lw	a4,4(a5)
80004a96:	c319                	beqz	a4,80004a9c <_free_r+0x60>
80004a98:	fee47de3          	bgeu	s0,a4,80004a92 <_free_r+0x56>
80004a9c:	4394                	lw	a3,0(a5)
80004a9e:	00d78633          	add	a2,a5,a3
80004aa2:	00861f63          	bne	a2,s0,80004ac0 <_free_r+0x84>
80004aa6:	4010                	lw	a2,0(s0)
80004aa8:	96b2                	add	a3,a3,a2
80004aaa:	c394                	sw	a3,0(a5)
80004aac:	00d78633          	add	a2,a5,a3
80004ab0:	fac71de3          	bne	a4,a2,80004a6a <_free_r+0x2e>
80004ab4:	4310                	lw	a2,0(a4)
80004ab6:	4358                	lw	a4,4(a4)
80004ab8:	96b2                	add	a3,a3,a2
80004aba:	c394                	sw	a3,0(a5)
80004abc:	c3d8                	sw	a4,4(a5)
80004abe:	b775                	j	80004a6a <_free_r+0x2e>
80004ac0:	00c47563          	bgeu	s0,a2,80004aca <_free_r+0x8e>
80004ac4:	47b1                	li	a5,12
80004ac6:	c09c                	sw	a5,0(s1)
80004ac8:	b74d                	j	80004a6a <_free_r+0x2e>
80004aca:	4010                	lw	a2,0(s0)
80004acc:	00c406b3          	add	a3,s0,a2
80004ad0:	00d71663          	bne	a4,a3,80004adc <_free_r+0xa0>
80004ad4:	4314                	lw	a3,0(a4)
80004ad6:	4358                	lw	a4,4(a4)
80004ad8:	96b2                	add	a3,a3,a2
80004ada:	c014                	sw	a3,0(s0)
80004adc:	c058                	sw	a4,4(s0)
80004ade:	c3c0                	sw	s0,4(a5)
80004ae0:	b769                	j	80004a6a <_free_r+0x2e>
80004ae2:	8082                	ret

80004ae4 <_malloc_r>:
_malloc_r():
80004ae4:	1101                	addi	sp,sp,-32
80004ae6:	ca26                	sw	s1,20(sp)
80004ae8:	00358493          	addi	s1,a1,3
80004aec:	98f1                	andi	s1,s1,-4
80004aee:	ce06                	sw	ra,28(sp)
80004af0:	cc22                	sw	s0,24(sp)
80004af2:	c84a                	sw	s2,16(sp)
80004af4:	c64e                	sw	s3,12(sp)
80004af6:	04a1                	addi	s1,s1,8
80004af8:	47b1                	li	a5,12
80004afa:	04f4f363          	bgeu	s1,a5,80004b40 <_malloc_r+0x5c>
80004afe:	44b1                	li	s1,12
80004b00:	04b4e263          	bltu	s1,a1,80004b44 <_malloc_r+0x60>
80004b04:	892a                	mv	s2,a0
80004b06:	13f000ef          	jal	ra,80005444 <__malloc_lock>
80004b0a:	8c418793          	addi	a5,gp,-1852 # 90000a14 <__malloc_free_list>
80004b0e:	4398                	lw	a4,0(a5)
80004b10:	843a                	mv	s0,a4
80004b12:	e039                	bnez	s0,80004b58 <_malloc_r+0x74>
80004b14:	8c818793          	addi	a5,gp,-1848 # 90000a18 <__malloc_sbrk_start>
80004b18:	439c                	lw	a5,0(a5)
80004b1a:	e791                	bnez	a5,80004b26 <_malloc_r+0x42>
80004b1c:	4581                	li	a1,0
80004b1e:	854a                	mv	a0,s2
80004b20:	27b9                	jal	8000526e <_sbrk_r>
80004b22:	8ca1a423          	sw	a0,-1848(gp) # 90000a18 <__malloc_sbrk_start>
80004b26:	85a6                	mv	a1,s1
80004b28:	854a                	mv	a0,s2
80004b2a:	2791                	jal	8000526e <_sbrk_r>
80004b2c:	59fd                	li	s3,-1
80004b2e:	07351963          	bne	a0,s3,80004ba0 <_malloc_r+0xbc>
80004b32:	47b1                	li	a5,12
80004b34:	00f92023          	sw	a5,0(s2)
80004b38:	854a                	mv	a0,s2
80004b3a:	10d000ef          	jal	ra,80005446 <__malloc_unlock>
80004b3e:	a029                	j	80004b48 <_malloc_r+0x64>
80004b40:	fc04d0e3          	bgez	s1,80004b00 <_malloc_r+0x1c>
80004b44:	47b1                	li	a5,12
80004b46:	c11c                	sw	a5,0(a0)
80004b48:	4501                	li	a0,0
80004b4a:	40f2                	lw	ra,28(sp)
80004b4c:	4462                	lw	s0,24(sp)
80004b4e:	44d2                	lw	s1,20(sp)
80004b50:	4942                	lw	s2,16(sp)
80004b52:	49b2                	lw	s3,12(sp)
80004b54:	6105                	addi	sp,sp,32
80004b56:	8082                	ret
80004b58:	401c                	lw	a5,0(s0)
80004b5a:	8f85                	sub	a5,a5,s1
80004b5c:	0207cf63          	bltz	a5,80004b9a <_malloc_r+0xb6>
80004b60:	46ad                	li	a3,11
80004b62:	00f6f663          	bgeu	a3,a5,80004b6e <_malloc_r+0x8a>
80004b66:	c01c                	sw	a5,0(s0)
80004b68:	943e                	add	s0,s0,a5
80004b6a:	c004                	sw	s1,0(s0)
80004b6c:	a031                	j	80004b78 <_malloc_r+0x94>
80004b6e:	405c                	lw	a5,4(s0)
80004b70:	02871363          	bne	a4,s0,80004b96 <_malloc_r+0xb2>
80004b74:	8cf1a223          	sw	a5,-1852(gp) # 90000a14 <__malloc_free_list>
80004b78:	854a                	mv	a0,s2
80004b7a:	0cd000ef          	jal	ra,80005446 <__malloc_unlock>
80004b7e:	00b40513          	addi	a0,s0,11
80004b82:	00440793          	addi	a5,s0,4
80004b86:	9961                	andi	a0,a0,-8
80004b88:	40f50733          	sub	a4,a0,a5
80004b8c:	df5d                	beqz	a4,80004b4a <_malloc_r+0x66>
80004b8e:	943a                	add	s0,s0,a4
80004b90:	8f89                	sub	a5,a5,a0
80004b92:	c01c                	sw	a5,0(s0)
80004b94:	bf5d                	j	80004b4a <_malloc_r+0x66>
80004b96:	c35c                	sw	a5,4(a4)
80004b98:	b7c5                	j	80004b78 <_malloc_r+0x94>
80004b9a:	8722                	mv	a4,s0
80004b9c:	4040                	lw	s0,4(s0)
80004b9e:	bf95                	j	80004b12 <_malloc_r+0x2e>
80004ba0:	00350413          	addi	s0,a0,3
80004ba4:	9871                	andi	s0,s0,-4
80004ba6:	fc8502e3          	beq	a0,s0,80004b6a <_malloc_r+0x86>
80004baa:	40a405b3          	sub	a1,s0,a0
80004bae:	854a                	mv	a0,s2
80004bb0:	2d7d                	jal	8000526e <_sbrk_r>
80004bb2:	fb351ce3          	bne	a0,s3,80004b6a <_malloc_r+0x86>
80004bb6:	bfb5                	j	80004b32 <_malloc_r+0x4e>

80004bb8 <__sfputc_r>:
__sfputc_r():
80004bb8:	461c                	lw	a5,8(a2)
80004bba:	17fd                	addi	a5,a5,-1
80004bbc:	c61c                	sw	a5,8(a2)
80004bbe:	0007da63          	bgez	a5,80004bd2 <__sfputc_r+0x1a>
80004bc2:	4e18                	lw	a4,24(a2)
80004bc4:	00e7c563          	blt	a5,a4,80004bce <__sfputc_r+0x16>
80004bc8:	47a9                	li	a5,10
80004bca:	00f59463          	bne	a1,a5,80004bd2 <__sfputc_r+0x1a>
80004bce:	db6ff06f          	j	80004184 <__swbuf_r>
80004bd2:	421c                	lw	a5,0(a2)
80004bd4:	852e                	mv	a0,a1
80004bd6:	00178713          	addi	a4,a5,1
80004bda:	c218                	sw	a4,0(a2)
80004bdc:	00b78023          	sb	a1,0(a5)
80004be0:	8082                	ret

80004be2 <__sfputs_r>:
__sfputs_r():
80004be2:	1101                	addi	sp,sp,-32
80004be4:	cc22                	sw	s0,24(sp)
80004be6:	ca26                	sw	s1,20(sp)
80004be8:	c84a                	sw	s2,16(sp)
80004bea:	c64e                	sw	s3,12(sp)
80004bec:	c452                	sw	s4,8(sp)
80004bee:	ce06                	sw	ra,28(sp)
80004bf0:	892a                	mv	s2,a0
80004bf2:	89ae                	mv	s3,a1
80004bf4:	8432                	mv	s0,a2
80004bf6:	00d604b3          	add	s1,a2,a3
80004bfa:	5a7d                	li	s4,-1
80004bfc:	00941463          	bne	s0,s1,80004c04 <__sfputs_r+0x22>
80004c00:	4501                	li	a0,0
80004c02:	a809                	j	80004c14 <__sfputs_r+0x32>
80004c04:	00044583          	lbu	a1,0(s0)
80004c08:	864e                	mv	a2,s3
80004c0a:	854a                	mv	a0,s2
80004c0c:	3775                	jal	80004bb8 <__sfputc_r>
80004c0e:	0405                	addi	s0,s0,1
80004c10:	ff4516e3          	bne	a0,s4,80004bfc <__sfputs_r+0x1a>
80004c14:	40f2                	lw	ra,28(sp)
80004c16:	4462                	lw	s0,24(sp)
80004c18:	44d2                	lw	s1,20(sp)
80004c1a:	4942                	lw	s2,16(sp)
80004c1c:	49b2                	lw	s3,12(sp)
80004c1e:	4a22                	lw	s4,8(sp)
80004c20:	6105                	addi	sp,sp,32
80004c22:	8082                	ret

80004c24 <_vfiprintf_r>:
_vfiprintf_r():
80004c24:	7135                	addi	sp,sp,-160
80004c26:	cd22                	sw	s0,152(sp)
80004c28:	cb26                	sw	s1,148(sp)
80004c2a:	c94a                	sw	s2,144(sp)
80004c2c:	c74e                	sw	s3,140(sp)
80004c2e:	cf06                	sw	ra,156(sp)
80004c30:	c552                	sw	s4,136(sp)
80004c32:	c356                	sw	s5,132(sp)
80004c34:	c15a                	sw	s6,128(sp)
80004c36:	dede                	sw	s7,124(sp)
80004c38:	dce2                	sw	s8,120(sp)
80004c3a:	dae6                	sw	s9,116(sp)
80004c3c:	89aa                	mv	s3,a0
80004c3e:	84ae                	mv	s1,a1
80004c40:	8932                	mv	s2,a2
80004c42:	8436                	mv	s0,a3
80004c44:	c509                	beqz	a0,80004c4e <_vfiprintf_r+0x2a>
80004c46:	4d1c                	lw	a5,24(a0)
80004c48:	e399                	bnez	a5,80004c4e <_vfiprintf_r+0x2a>
80004c4a:	adfff0ef          	jal	ra,80004728 <__sinit>
80004c4e:	0fffb797          	auipc	a5,0xfffb
80004c52:	5ba78793          	addi	a5,a5,1466 # 90000208 <__sf_fake_stdin>
80004c56:	0cf49b63          	bne	s1,a5,80004d2c <_vfiprintf_r+0x108>
80004c5a:	0049a483          	lw	s1,4(s3)
80004c5e:	00c4d783          	lhu	a5,12(s1)
80004c62:	8ba1                	andi	a5,a5,8
80004c64:	c7f5                	beqz	a5,80004d50 <_vfiprintf_r+0x12c>
80004c66:	489c                	lw	a5,16(s1)
80004c68:	c7e5                	beqz	a5,80004d50 <_vfiprintf_r+0x12c>
80004c6a:	02000793          	li	a5,32
80004c6e:	02f104a3          	sb	a5,41(sp)
80004c72:	03000793          	li	a5,48
80004c76:	d202                	sw	zero,36(sp)
80004c78:	02f10523          	sb	a5,42(sp)
80004c7c:	c622                	sw	s0,12(sp)
80004c7e:	02500b93          	li	s7,37
80004c82:	0fffba97          	auipc	s5,0xfffb
80004c86:	5c6a8a93          	addi	s5,s5,1478 # 90000248 <__sf_fake_stdout+0x20>
80004c8a:	4c05                	li	s8,1
80004c8c:	4b29                	li	s6,10
80004c8e:	844a                	mv	s0,s2
80004c90:	00044783          	lbu	a5,0(s0)
80004c94:	c399                	beqz	a5,80004c9a <_vfiprintf_r+0x76>
80004c96:	0f779063          	bne	a5,s7,80004d76 <_vfiprintf_r+0x152>
80004c9a:	41240cb3          	sub	s9,s0,s2
80004c9e:	000c8d63          	beqz	s9,80004cb8 <_vfiprintf_r+0x94>
80004ca2:	86e6                	mv	a3,s9
80004ca4:	864a                	mv	a2,s2
80004ca6:	85a6                	mv	a1,s1
80004ca8:	854e                	mv	a0,s3
80004caa:	3f25                	jal	80004be2 <__sfputs_r>
80004cac:	57fd                	li	a5,-1
80004cae:	1ef50663          	beq	a0,a5,80004e9a <_vfiprintf_r+0x276>
80004cb2:	5692                	lw	a3,36(sp)
80004cb4:	96e6                	add	a3,a3,s9
80004cb6:	d236                	sw	a3,36(sp)
80004cb8:	00044783          	lbu	a5,0(s0)
80004cbc:	1c078f63          	beqz	a5,80004e9a <_vfiprintf_r+0x276>
80004cc0:	57fd                	li	a5,-1
80004cc2:	00140913          	addi	s2,s0,1
80004cc6:	c802                	sw	zero,16(sp)
80004cc8:	ce02                	sw	zero,28(sp)
80004cca:	ca3e                	sw	a5,20(sp)
80004ccc:	cc02                	sw	zero,24(sp)
80004cce:	040109a3          	sb	zero,83(sp)
80004cd2:	d482                	sw	zero,104(sp)
80004cd4:	00094583          	lbu	a1,0(s2)
80004cd8:	4615                	li	a2,5
80004cda:	8556                	mv	a0,s5
80004cdc:	27b9                	jal	8000542a <memchr>
80004cde:	00190413          	addi	s0,s2,1
80004ce2:	47c2                	lw	a5,16(sp)
80004ce4:	e959                	bnez	a0,80004d7a <_vfiprintf_r+0x156>
80004ce6:	0107f713          	andi	a4,a5,16
80004cea:	c709                	beqz	a4,80004cf4 <_vfiprintf_r+0xd0>
80004cec:	02000713          	li	a4,32
80004cf0:	04e109a3          	sb	a4,83(sp)
80004cf4:	0087f713          	andi	a4,a5,8
80004cf8:	c709                	beqz	a4,80004d02 <_vfiprintf_r+0xde>
80004cfa:	02b00713          	li	a4,43
80004cfe:	04e109a3          	sb	a4,83(sp)
80004d02:	00094683          	lbu	a3,0(s2)
80004d06:	02a00713          	li	a4,42
80004d0a:	08e68063          	beq	a3,a4,80004d8a <_vfiprintf_r+0x166>
80004d0e:	47f2                	lw	a5,28(sp)
80004d10:	844a                	mv	s0,s2
80004d12:	4681                	li	a3,0
80004d14:	4625                	li	a2,9
80004d16:	00044703          	lbu	a4,0(s0)
80004d1a:	00140593          	addi	a1,s0,1
80004d1e:	fd070713          	addi	a4,a4,-48
80004d22:	0ae67963          	bgeu	a2,a4,80004dd4 <_vfiprintf_r+0x1b0>
80004d26:	cab5                	beqz	a3,80004d9a <_vfiprintf_r+0x176>
80004d28:	ce3e                	sw	a5,28(sp)
80004d2a:	a885                	j	80004d9a <_vfiprintf_r+0x176>
80004d2c:	0fffb797          	auipc	a5,0xfffb
80004d30:	4fc78793          	addi	a5,a5,1276 # 90000228 <__sf_fake_stdout>
80004d34:	00f49563          	bne	s1,a5,80004d3e <_vfiprintf_r+0x11a>
80004d38:	0089a483          	lw	s1,8(s3)
80004d3c:	b70d                	j	80004c5e <_vfiprintf_r+0x3a>
80004d3e:	0fffb797          	auipc	a5,0xfffb
80004d42:	4aa78793          	addi	a5,a5,1194 # 900001e8 <__sf_fake_stderr>
80004d46:	f0f49ce3          	bne	s1,a5,80004c5e <_vfiprintf_r+0x3a>
80004d4a:	00c9a483          	lw	s1,12(s3)
80004d4e:	bf01                	j	80004c5e <_vfiprintf_r+0x3a>
80004d50:	85a6                	mv	a1,s1
80004d52:	854e                	mv	a0,s3
80004d54:	d26ff0ef          	jal	ra,8000427a <__swsetup_r>
80004d58:	d909                	beqz	a0,80004c6a <_vfiprintf_r+0x46>
80004d5a:	557d                	li	a0,-1
80004d5c:	40fa                	lw	ra,156(sp)
80004d5e:	446a                	lw	s0,152(sp)
80004d60:	44da                	lw	s1,148(sp)
80004d62:	494a                	lw	s2,144(sp)
80004d64:	49ba                	lw	s3,140(sp)
80004d66:	4a2a                	lw	s4,136(sp)
80004d68:	4a9a                	lw	s5,132(sp)
80004d6a:	4b0a                	lw	s6,128(sp)
80004d6c:	5bf6                	lw	s7,124(sp)
80004d6e:	5c66                	lw	s8,120(sp)
80004d70:	5cd6                	lw	s9,116(sp)
80004d72:	610d                	addi	sp,sp,160
80004d74:	8082                	ret
80004d76:	0405                	addi	s0,s0,1
80004d78:	bf21                	j	80004c90 <_vfiprintf_r+0x6c>
80004d7a:	41550533          	sub	a0,a0,s5
80004d7e:	00ac1533          	sll	a0,s8,a0
80004d82:	8fc9                	or	a5,a5,a0
80004d84:	c83e                	sw	a5,16(sp)
80004d86:	8922                	mv	s2,s0
80004d88:	b7b1                	j	80004cd4 <_vfiprintf_r+0xb0>
80004d8a:	4732                	lw	a4,12(sp)
80004d8c:	00470693          	addi	a3,a4,4
80004d90:	4318                	lw	a4,0(a4)
80004d92:	c636                	sw	a3,12(sp)
80004d94:	02074963          	bltz	a4,80004dc6 <_vfiprintf_r+0x1a2>
80004d98:	ce3a                	sw	a4,28(sp)
80004d9a:	00044703          	lbu	a4,0(s0)
80004d9e:	02e00793          	li	a5,46
80004da2:	04f71f63          	bne	a4,a5,80004e00 <_vfiprintf_r+0x1dc>
80004da6:	00144703          	lbu	a4,1(s0)
80004daa:	02a00793          	li	a5,42
80004dae:	02f71b63          	bne	a4,a5,80004de4 <_vfiprintf_r+0x1c0>
80004db2:	47b2                	lw	a5,12(sp)
80004db4:	0409                	addi	s0,s0,2
80004db6:	00478713          	addi	a4,a5,4
80004dba:	439c                	lw	a5,0(a5)
80004dbc:	c63a                	sw	a4,12(sp)
80004dbe:	0207c163          	bltz	a5,80004de0 <_vfiprintf_r+0x1bc>
80004dc2:	ca3e                	sw	a5,20(sp)
80004dc4:	a835                	j	80004e00 <_vfiprintf_r+0x1dc>
80004dc6:	40e00733          	neg	a4,a4
80004dca:	0027e793          	ori	a5,a5,2
80004dce:	ce3a                	sw	a4,28(sp)
80004dd0:	c83e                	sw	a5,16(sp)
80004dd2:	b7e1                	j	80004d9a <_vfiprintf_r+0x176>
80004dd4:	036787b3          	mul	a5,a5,s6
80004dd8:	4685                	li	a3,1
80004dda:	842e                	mv	s0,a1
80004ddc:	97ba                	add	a5,a5,a4
80004dde:	bf25                	j	80004d16 <_vfiprintf_r+0xf2>
80004de0:	57fd                	li	a5,-1
80004de2:	b7c5                	j	80004dc2 <_vfiprintf_r+0x19e>
80004de4:	0405                	addi	s0,s0,1
80004de6:	ca02                	sw	zero,20(sp)
80004de8:	4681                	li	a3,0
80004dea:	4781                	li	a5,0
80004dec:	4625                	li	a2,9
80004dee:	00044703          	lbu	a4,0(s0)
80004df2:	00140593          	addi	a1,s0,1
80004df6:	fd070713          	addi	a4,a4,-48
80004dfa:	06e67663          	bgeu	a2,a4,80004e66 <_vfiprintf_r+0x242>
80004dfe:	f2f1                	bnez	a3,80004dc2 <_vfiprintf_r+0x19e>
80004e00:	00044583          	lbu	a1,0(s0)
80004e04:	460d                	li	a2,3
80004e06:	0fffb517          	auipc	a0,0xfffb
80004e0a:	44a50513          	addi	a0,a0,1098 # 90000250 <__sf_fake_stdout+0x28>
80004e0e:	2d31                	jal	8000542a <memchr>
80004e10:	cd11                	beqz	a0,80004e2c <_vfiprintf_r+0x208>
80004e12:	0fffb797          	auipc	a5,0xfffb
80004e16:	43e78793          	addi	a5,a5,1086 # 90000250 <__sf_fake_stdout+0x28>
80004e1a:	8d1d                	sub	a0,a0,a5
80004e1c:	04000793          	li	a5,64
80004e20:	00a797b3          	sll	a5,a5,a0
80004e24:	4542                	lw	a0,16(sp)
80004e26:	0405                	addi	s0,s0,1
80004e28:	8d5d                	or	a0,a0,a5
80004e2a:	c82a                	sw	a0,16(sp)
80004e2c:	00044583          	lbu	a1,0(s0)
80004e30:	4619                	li	a2,6
80004e32:	0fffb517          	auipc	a0,0xfffb
80004e36:	42250513          	addi	a0,a0,1058 # 90000254 <__sf_fake_stdout+0x2c>
80004e3a:	00140913          	addi	s2,s0,1
80004e3e:	02b10423          	sb	a1,40(sp)
80004e42:	23e5                	jal	8000542a <memchr>
80004e44:	c13d                	beqz	a0,80004eaa <_vfiprintf_r+0x286>
80004e46:	7fffb797          	auipc	a5,0x7fffb
80004e4a:	1ba78793          	addi	a5,a5,442 # 0 <_sp+0x6fff0000>
80004e4e:	e795                	bnez	a5,80004e7a <_vfiprintf_r+0x256>
80004e50:	4742                	lw	a4,16(sp)
80004e52:	47b2                	lw	a5,12(sp)
80004e54:	10077713          	andi	a4,a4,256
80004e58:	cf09                	beqz	a4,80004e72 <_vfiprintf_r+0x24e>
80004e5a:	0791                	addi	a5,a5,4
80004e5c:	c63e                	sw	a5,12(sp)
80004e5e:	5792                	lw	a5,36(sp)
80004e60:	97d2                	add	a5,a5,s4
80004e62:	d23e                	sw	a5,36(sp)
80004e64:	b52d                	j	80004c8e <_vfiprintf_r+0x6a>
80004e66:	036787b3          	mul	a5,a5,s6
80004e6a:	4685                	li	a3,1
80004e6c:	842e                	mv	s0,a1
80004e6e:	97ba                	add	a5,a5,a4
80004e70:	bfbd                	j	80004dee <_vfiprintf_r+0x1ca>
80004e72:	079d                	addi	a5,a5,7
80004e74:	9be1                	andi	a5,a5,-8
80004e76:	07a1                	addi	a5,a5,8
80004e78:	b7d5                	j	80004e5c <_vfiprintf_r+0x238>
80004e7a:	0078                	addi	a4,sp,12
80004e7c:	00000697          	auipc	a3,0x0
80004e80:	d6668693          	addi	a3,a3,-666 # 80004be2 <__sfputs_r>
80004e84:	8626                	mv	a2,s1
80004e86:	080c                	addi	a1,sp,16
80004e88:	854e                	mv	a0,s3
80004e8a:	00000097          	auipc	ra,0x0
80004e8e:	000000e7          	jalr	zero # 0 <__stack_size-0x800>
80004e92:	57fd                	li	a5,-1
80004e94:	8a2a                	mv	s4,a0
80004e96:	fcf514e3          	bne	a0,a5,80004e5e <_vfiprintf_r+0x23a>
80004e9a:	00c4d783          	lhu	a5,12(s1)
80004e9e:	0407f793          	andi	a5,a5,64
80004ea2:	ea079ce3          	bnez	a5,80004d5a <_vfiprintf_r+0x136>
80004ea6:	5512                	lw	a0,36(sp)
80004ea8:	bd55                	j	80004d5c <_vfiprintf_r+0x138>
80004eaa:	0078                	addi	a4,sp,12
80004eac:	00000697          	auipc	a3,0x0
80004eb0:	d3668693          	addi	a3,a3,-714 # 80004be2 <__sfputs_r>
80004eb4:	8626                	mv	a2,s1
80004eb6:	080c                	addi	a1,sp,16
80004eb8:	854e                	mv	a0,s3
80004eba:	2a01                	jal	80004fca <_printf_i>
80004ebc:	bfd9                	j	80004e92 <_vfiprintf_r+0x26e>

80004ebe <_printf_common>:
_printf_common():
80004ebe:	7179                	addi	sp,sp,-48
80004ec0:	ca56                	sw	s5,20(sp)
80004ec2:	499c                	lw	a5,16(a1)
80004ec4:	8aba                	mv	s5,a4
80004ec6:	4598                	lw	a4,8(a1)
80004ec8:	d422                	sw	s0,40(sp)
80004eca:	d226                	sw	s1,36(sp)
80004ecc:	ce4e                	sw	s3,28(sp)
80004ece:	cc52                	sw	s4,24(sp)
80004ed0:	d606                	sw	ra,44(sp)
80004ed2:	d04a                	sw	s2,32(sp)
80004ed4:	c85a                	sw	s6,16(sp)
80004ed6:	c65e                	sw	s7,12(sp)
80004ed8:	89aa                	mv	s3,a0
80004eda:	842e                	mv	s0,a1
80004edc:	84b2                	mv	s1,a2
80004ede:	8a36                	mv	s4,a3
80004ee0:	00e7d363          	bge	a5,a4,80004ee6 <_printf_common+0x28>
80004ee4:	87ba                	mv	a5,a4
80004ee6:	c09c                	sw	a5,0(s1)
80004ee8:	04344703          	lbu	a4,67(s0)
80004eec:	c319                	beqz	a4,80004ef2 <_printf_common+0x34>
80004eee:	0785                	addi	a5,a5,1
80004ef0:	c09c                	sw	a5,0(s1)
80004ef2:	401c                	lw	a5,0(s0)
80004ef4:	0207f793          	andi	a5,a5,32
80004ef8:	c781                	beqz	a5,80004f00 <_printf_common+0x42>
80004efa:	409c                	lw	a5,0(s1)
80004efc:	0789                	addi	a5,a5,2
80004efe:	c09c                	sw	a5,0(s1)
80004f00:	00042903          	lw	s2,0(s0)
80004f04:	00697913          	andi	s2,s2,6
80004f08:	00091a63          	bnez	s2,80004f1c <_printf_common+0x5e>
80004f0c:	01940b13          	addi	s6,s0,25
80004f10:	5bfd                	li	s7,-1
80004f12:	445c                	lw	a5,12(s0)
80004f14:	4098                	lw	a4,0(s1)
80004f16:	8f99                	sub	a5,a5,a4
80004f18:	04f94c63          	blt	s2,a5,80004f70 <_printf_common+0xb2>
80004f1c:	401c                	lw	a5,0(s0)
80004f1e:	04344683          	lbu	a3,67(s0)
80004f22:	0207f793          	andi	a5,a5,32
80004f26:	00d036b3          	snez	a3,a3
80004f2a:	eba5                	bnez	a5,80004f9a <_printf_common+0xdc>
80004f2c:	04340613          	addi	a2,s0,67
80004f30:	85d2                	mv	a1,s4
80004f32:	854e                	mv	a0,s3
80004f34:	9a82                	jalr	s5
80004f36:	57fd                	li	a5,-1
80004f38:	04f50363          	beq	a0,a5,80004f7e <_printf_common+0xc0>
80004f3c:	401c                	lw	a5,0(s0)
80004f3e:	4611                	li	a2,4
80004f40:	4098                	lw	a4,0(s1)
80004f42:	8b99                	andi	a5,a5,6
80004f44:	4454                	lw	a3,12(s0)
80004f46:	4481                	li	s1,0
80004f48:	00c79763          	bne	a5,a2,80004f56 <_printf_common+0x98>
80004f4c:	40e684b3          	sub	s1,a3,a4
80004f50:	0004d363          	bgez	s1,80004f56 <_printf_common+0x98>
80004f54:	4481                	li	s1,0
80004f56:	441c                	lw	a5,8(s0)
80004f58:	4818                	lw	a4,16(s0)
80004f5a:	00f75463          	bge	a4,a5,80004f62 <_printf_common+0xa4>
80004f5e:	8f99                	sub	a5,a5,a4
80004f60:	94be                	add	s1,s1,a5
80004f62:	4901                	li	s2,0
80004f64:	0469                	addi	s0,s0,26
80004f66:	5b7d                	li	s6,-1
80004f68:	05249863          	bne	s1,s2,80004fb8 <_printf_common+0xfa>
80004f6c:	4501                	li	a0,0
80004f6e:	a809                	j	80004f80 <_printf_common+0xc2>
80004f70:	4685                	li	a3,1
80004f72:	865a                	mv	a2,s6
80004f74:	85d2                	mv	a1,s4
80004f76:	854e                	mv	a0,s3
80004f78:	9a82                	jalr	s5
80004f7a:	01751e63          	bne	a0,s7,80004f96 <_printf_common+0xd8>
80004f7e:	557d                	li	a0,-1
80004f80:	50b2                	lw	ra,44(sp)
80004f82:	5422                	lw	s0,40(sp)
80004f84:	5492                	lw	s1,36(sp)
80004f86:	5902                	lw	s2,32(sp)
80004f88:	49f2                	lw	s3,28(sp)
80004f8a:	4a62                	lw	s4,24(sp)
80004f8c:	4ad2                	lw	s5,20(sp)
80004f8e:	4b42                	lw	s6,16(sp)
80004f90:	4bb2                	lw	s7,12(sp)
80004f92:	6145                	addi	sp,sp,48
80004f94:	8082                	ret
80004f96:	0905                	addi	s2,s2,1
80004f98:	bfad                	j	80004f12 <_printf_common+0x54>
80004f9a:	00d40733          	add	a4,s0,a3
80004f9e:	03000613          	li	a2,48
80004fa2:	04c701a3          	sb	a2,67(a4)
80004fa6:	04544703          	lbu	a4,69(s0)
80004faa:	00168793          	addi	a5,a3,1
80004fae:	97a2                	add	a5,a5,s0
80004fb0:	0689                	addi	a3,a3,2
80004fb2:	04e781a3          	sb	a4,67(a5)
80004fb6:	bf9d                	j	80004f2c <_printf_common+0x6e>
80004fb8:	4685                	li	a3,1
80004fba:	8622                	mv	a2,s0
80004fbc:	85d2                	mv	a1,s4
80004fbe:	854e                	mv	a0,s3
80004fc0:	9a82                	jalr	s5
80004fc2:	fb650ee3          	beq	a0,s6,80004f7e <_printf_common+0xc0>
80004fc6:	0905                	addi	s2,s2,1
80004fc8:	b745                	j	80004f68 <_printf_common+0xaa>

80004fca <_printf_i>:
_printf_i():
80004fca:	7179                	addi	sp,sp,-48
80004fcc:	d422                	sw	s0,40(sp)
80004fce:	d226                	sw	s1,36(sp)
80004fd0:	d04a                	sw	s2,32(sp)
80004fd2:	ce4e                	sw	s3,28(sp)
80004fd4:	d606                	sw	ra,44(sp)
80004fd6:	cc52                	sw	s4,24(sp)
80004fd8:	ca56                	sw	s5,20(sp)
80004fda:	c85a                	sw	s6,16(sp)
80004fdc:	89b6                	mv	s3,a3
80004fde:	0185c683          	lbu	a3,24(a1)
80004fe2:	06e00793          	li	a5,110
80004fe6:	8932                	mv	s2,a2
80004fe8:	84aa                	mv	s1,a0
80004fea:	842e                	mv	s0,a1
80004fec:	04358613          	addi	a2,a1,67
80004ff0:	1ef68163          	beq	a3,a5,800051d2 <_printf_i+0x208>
80004ff4:	06d7e263          	bltu	a5,a3,80005058 <_printf_i+0x8e>
80004ff8:	06300793          	li	a5,99
80004ffc:	0af68263          	beq	a3,a5,800050a0 <_printf_i+0xd6>
80005000:	00d7ed63          	bltu	a5,a3,8000501a <_printf_i+0x50>
80005004:	1e068b63          	beqz	a3,800051fa <_printf_i+0x230>
80005008:	05800793          	li	a5,88
8000500c:	16f68763          	beq	a3,a5,8000517a <_printf_i+0x1b0>
80005010:	04240a93          	addi	s5,s0,66
80005014:	04d40123          	sb	a3,66(s0)
80005018:	a869                	j	800050b2 <_printf_i+0xe8>
8000501a:	06400793          	li	a5,100
8000501e:	00f68663          	beq	a3,a5,8000502a <_printf_i+0x60>
80005022:	06900793          	li	a5,105
80005026:	fef695e3          	bne	a3,a5,80005010 <_printf_i+0x46>
8000502a:	401c                	lw	a5,0(s0)
8000502c:	4308                	lw	a0,0(a4)
8000502e:	0807f693          	andi	a3,a5,128
80005032:	00450593          	addi	a1,a0,4
80005036:	c2c1                	beqz	a3,800050b6 <_printf_i+0xec>
80005038:	411c                	lw	a5,0(a0)
8000503a:	c30c                	sw	a1,0(a4)
8000503c:	0007d863          	bgez	a5,8000504c <_printf_i+0x82>
80005040:	02d00713          	li	a4,45
80005044:	40f007b3          	neg	a5,a5
80005048:	04e401a3          	sb	a4,67(s0)
8000504c:	0fffb697          	auipc	a3,0xfffb
80005050:	21068693          	addi	a3,a3,528 # 9000025c <__sf_fake_stdout+0x34>
80005054:	4729                	li	a4,10
80005056:	a065                	j	800050fe <_printf_i+0x134>
80005058:	07300793          	li	a5,115
8000505c:	1af68363          	beq	a3,a5,80005202 <_printf_i+0x238>
80005060:	00d7ef63          	bltu	a5,a3,8000507e <_printf_i+0xb4>
80005064:	06f00793          	li	a5,111
80005068:	04f68f63          	beq	a3,a5,800050c6 <_printf_i+0xfc>
8000506c:	07000793          	li	a5,112
80005070:	faf690e3          	bne	a3,a5,80005010 <_printf_i+0x46>
80005074:	419c                	lw	a5,0(a1)
80005076:	0207e793          	ori	a5,a5,32
8000507a:	c19c                	sw	a5,0(a1)
8000507c:	a809                	j	8000508e <_printf_i+0xc4>
8000507e:	07500793          	li	a5,117
80005082:	04f68263          	beq	a3,a5,800050c6 <_printf_i+0xfc>
80005086:	07800793          	li	a5,120
8000508a:	f8f693e3          	bne	a3,a5,80005010 <_printf_i+0x46>
8000508e:	07800793          	li	a5,120
80005092:	04f402a3          	sb	a5,69(s0)
80005096:	0fffb697          	auipc	a3,0xfffb
8000509a:	1da68693          	addi	a3,a3,474 # 90000270 <__sf_fake_stdout+0x48>
8000509e:	a0e5                	j	80005186 <_printf_i+0x1bc>
800050a0:	431c                	lw	a5,0(a4)
800050a2:	04258a93          	addi	s5,a1,66
800050a6:	00478693          	addi	a3,a5,4
800050aa:	439c                	lw	a5,0(a5)
800050ac:	c314                	sw	a3,0(a4)
800050ae:	04f58123          	sb	a5,66(a1)
800050b2:	4785                	li	a5,1
800050b4:	a2b5                	j	80005220 <_printf_i+0x256>
800050b6:	0407f693          	andi	a3,a5,64
800050ba:	411c                	lw	a5,0(a0)
800050bc:	c30c                	sw	a1,0(a4)
800050be:	debd                	beqz	a3,8000503c <_printf_i+0x72>
800050c0:	07c2                	slli	a5,a5,0x10
800050c2:	87c1                	srai	a5,a5,0x10
800050c4:	bfa5                	j	8000503c <_printf_i+0x72>
800050c6:	400c                	lw	a1,0(s0)
800050c8:	431c                	lw	a5,0(a4)
800050ca:	0805f813          	andi	a6,a1,128
800050ce:	00478513          	addi	a0,a5,4
800050d2:	00080563          	beqz	a6,800050dc <_printf_i+0x112>
800050d6:	c308                	sw	a0,0(a4)
800050d8:	439c                	lw	a5,0(a5)
800050da:	a039                	j	800050e8 <_printf_i+0x11e>
800050dc:	0405f593          	andi	a1,a1,64
800050e0:	c308                	sw	a0,0(a4)
800050e2:	d9fd                	beqz	a1,800050d8 <_printf_i+0x10e>
800050e4:	0007d783          	lhu	a5,0(a5)
800050e8:	06f00713          	li	a4,111
800050ec:	0ce68b63          	beq	a3,a4,800051c2 <_printf_i+0x1f8>
800050f0:	0fffb697          	auipc	a3,0xfffb
800050f4:	16c68693          	addi	a3,a3,364 # 9000025c <__sf_fake_stdout+0x34>
800050f8:	4729                	li	a4,10
800050fa:	040401a3          	sb	zero,67(s0)
800050fe:	404c                	lw	a1,4(s0)
80005100:	c40c                	sw	a1,8(s0)
80005102:	0005c563          	bltz	a1,8000510c <_printf_i+0x142>
80005106:	4008                	lw	a0,0(s0)
80005108:	996d                	andi	a0,a0,-5
8000510a:	c008                	sw	a0,0(s0)
8000510c:	e399                	bnez	a5,80005112 <_printf_i+0x148>
8000510e:	8ab2                	mv	s5,a2
80005110:	cd91                	beqz	a1,8000512c <_printf_i+0x162>
80005112:	8ab2                	mv	s5,a2
80005114:	02e7f5b3          	remu	a1,a5,a4
80005118:	1afd                	addi	s5,s5,-1
8000511a:	95b6                	add	a1,a1,a3
8000511c:	0005c583          	lbu	a1,0(a1)
80005120:	00ba8023          	sb	a1,0(s5)
80005124:	02e7d5b3          	divu	a1,a5,a4
80005128:	0ae7f363          	bgeu	a5,a4,800051ce <_printf_i+0x204>
8000512c:	47a1                	li	a5,8
8000512e:	00f71e63          	bne	a4,a5,8000514a <_printf_i+0x180>
80005132:	401c                	lw	a5,0(s0)
80005134:	8b85                	andi	a5,a5,1
80005136:	cb91                	beqz	a5,8000514a <_printf_i+0x180>
80005138:	4058                	lw	a4,4(s0)
8000513a:	481c                	lw	a5,16(s0)
8000513c:	00e7c763          	blt	a5,a4,8000514a <_printf_i+0x180>
80005140:	03000793          	li	a5,48
80005144:	fefa8fa3          	sb	a5,-1(s5)
80005148:	1afd                	addi	s5,s5,-1
8000514a:	41560633          	sub	a2,a2,s5
8000514e:	c810                	sw	a2,16(s0)
80005150:	874e                	mv	a4,s3
80005152:	86ca                	mv	a3,s2
80005154:	0070                	addi	a2,sp,12
80005156:	85a2                	mv	a1,s0
80005158:	8526                	mv	a0,s1
8000515a:	d65ff0ef          	jal	ra,80004ebe <_printf_common>
8000515e:	5a7d                	li	s4,-1
80005160:	0d451463          	bne	a0,s4,80005228 <_printf_i+0x25e>
80005164:	557d                	li	a0,-1
80005166:	50b2                	lw	ra,44(sp)
80005168:	5422                	lw	s0,40(sp)
8000516a:	5492                	lw	s1,36(sp)
8000516c:	5902                	lw	s2,32(sp)
8000516e:	49f2                	lw	s3,28(sp)
80005170:	4a62                	lw	s4,24(sp)
80005172:	4ad2                	lw	s5,20(sp)
80005174:	4b42                	lw	s6,16(sp)
80005176:	6145                	addi	sp,sp,48
80005178:	8082                	ret
8000517a:	04d582a3          	sb	a3,69(a1)
8000517e:	0fffb697          	auipc	a3,0xfffb
80005182:	0de68693          	addi	a3,a3,222 # 9000025c <__sf_fake_stdout+0x34>
80005186:	400c                	lw	a1,0(s0)
80005188:	4308                	lw	a0,0(a4)
8000518a:	0805f813          	andi	a6,a1,128
8000518e:	411c                	lw	a5,0(a0)
80005190:	0511                	addi	a0,a0,4
80005192:	02080063          	beqz	a6,800051b2 <_printf_i+0x1e8>
80005196:	c308                	sw	a0,0(a4)
80005198:	0015f713          	andi	a4,a1,1
8000519c:	c701                	beqz	a4,800051a4 <_printf_i+0x1da>
8000519e:	0205e593          	ori	a1,a1,32
800051a2:	c00c                	sw	a1,0(s0)
800051a4:	4741                	li	a4,16
800051a6:	fbb1                	bnez	a5,800050fa <_printf_i+0x130>
800051a8:	400c                	lw	a1,0(s0)
800051aa:	fdf5f593          	andi	a1,a1,-33
800051ae:	c00c                	sw	a1,0(s0)
800051b0:	b7a9                	j	800050fa <_printf_i+0x130>
800051b2:	0405f813          	andi	a6,a1,64
800051b6:	c308                	sw	a0,0(a4)
800051b8:	fe0800e3          	beqz	a6,80005198 <_printf_i+0x1ce>
800051bc:	07c2                	slli	a5,a5,0x10
800051be:	83c1                	srli	a5,a5,0x10
800051c0:	bfe1                	j	80005198 <_printf_i+0x1ce>
800051c2:	0fffb697          	auipc	a3,0xfffb
800051c6:	09a68693          	addi	a3,a3,154 # 9000025c <__sf_fake_stdout+0x34>
800051ca:	4721                	li	a4,8
800051cc:	b73d                	j	800050fa <_printf_i+0x130>
800051ce:	87ae                	mv	a5,a1
800051d0:	b791                	j	80005114 <_printf_i+0x14a>
800051d2:	4194                	lw	a3,0(a1)
800051d4:	431c                	lw	a5,0(a4)
800051d6:	49cc                	lw	a1,20(a1)
800051d8:	0806f813          	andi	a6,a3,128
800051dc:	00478513          	addi	a0,a5,4
800051e0:	00080663          	beqz	a6,800051ec <_printf_i+0x222>
800051e4:	c308                	sw	a0,0(a4)
800051e6:	439c                	lw	a5,0(a5)
800051e8:	c38c                	sw	a1,0(a5)
800051ea:	a801                	j	800051fa <_printf_i+0x230>
800051ec:	c308                	sw	a0,0(a4)
800051ee:	0406f693          	andi	a3,a3,64
800051f2:	439c                	lw	a5,0(a5)
800051f4:	daf5                	beqz	a3,800051e8 <_printf_i+0x21e>
800051f6:	00b79023          	sh	a1,0(a5)
800051fa:	00042823          	sw	zero,16(s0)
800051fe:	8ab2                	mv	s5,a2
80005200:	bf81                	j	80005150 <_printf_i+0x186>
80005202:	431c                	lw	a5,0(a4)
80005204:	41d0                	lw	a2,4(a1)
80005206:	4581                	li	a1,0
80005208:	00478693          	addi	a3,a5,4
8000520c:	c314                	sw	a3,0(a4)
8000520e:	0007aa83          	lw	s5,0(a5)
80005212:	8556                	mv	a0,s5
80005214:	2c19                	jal	8000542a <memchr>
80005216:	c501                	beqz	a0,8000521e <_printf_i+0x254>
80005218:	41550533          	sub	a0,a0,s5
8000521c:	c048                	sw	a0,4(s0)
8000521e:	405c                	lw	a5,4(s0)
80005220:	c81c                	sw	a5,16(s0)
80005222:	040401a3          	sb	zero,67(s0)
80005226:	b72d                	j	80005150 <_printf_i+0x186>
80005228:	4814                	lw	a3,16(s0)
8000522a:	8656                	mv	a2,s5
8000522c:	85ca                	mv	a1,s2
8000522e:	8526                	mv	a0,s1
80005230:	9982                	jalr	s3
80005232:	f34509e3          	beq	a0,s4,80005164 <_printf_i+0x19a>
80005236:	401c                	lw	a5,0(s0)
80005238:	8b89                	andi	a5,a5,2
8000523a:	e78d                	bnez	a5,80005264 <_printf_i+0x29a>
8000523c:	47b2                	lw	a5,12(sp)
8000523e:	4448                	lw	a0,12(s0)
80005240:	f2f553e3          	bge	a0,a5,80005166 <_printf_i+0x19c>
80005244:	853e                	mv	a0,a5
80005246:	b705                	j	80005166 <_printf_i+0x19c>
80005248:	4685                	li	a3,1
8000524a:	8656                	mv	a2,s5
8000524c:	85ca                	mv	a1,s2
8000524e:	8526                	mv	a0,s1
80005250:	9982                	jalr	s3
80005252:	f16509e3          	beq	a0,s6,80005164 <_printf_i+0x19a>
80005256:	0a05                	addi	s4,s4,1
80005258:	445c                	lw	a5,12(s0)
8000525a:	4732                	lw	a4,12(sp)
8000525c:	8f99                	sub	a5,a5,a4
8000525e:	fefa45e3          	blt	s4,a5,80005248 <_printf_i+0x27e>
80005262:	bfe9                	j	8000523c <_printf_i+0x272>
80005264:	4a01                	li	s4,0
80005266:	01940a93          	addi	s5,s0,25
8000526a:	5b7d                	li	s6,-1
8000526c:	b7f5                	j	80005258 <_printf_i+0x28e>

8000526e <_sbrk_r>:
_sbrk_r():
8000526e:	1141                	addi	sp,sp,-16
80005270:	c422                	sw	s0,8(sp)
80005272:	842a                	mv	s0,a0
80005274:	852e                	mv	a0,a1
80005276:	10006797          	auipc	a5,0x10006
8000527a:	e007a923          	sw	zero,-494(a5) # 9000b088 <errno>
8000527e:	c606                	sw	ra,12(sp)
80005280:	99bfe0ef          	jal	ra,80003c1a <_sbrk>
80005284:	57fd                	li	a5,-1
80005286:	00f51963          	bne	a0,a5,80005298 <_sbrk_r+0x2a>
8000528a:	10006797          	auipc	a5,0x10006
8000528e:	dfe78793          	addi	a5,a5,-514 # 9000b088 <errno>
80005292:	439c                	lw	a5,0(a5)
80005294:	c391                	beqz	a5,80005298 <_sbrk_r+0x2a>
80005296:	c01c                	sw	a5,0(s0)
80005298:	40b2                	lw	ra,12(sp)
8000529a:	4422                	lw	s0,8(sp)
8000529c:	0141                	addi	sp,sp,16
8000529e:	8082                	ret

800052a0 <__sread>:
__sread():
800052a0:	1141                	addi	sp,sp,-16
800052a2:	c422                	sw	s0,8(sp)
800052a4:	842e                	mv	s0,a1
800052a6:	00e59583          	lh	a1,14(a1)
800052aa:	c606                	sw	ra,12(sp)
800052ac:	2a71                	jal	80005448 <_read_r>
800052ae:	00054963          	bltz	a0,800052c0 <__sread+0x20>
800052b2:	487c                	lw	a5,84(s0)
800052b4:	97aa                	add	a5,a5,a0
800052b6:	c87c                	sw	a5,84(s0)
800052b8:	40b2                	lw	ra,12(sp)
800052ba:	4422                	lw	s0,8(sp)
800052bc:	0141                	addi	sp,sp,16
800052be:	8082                	ret
800052c0:	00c45783          	lhu	a5,12(s0)
800052c4:	777d                	lui	a4,0xfffff
800052c6:	177d                	addi	a4,a4,-1
800052c8:	8ff9                	and	a5,a5,a4
800052ca:	00f41623          	sh	a5,12(s0)
800052ce:	b7ed                	j	800052b8 <__sread+0x18>

800052d0 <__swrite>:
__swrite():
800052d0:	00c5d783          	lhu	a5,12(a1)
800052d4:	1101                	addi	sp,sp,-32
800052d6:	cc22                	sw	s0,24(sp)
800052d8:	ca26                	sw	s1,20(sp)
800052da:	c84a                	sw	s2,16(sp)
800052dc:	c64e                	sw	s3,12(sp)
800052de:	ce06                	sw	ra,28(sp)
800052e0:	1007f793          	andi	a5,a5,256
800052e4:	84aa                	mv	s1,a0
800052e6:	842e                	mv	s0,a1
800052e8:	8932                	mv	s2,a2
800052ea:	89b6                	mv	s3,a3
800052ec:	c791                	beqz	a5,800052f8 <__swrite+0x28>
800052ee:	00e59583          	lh	a1,14(a1)
800052f2:	4689                	li	a3,2
800052f4:	4601                	li	a2,0
800052f6:	28fd                	jal	800053f4 <_lseek_r>
800052f8:	00c45783          	lhu	a5,12(s0)
800052fc:	777d                	lui	a4,0xfffff
800052fe:	177d                	addi	a4,a4,-1
80005300:	8ff9                	and	a5,a5,a4
80005302:	00f41623          	sh	a5,12(s0)
80005306:	00e41583          	lh	a1,14(s0)
8000530a:	4462                	lw	s0,24(sp)
8000530c:	40f2                	lw	ra,28(sp)
8000530e:	86ce                	mv	a3,s3
80005310:	864a                	mv	a2,s2
80005312:	49b2                	lw	s3,12(sp)
80005314:	4942                	lw	s2,16(sp)
80005316:	8526                	mv	a0,s1
80005318:	44d2                	lw	s1,20(sp)
8000531a:	6105                	addi	sp,sp,32
8000531c:	f29fe06f          	j	80004244 <_write_r>

80005320 <__sseek>:
__sseek():
80005320:	1141                	addi	sp,sp,-16
80005322:	c422                	sw	s0,8(sp)
80005324:	842e                	mv	s0,a1
80005326:	00e59583          	lh	a1,14(a1)
8000532a:	c606                	sw	ra,12(sp)
8000532c:	20e1                	jal	800053f4 <_lseek_r>
8000532e:	57fd                	li	a5,-1
80005330:	00c45703          	lhu	a4,12(s0)
80005334:	00f51b63          	bne	a0,a5,8000534a <__sseek+0x2a>
80005338:	77fd                	lui	a5,0xfffff
8000533a:	17fd                	addi	a5,a5,-1
8000533c:	8ff9                	and	a5,a5,a4
8000533e:	00f41623          	sh	a5,12(s0)
80005342:	40b2                	lw	ra,12(sp)
80005344:	4422                	lw	s0,8(sp)
80005346:	0141                	addi	sp,sp,16
80005348:	8082                	ret
8000534a:	6785                	lui	a5,0x1
8000534c:	8fd9                	or	a5,a5,a4
8000534e:	00f41623          	sh	a5,12(s0)
80005352:	c868                	sw	a0,84(s0)
80005354:	b7fd                	j	80005342 <__sseek+0x22>

80005356 <__sclose>:
__sclose():
80005356:	00e59583          	lh	a1,14(a1)
8000535a:	a009                	j	8000535c <_close_r>

8000535c <_close_r>:
_close_r():
8000535c:	1141                	addi	sp,sp,-16
8000535e:	c422                	sw	s0,8(sp)
80005360:	842a                	mv	s0,a0
80005362:	852e                	mv	a0,a1
80005364:	10006797          	auipc	a5,0x10006
80005368:	d207a223          	sw	zero,-732(a5) # 9000b088 <errno>
8000536c:	c606                	sw	ra,12(sp)
8000536e:	86bfe0ef          	jal	ra,80003bd8 <_close>
80005372:	57fd                	li	a5,-1
80005374:	00f51963          	bne	a0,a5,80005386 <_close_r+0x2a>
80005378:	10006797          	auipc	a5,0x10006
8000537c:	d1078793          	addi	a5,a5,-752 # 9000b088 <errno>
80005380:	439c                	lw	a5,0(a5)
80005382:	c391                	beqz	a5,80005386 <_close_r+0x2a>
80005384:	c01c                	sw	a5,0(s0)
80005386:	40b2                	lw	ra,12(sp)
80005388:	4422                	lw	s0,8(sp)
8000538a:	0141                	addi	sp,sp,16
8000538c:	8082                	ret

8000538e <_fstat_r>:
_fstat_r():
8000538e:	1141                	addi	sp,sp,-16
80005390:	c422                	sw	s0,8(sp)
80005392:	842a                	mv	s0,a0
80005394:	852e                	mv	a0,a1
80005396:	85b2                	mv	a1,a2
80005398:	10006797          	auipc	a5,0x10006
8000539c:	ce07a823          	sw	zero,-784(a5) # 9000b088 <errno>
800053a0:	c606                	sw	ra,12(sp)
800053a2:	83bfe0ef          	jal	ra,80003bdc <_fstat>
800053a6:	57fd                	li	a5,-1
800053a8:	00f51963          	bne	a0,a5,800053ba <_fstat_r+0x2c>
800053ac:	10006797          	auipc	a5,0x10006
800053b0:	cdc78793          	addi	a5,a5,-804 # 9000b088 <errno>
800053b4:	439c                	lw	a5,0(a5)
800053b6:	c391                	beqz	a5,800053ba <_fstat_r+0x2c>
800053b8:	c01c                	sw	a5,0(s0)
800053ba:	40b2                	lw	ra,12(sp)
800053bc:	4422                	lw	s0,8(sp)
800053be:	0141                	addi	sp,sp,16
800053c0:	8082                	ret

800053c2 <_isatty_r>:
_isatty_r():
800053c2:	1141                	addi	sp,sp,-16
800053c4:	c422                	sw	s0,8(sp)
800053c6:	842a                	mv	s0,a0
800053c8:	852e                	mv	a0,a1
800053ca:	10006797          	auipc	a5,0x10006
800053ce:	ca07af23          	sw	zero,-834(a5) # 9000b088 <errno>
800053d2:	c606                	sw	ra,12(sp)
800053d4:	827fe0ef          	jal	ra,80003bfa <_isatty>
800053d8:	57fd                	li	a5,-1
800053da:	00f51963          	bne	a0,a5,800053ec <_isatty_r+0x2a>
800053de:	10006797          	auipc	a5,0x10006
800053e2:	caa78793          	addi	a5,a5,-854 # 9000b088 <errno>
800053e6:	439c                	lw	a5,0(a5)
800053e8:	c391                	beqz	a5,800053ec <_isatty_r+0x2a>
800053ea:	c01c                	sw	a5,0(s0)
800053ec:	40b2                	lw	ra,12(sp)
800053ee:	4422                	lw	s0,8(sp)
800053f0:	0141                	addi	sp,sp,16
800053f2:	8082                	ret

800053f4 <_lseek_r>:
_lseek_r():
800053f4:	1141                	addi	sp,sp,-16
800053f6:	c422                	sw	s0,8(sp)
800053f8:	842a                	mv	s0,a0
800053fa:	852e                	mv	a0,a1
800053fc:	85b2                	mv	a1,a2
800053fe:	8636                	mv	a2,a3
80005400:	10006797          	auipc	a5,0x10006
80005404:	c807a423          	sw	zero,-888(a5) # 9000b088 <errno>
80005408:	c606                	sw	ra,12(sp)
8000540a:	ff8fe0ef          	jal	ra,80003c02 <_lseek>
8000540e:	57fd                	li	a5,-1
80005410:	00f51963          	bne	a0,a5,80005422 <_lseek_r+0x2e>
80005414:	10006797          	auipc	a5,0x10006
80005418:	c7478793          	addi	a5,a5,-908 # 9000b088 <errno>
8000541c:	439c                	lw	a5,0(a5)
8000541e:	c391                	beqz	a5,80005422 <_lseek_r+0x2e>
80005420:	c01c                	sw	a5,0(s0)
80005422:	40b2                	lw	ra,12(sp)
80005424:	4422                	lw	s0,8(sp)
80005426:	0141                	addi	sp,sp,16
80005428:	8082                	ret

8000542a <memchr>:
memchr():
8000542a:	0ff5f593          	andi	a1,a1,255
8000542e:	962a                	add	a2,a2,a0
80005430:	00c51463          	bne	a0,a2,80005438 <memchr+0xe>
80005434:	4501                	li	a0,0
80005436:	8082                	ret
80005438:	00054783          	lbu	a5,0(a0)
8000543c:	feb78de3          	beq	a5,a1,80005436 <memchr+0xc>
80005440:	0505                	addi	a0,a0,1
80005442:	b7fd                	j	80005430 <memchr+0x6>

80005444 <__malloc_lock>:
__malloc_lock():
80005444:	8082                	ret

80005446 <__malloc_unlock>:
__malloc_unlock():
80005446:	8082                	ret

80005448 <_read_r>:
_read_r():
80005448:	1141                	addi	sp,sp,-16
8000544a:	c422                	sw	s0,8(sp)
8000544c:	842a                	mv	s0,a0
8000544e:	852e                	mv	a0,a1
80005450:	85b2                	mv	a1,a2
80005452:	8636                	mv	a2,a3
80005454:	10006797          	auipc	a5,0x10006
80005458:	c207aa23          	sw	zero,-972(a5) # 9000b088 <errno>
8000545c:	c606                	sw	ra,12(sp)
8000545e:	fb8fe0ef          	jal	ra,80003c16 <_read>
80005462:	57fd                	li	a5,-1
80005464:	00f51963          	bne	a0,a5,80005476 <_read_r+0x2e>
80005468:	10006797          	auipc	a5,0x10006
8000546c:	c2078793          	addi	a5,a5,-992 # 9000b088 <errno>
80005470:	439c                	lw	a5,0(a5)
80005472:	c391                	beqz	a5,80005476 <_read_r+0x2e>
80005474:	c01c                	sw	a5,0(s0)
80005476:	40b2                	lw	ra,12(sp)
80005478:	4422                	lw	s0,8(sp)
8000547a:	0141                	addi	sp,sp,16
8000547c:	8082                	ret
